
MNIST_CNN_Software.elf:     file format elf32-littlenios2
MNIST_CNN_Software.elf
architecture: nios2:r1, flags 0x00000112:
EXEC_P, HAS_SYMS, D_PAGED
start address 0x00000150

Program Header:
    LOAD off    0x00001000 vaddr 0x00000000 paddr 0x00000000 align 2**12
         filesz 0x00000020 memsz 0x00000020 flags r-x
    LOAD off    0x00001020 vaddr 0x00000020 paddr 0x00000020 align 2**12
         filesz 0x00035270 memsz 0x00035270 flags r-x
    LOAD off    0x00036290 vaddr 0x00035290 paddr 0x00037360 align 2**12
         filesz 0x000020d0 memsz 0x000020d0 flags rw-
    LOAD off    0x00038430 vaddr 0x00039430 paddr 0x00039430 align 2**12
         filesz 0x00000000 memsz 0x00000160 flags rw-

Sections:
Idx Name          Size      VMA       LMA       File off  Algn
  0 .entry        00000020  00000000  00000000  00001000  2**5
                  CONTENTS, ALLOC, LOAD, READONLY, CODE
  1 .exceptions   00000130  00000020  00000020  00001020  2**2
                  CONTENTS, ALLOC, LOAD, READONLY, CODE
  2 .text         00034168  00000150  00000150  00001150  2**2
                  CONTENTS, ALLOC, LOAD, READONLY, CODE
  3 .rodata       00000fd8  000342b8  000342b8  000352b8  2**2
                  CONTENTS, ALLOC, LOAD, READONLY, DATA
  4 .rwdata       000020d0  00035290  00037360  00036290  2**2
                  CONTENTS, ALLOC, LOAD, DATA, SMALL_DATA
  5 .bss          00000160  00039430  00039430  00038430  2**2
                  ALLOC, SMALL_DATA
  6 .new_sdram_controller_0 00000000  00039590  00039590  00038360  2**0
                  CONTENTS
  7 .generic_tristate_controller_0 00000000  08800000  08800000  00038360  2**0
                  CONTENTS
  8 .comment      00000023  00000000  00000000  00038360  2**0
                  CONTENTS, READONLY
  9 .debug_aranges 000012f8  00000000  00000000  00038388  2**3
                  CONTENTS, READONLY, DEBUGGING
 10 .debug_info   00032364  00000000  00000000  00039680  2**0
                  CONTENTS, READONLY, DEBUGGING
 11 .debug_abbrev 0000c8a4  00000000  00000000  0006b9e4  2**0
                  CONTENTS, READONLY, DEBUGGING
 12 .debug_line   00010884  00000000  00000000  00078288  2**0
                  CONTENTS, READONLY, DEBUGGING
 13 .debug_frame  0000256c  00000000  00000000  00088b0c  2**2
                  CONTENTS, READONLY, DEBUGGING
 14 .debug_str    00003dfb  00000000  00000000  0008b078  2**0
                  CONTENTS, READONLY, DEBUGGING
 15 .debug_loc    00023d0f  00000000  00000000  0008ee73  2**0
                  CONTENTS, READONLY, DEBUGGING
 16 .debug_alt_sim_info 00000060  00000000  00000000  000b2b84  2**2
                  CONTENTS, READONLY, DEBUGGING
 17 .debug_ranges 000024a8  00000000  00000000  000b2be8  2**3
                  CONTENTS, READONLY, DEBUGGING
 18 .thread_model 00000003  00000000  00000000  000bb73e  2**0
                  CONTENTS, READONLY
 19 .cpu          0000000c  00000000  00000000  000bb741  2**0
                  CONTENTS, READONLY
 20 .qsys         00000001  00000000  00000000  000bb74d  2**0
                  CONTENTS, READONLY
 21 .simulation_enabled 00000001  00000000  00000000  000bb74e  2**0
                  CONTENTS, READONLY
 22 .stderr_dev   0000000b  00000000  00000000  000bb74f  2**0
                  CONTENTS, READONLY
 23 .stdin_dev    0000000b  00000000  00000000  000bb75a  2**0
                  CONTENTS, READONLY
 24 .stdout_dev   0000000b  00000000  00000000  000bb765  2**0
                  CONTENTS, READONLY
 25 .sopc_system_name 0000000b  00000000  00000000  000bb770  2**0
                  CONTENTS, READONLY
 26 .quartus_project_dir 00000064  00000000  00000000  000bb77b  2**0
                  CONTENTS, READONLY
 27 .jdi          00004275  00000000  00000000  000bb7df  2**0
                  CONTENTS, READONLY
 28 .sopcinfo     0008466a  00000000  00000000  000bfa54  2**0
                  CONTENTS, READONLY
SYMBOL TABLE:
00000000 l    d  .entry	00000000 .entry
00000020 l    d  .exceptions	00000000 .exceptions
00000150 l    d  .text	00000000 .text
000342b8 l    d  .rodata	00000000 .rodata
00035290 l    d  .rwdata	00000000 .rwdata
00039430 l    d  .bss	00000000 .bss
00039590 l    d  .new_sdram_controller_0	00000000 .new_sdram_controller_0
08800000 l    d  .generic_tristate_controller_0	00000000 .generic_tristate_controller_0
00000000 l    d  .comment	00000000 .comment
00000000 l    d  .debug_aranges	00000000 .debug_aranges
00000000 l    d  .debug_info	00000000 .debug_info
00000000 l    d  .debug_abbrev	00000000 .debug_abbrev
00000000 l    d  .debug_line	00000000 .debug_line
00000000 l    d  .debug_frame	00000000 .debug_frame
00000000 l    d  .debug_str	00000000 .debug_str
00000000 l    d  .debug_loc	00000000 .debug_loc
00000000 l    d  .debug_alt_sim_info	00000000 .debug_alt_sim_info
00000000 l    d  .debug_ranges	00000000 .debug_ranges
00000000 l    df *ABS*	00000000 ../MNIST_CNN_Software_bsp//obj/HAL/src/crt0.o
00000198 l       .text	00000000 alt_after_alt_main
00000000 l    df *ABS*	00000000 alt_exception_entry.o
00000094 l       .exceptions	00000000 alt_exception_unknown
00000000 l    df *ABS*	00000000 alt_irq_handler.c
00000000 l    df *ABS*	00000000 kann.c
0000019c l     F .text	0000024c kad_ext_collate
000003e8 l     F .text	000003b4 kann_class_error_core.isra.1
0000079c l     F .text	000000e8 kann_new_leaf2.constprop.11
00000884 l     F .text	00000074 kann_new_leaf.constprop.5
000008f8 l     F .text	0000026c kann_new_leaf.constprop.4
00000b64 l     F .text	000002e0 kann_new_leaf2.constprop.10
00000e44 l     F .text	00000110 kann_cmul_norm
000343c8 l     O .rodata	0000000f __func__.4487
000343b8 l     O .rodata	00000010 __func__.4796
00000000 l    df *ABS*	00000000 kann_data.c
00000000 l    df *ABS*	00000000 kautodiff.c
00006cc8 l     F .text	00000060 conv_rot180
0001959c l     F .text	000000c4 conv1d_move_1to2
00019660 l     F .text	00000134 conv1d_add_2to1
00006d28 l     F .text	000001e0 kad_allocate_internal
00034750 l     O .rodata	00000012 __func__.5146
0003473c l     O .rodata	00000013 __func__.5185
00034764 l     O .rodata	0000000b __func__.5050
0003477c l     O .rodata	0000000b __func__.5020
00034770 l     O .rodata	0000000b __func__.5035
0003471c l     O .rodata	0000000d __func__.5263
0003470c l     O .rodata	0000000e __func__.5288
000346fc l     O .rodata	0000000f __func__.5349
000346e0 l     O .rodata	0000000b __func__.5594
000346d0 l     O .rodata	0000000d __func__.5638
000346c0 l     O .rodata	0000000e __func__.5662
000346ec l     O .rodata	0000000f __func__.5457
00035490 l     O .rwdata	00000020 kad_rng_dat
0003472c l     O .rodata	0000000f __func__.5222
000347a8 l     O .rodata	00000012 __func__.4613
0003479c l     O .rodata	00000009 __func__.4699
00034788 l     O .rodata	00000012 __func__.4806
00039430 l     O .bss	00000004 rx_done
00000000 l    df *ABS*	00000000 mnist-cnn.c
000372e4 l     O .rwdata	00000005 __func__.4046
00000000 l    df *ABS*	00000000 nn_acc_dma_driver.c
00000000 l    df *ABS*	00000000 sf_cos.c
00000000 l    df *ABS*	00000000 sf_sin.c
00000000 l    df *ABS*	00000000 w_log.c
00000000 l    df *ABS*	00000000 w_sqrt.c
00000000 l    df *ABS*	00000000 wf_exp.c
00000000 l    df *ABS*	00000000 wf_log.c
00000000 l    df *ABS*	00000000 wf_sqrt.c
00000000 l    df *ABS*	00000000 e_log.c
00000000 l    df *ABS*	00000000 e_sqrt.c
00000000 l    df *ABS*	00000000 ef_exp.c
000372f4 l     O .rwdata	00000008 ln2HI
000372ec l     O .rwdata	00000008 ln2LO
000372fc l     O .rwdata	00000008 halF
00000000 l    df *ABS*	00000000 ef_log.c
00000000 l    df *ABS*	00000000 ef_rem_pio2.c
00034a04 l     O .rodata	00000318 two_over_pi
00034984 l     O .rodata	00000080 npio2_hw
00000000 l    df *ABS*	00000000 ef_sqrt.c
00000000 l    df *ABS*	00000000 kf_cos.c
00000000 l    df *ABS*	00000000 kf_rem_pio2.c
00034d48 l     O .rodata	0000000c init_jk
00034d1c l     O .rodata	0000002c PIo2
00000000 l    df *ABS*	00000000 kf_sin.c
00000000 l    df *ABS*	00000000 s_fpclassify.c
00000000 l    df *ABS*	00000000 s_lib_ver.c
00000000 l    df *ABS*	00000000 s_matherr.c
00000000 l    df *ABS*	00000000 s_nan.c
00000000 l    df *ABS*	00000000 sf_fabs.c
00000000 l    df *ABS*	00000000 sf_finite.c
00000000 l    df *ABS*	00000000 sf_floor.c
00000000 l    df *ABS*	00000000 sf_fpclassify.c
00000000 l    df *ABS*	00000000 sf_scalbn.c
00000000 l    df *ABS*	00000000 sf_copysign.c
00000000 l    df *ABS*	00000000 libgcc2.c
00000000 l    df *ABS*	00000000 libgcc2.c
00000000 l    df *ABS*	00000000 lib2-divmod.c
00000000 l    df *ABS*	00000000 lib2-divtable.c
00000000 l    df *ABS*	00000000 addsf3.c
00000000 l    df *ABS*	00000000 divsf3.c
00000000 l    df *ABS*	00000000 eqsf2.c
00000000 l    df *ABS*	00000000 gesf2.c
00000000 l    df *ABS*	00000000 lesf2.c
00000000 l    df *ABS*	00000000 mulsf3.c
00000000 l    df *ABS*	00000000 subsf3.c
00000000 l    df *ABS*	00000000 fixsfsi.c
00000000 l    df *ABS*	00000000 floatsisf.c
00000000 l    df *ABS*	00000000 adddf3.c
00000000 l    df *ABS*	00000000 divdf3.c
00000000 l    df *ABS*	00000000 eqdf2.c
00000000 l    df *ABS*	00000000 gedf2.c
00000000 l    df *ABS*	00000000 ledf2.c
00000000 l    df *ABS*	00000000 muldf3.c
00000000 l    df *ABS*	00000000 subdf3.c
00000000 l    df *ABS*	00000000 fixdfsi.c
00000000 l    df *ABS*	00000000 floatsidf.c
00000000 l    df *ABS*	00000000 extendsfdf2.c
00000000 l    df *ABS*	00000000 truncdfsf2.c
00000000 l    df *ABS*	00000000 libgcc2.c
00000000 l    df *ABS*	00000000 libgcc2.c
00000000 l    df *ABS*	00000000 abort.c
00000000 l    df *ABS*	00000000 assert.c
00000000 l    df *ABS*	00000000 calloc.c
00000000 l    df *ABS*	00000000 mallocr.c
00000000 l    df *ABS*	00000000 errno.c
00000000 l    df *ABS*	00000000 exit.c
00000000 l    df *ABS*	00000000 fclose.c
00000000 l    df *ABS*	00000000 fflush.c
00000000 l    df *ABS*	00000000 fgets.c
00000000 l    df *ABS*	00000000 fileno.c
00000000 l    df *ABS*	00000000 findfp.c
00021884 l     F .text	00000008 __fp_unlock
00021898 l     F .text	0000019c __sinit.part.1
00021a34 l     F .text	00000008 __fp_lock
00000000 l    df *ABS*	00000000 fiprintf.c
00000000 l    df *ABS*	00000000 fopen.c
00000000 l    df *ABS*	00000000 fprintf.c
00000000 l    df *ABS*	00000000 fputc.c
00000000 l    df *ABS*	00000000 fputs.c
00000000 l    df *ABS*	00000000 fread.c
00000000 l    df *ABS*	00000000 mallocr.c
00000000 l    df *ABS*	00000000 fseek.c
00000000 l    df *ABS*	00000000 fseeko.c
00000000 l    df *ABS*	00000000 fstatr.c
00000000 l    df *ABS*	00000000 fvwrite.c
00000000 l    df *ABS*	00000000 fwalk.c
00000000 l    df *ABS*	00000000 fwrite.c
00000000 l    df *ABS*	00000000 impure.c
000355b0 l     O .rwdata	00000424 impure_data
00000000 l    df *ABS*	00000000 int_errno.c
00000000 l    df *ABS*	00000000 makebuf.c
00000000 l    df *ABS*	00000000 malloc.c
00000000 l    df *ABS*	00000000 mallocr.c
00000000 l    df *ABS*	00000000 memchr.c
00000000 l    df *ABS*	00000000 memcpy.c
00000000 l    df *ABS*	00000000 memmove.c
00000000 l    df *ABS*	00000000 memset.c
00000000 l    df *ABS*	00000000 openr.c
00000000 l    df *ABS*	00000000 printf.c
00000000 l    df *ABS*	00000000 putc.c
00000000 l    df *ABS*	00000000 realloc.c
00000000 l    df *ABS*	00000000 mallocr.c
00000000 l    df *ABS*	00000000 refill.c
00024830 l     F .text	0000001c lflush
00000000 l    df *ABS*	00000000 sbrkr.c
00000000 l    df *ABS*	00000000 signal.c
00000000 l    df *ABS*	00000000 signalr.c
00000000 l    df *ABS*	00000000 stdio.c
00000000 l    df *ABS*	00000000 strcmp.c
00000000 l    df *ABS*	00000000 strdup.c
00000000 l    df *ABS*	00000000 strdup_r.c
00000000 l    df *ABS*	00000000 strlen.c
00000000 l    df *ABS*	00000000 strncmp.c
00000000 l    df *ABS*	00000000 strtod.c
00025174 l     F .text	00000064 sulp
00034eb8 l     O .rodata	00000014 fpi.2737
00034ecc l     O .rodata	00000028 tinytens
00034ea4 l     O .rodata	00000014 fpinan.2773
00000000 l    df *ABS*	00000000 vfiprintfr_1.c
00000000 l    df *ABS*	00000000 vfprintf.c
00034f33 l     O .rodata	00000010 zeroes.4404
00028b14 l     F .text	000000bc __sbprintf
00034f43 l     O .rodata	00000010 blanks.4403
00000000 l    df *ABS*	00000000 wbuf.c
00000000 l    df *ABS*	00000000 writer.c
00000000 l    df *ABS*	00000000 wsetup.c
00000000 l    df *ABS*	00000000 closer.c
00000000 l    df *ABS*	00000000 __call_atexit.c
00000000 l    df *ABS*	00000000 dtoa.c
000290b0 l     F .text	00000200 quorem
00000000 l    df *ABS*	00000000 flags.c
00000000 l    df *ABS*	00000000 gdtoa-gethex.c
0002a9e4 l     F .text	00000100 rshift
00000000 l    df *ABS*	00000000 gdtoa-hexnan.c
00000000 l    df *ABS*	00000000 isattyr.c
00000000 l    df *ABS*	00000000 locale.c
00035dfc l     O .rwdata	00000020 lc_ctype_charset
00035ddc l     O .rwdata	00000020 lc_message_charset
00035e1c l     O .rwdata	00000038 lconv
00000000 l    df *ABS*	00000000 lseekr.c
00000000 l    df *ABS*	00000000 mprec.c
00035070 l     O .rodata	0000000c p05.2768
00000000 l    df *ABS*	00000000 readr.c
00000000 l    df *ABS*	00000000 vfprintf.c
0002c75c l     F .text	000000fc __sprint_r.part.0
000351a4 l     O .rodata	00000010 blanks.4348
00035194 l     O .rodata	00000010 zeroes.4349
0002dce8 l     F .text	000000bc __sbprintf
00000000 l    df *ABS*	00000000 fputwc.c
00000000 l    df *ABS*	00000000 wcrtomb.c
00000000 l    df *ABS*	00000000 wctomb_r.c
00000000 l    df *ABS*	00000000 libgcc2.c
00000000 l    df *ABS*	00000000 libgcc2.c
00000000 l    df *ABS*	00000000 libgcc2.c
00000000 l    df *ABS*	00000000 floatunsidf.c
00000000 l    df *ABS*	00000000 alt_close.c
00000000 l    df *ABS*	00000000 alt_dev.c
0002ee1c l     F .text	00000008 alt_dev_null_write
00000000 l    df *ABS*	00000000 alt_errno.c
00000000 l    df *ABS*	00000000 alt_exit.c
00000000 l    df *ABS*	00000000 alt_fstat.c
00000000 l    df *ABS*	00000000 alt_getpid.c
00000000 l    df *ABS*	00000000 alt_isatty.c
00000000 l    df *ABS*	00000000 alt_kill.c
00000000 l    df *ABS*	00000000 alt_load.c
00000000 l    df *ABS*	00000000 alt_lseek.c
00000000 l    df *ABS*	00000000 alt_main.c
00000000 l    df *ABS*	00000000 alt_malloc_lock.c
00000000 l    df *ABS*	00000000 alt_open.c
00000000 l    df *ABS*	00000000 alt_read.c
00000000 l    df *ABS*	00000000 alt_release_fd.c
00000000 l    df *ABS*	00000000 alt_sbrk.c
00037338 l     O .rwdata	00000004 heap_end
00000000 l    df *ABS*	00000000 alt_write.c
00000000 l    df *ABS*	00000000 alt_sys_init.c
00037204 l     O .rwdata	000000dc generic_tristate_controller_0
00037128 l     O .rwdata	0000001c dma_0_rx
00037144 l     O .rwdata	0000001c dma_0_tx
000360c8 l     O .rwdata	00001060 jtag_uart_0
00036098 l     O .rwdata	00000030 altera_ro_zipfs
00036050 l     O .rwdata	00000048 video_character_buffer_with_dma_0
00035ffc l     O .rwdata	00000054 video_pixel_buffer_dma_0
00037160 l     O .rwdata	000000a4 dma_0_priv
00000000 l    df *ABS*	00000000 altera_avalon_cfi_flash.c
00000000 l    df *ABS*	00000000 altera_avalon_cfi_flash_table.c
00000000 l    df *ABS*	00000000 altera_avalon_dma.c
00030a84 l     F .text	00000198 alt_avalon_dma_irq
00030c9c l     F .text	00000044 alt_avalon_dma_launch_txonly
00030ce0 l     F .text	00000044 alt_avalon_dma_launch_rxonly
00035254 l     O .rodata	00000020 CSWTCH.10
00000000 l    df *ABS*	00000000 altera_avalon_jtag_uart_fd.c
00000000 l    df *ABS*	00000000 altera_avalon_jtag_uart_init.c
0003132c l     F .text	0000004c altera_avalon_jtag_uart_timeout
00031378 l     F .text	00000108 altera_avalon_jtag_uart_irq
00000000 l    df *ABS*	00000000 altera_avalon_jtag_uart_ioctl.c
00000000 l    df *ABS*	00000000 altera_avalon_jtag_uart_read.c
00000000 l    df *ABS*	00000000 altera_avalon_jtag_uart_write.c
00000000 l    df *ABS*	00000000 altera_avalon_timer_sc.c
000318ac l     F .text	0000003c alt_avalon_timer_sc_irq
00000000 l    df *ABS*	00000000 altera_ro_zipfs.c
00031930 l     F .text	00000134 find_file_entry.isra.1
00000000 l    df *ABS*	00000000 altera_up_avalon_video_character_buffer_with_dma.c
00000000 l    df *ABS*	00000000 altera_up_avalon_video_pixel_buffer_dma.c
00000000 l    df *ABS*	00000000 alt_alarm_start.c
00000000 l    df *ABS*	00000000 alt_dcache_flush.c
00000000 l    df *ABS*	00000000 alt_dcache_flush_all.c
00000000 l    df *ABS*	00000000 alt_dev_llist_insert.c
00000000 l    df *ABS*	00000000 alt_dma_rxchan_open.c
00000000 l    df *ABS*	00000000 alt_dma_txchan_open.c
00000000 l    df *ABS*	00000000 alt_do_ctors.c
00000000 l    df *ABS*	00000000 alt_do_dtors.c
00000000 l    df *ABS*	00000000 alt_find_dev.c
00000000 l    df *ABS*	00000000 alt_find_file.c
00000000 l    df *ABS*	00000000 alt_flash_dev.c
00000000 l    df *ABS*	00000000 alt_fs_reg.c
00000000 l    df *ABS*	00000000 alt_get_fd.c
00000000 l    df *ABS*	00000000 alt_icache_flush_all.c
00000000 l    df *ABS*	00000000 alt_iic.c
00000000 l    df *ABS*	00000000 alt_iic_isr_register.c
00000000 l    df *ABS*	00000000 alt_io_redirect.c
00000000 l    df *ABS*	00000000 alt_irq_vars.c
00000000 l    df *ABS*	00000000 alt_tick.c
00000000 l    df *ABS*	00000000 altera_nios2_qsys_irq.c
00000000 l    df *ABS*	00000000 altera_avalon_cfi_flash_amd.c
0003399c l     F .text	0000014c alt_write_word_amd
00000000 l    df *ABS*	00000000 altera_avalon_cfi_flash_intel.c
00033c70 l     F .text	000000a4 alt_write_word_intel
00000000 l    df *ABS*	00000000 alt_icache_flush.c
00000000 l    df *ABS*	00000000 alt_usleep.c
00000000 l    df *ABS*	00000000 alt_busy_sleep.c
00000000 l    df *ABS*	00000000 atexit.c
00000000 l    df *ABS*	00000000 memcmp.c
00000000 l    df *ABS*	00000000 __atexit.c
0000eb38 g     F .text	000006a0 kad_op_matmul
0002c584 g     F .text	00000074 _mprec_log10
00014e00 g     F .text	0000016c kad_reshape
0002c670 g     F .text	0000008c __any_on
0002b570 g     F .text	00000054 _isatty_r
0003507c g     O .rodata	00000028 __mprec_tinytens
0002f17c g     F .text	00000060 alt_main
00032740 g     F .text	0000017c alt_up_pixel_buffer_dma_draw_vline
00007424 g     F .text	00000420 kad_op_max1d
0002fdac g     F .text	00000018 alt_read_query_entry_32bit
00039490 g     O .bss	00000100 alt_irq
0002b6a0 g     F .text	00000060 _lseek_r
00019f5c g     F .text	0000019c log
0002f7c4 g     F .text	000001fc alt_flash_cfi_write
00012128 g     F .text	0000010c kad_ce_multi
0001a0f8 g     F .text	00000130 sqrt
00037360 g       *ABS*	00000000 __flash_rwdata_start
00011f10 g     F .text	0000010c kad_cmul
0002a938 g     F .text	000000ac __sflags
0001fa74 g     F .text	00000088 .hidden __eqdf2
00015b30 g     F .text	000001d0 kad_eval_at
00039590 g       *ABS*	00000000 __alt_heap_start
00024d18 g     F .text	0000005c _kill_r
00002978 g     F .text	00000124 kann_layer_dense2
00024110 g     F .text	0000003c printf
000048e0 g     F .text	00000068 kann_layer_conv1d
0002dfac g     F .text	0000009c _wcrtomb_r
00011a44 g     F .text	0000008c kad_const
00024ae0 g     F .text	00000084 _signal_r
00009dc8 g     F .text	00000a60 kad_op_reshape
00017af0 g     F .text	00000078 kad_saxpy
00024e50 g     F .text	0000005c __sseek
00021bd4 g     F .text	00000010 __sinit
0003125c g     F .text	00000094 alt_avalon_dma_init
0003219c g     F .text	00000080 alt_up_char_buffer_string
00028bd0 g     F .text	00000140 __swbuf_r
0000e21c g     F .text	00000160 kad_op_log
0002b5c4 g     F .text	0000007c _setlocale_r
0000e4d4 g     F .text	00000664 kad_op_cmul
00021a3c g     F .text	00000068 __sfmoreglue
00001198 g     F .text	00000084 kann_unroll_array
0002f1e0 g     F .text	00000004 __malloc_unlock
000251d8 g     F .text	000015f8 _strtod_r
0001d830 g     F .text	00000440 .hidden __divsf3
0001244c g     F .text	0000010c kad_mse
000182e4 g     F .text	000000c4 kad_rand
00004854 g     F .text	0000008c kann_layer_conv2d
0003214c g     F .text	00000050 alt_up_char_buffer_draw
00004dfc g     F .text	00000184 kann_grad_clip
00023dfc g     F .text	0000015c memmove
00021bbc g     F .text	00000018 _cleanup
00003e80 g     F .text	00000010 kann_new_vec
0000f67c g     F .text	000023c8 kad_op_conv2d
0002b700 g     F .text	000000a8 _Balloc
0000867c g     F .text	00000160 kad_op_square
0001e74c g     F .text	00000070 .hidden __fixsfsi
000012fc g     F .text	00000038 kann_delete_unrolled
00032248 g     F .text	000000b8 alt_up_pixel_buffer_dma_draw
0001fafc g     F .text	000000dc .hidden __gtdf2
000212c8 g     F .text	00000010 __errno
00035390 g     O .rwdata	00000100 kad_op_list
0002fe20 g     F .text	00000018 alt_write_flash_command_32bit_device_16bit_mode
00032240 g     F .text	00000008 alt_up_pixel_buffer_dma_open_dev
000019ac g     F .text	00000144 kann_eval
00000000 g     F .entry	0000001c __reset
0001b78c g     F .text	00000524 __ieee754_rem_pio2f
00011cf8 g     F .text	0000010c kad_sub
000063a4 g     F .text	00000118 kann_apply1
0001a394 g     F .text	00000178 logf
00000020 g       *ABS*	00000000 __flash_exceptions_start
00022a40 g     F .text	0000005c _fstat_r
0002fab0 g     F .text	000002d8 alt_flash_program_block
00039434 g     O .bss	00000004 errno
000151fc g     F .text	00000190 kad_sync_dim
00024dcc g     F .text	00000008 __seofread
00039454 g     O .bss	00000004 alt_argv
0003f2e0 g       *ABS*	00000000 _gp
00034094 g     F .text	00000004 usleep
000015f0 g     F .text	000003bc kann_feed_dim
0001e268 g     F .text	000004e4 .hidden __subsf3
00032300 g     F .text	0000001c alt_up_pixel_buffer_dma_change_back_buffer_address
0002eeb0 g     F .text	00000008 getpid
00004044 g     F .text	00000064 kann_layer_dropout
00003f08 g     F .text	00000030 kann_layer_input
000187a4 g     F .text	00000210 kad_op_sample_normal
0001a50c g     F .text	00000114 sqrtf
00021800 g     F .text	0000001c fgets
00033344 g     F .text	00000050 alt_dma_txchan_open
00035e54 g     O .rwdata	00000180 alt_fd_list
00005dd0 g     F .text	000005d4 kann_cost_fnn1
00012234 g     F .text	0000010c kad_ce_bin
00035290 g     O .rwdata	00000100 kad_op_name
0003345c g     F .text	00000078 alt_find_dev
00023cb4 g     F .text	00000148 memcpy
0002b314 g     F .text	0000025c __hexnan
00015d00 g     F .text	0000027c kad_grad
0003221c g     F .text	00000024 alt_up_char_buffer_clear
0002188c g     F .text	0000000c _cleanup_r
00020d60 g     F .text	000000dc .hidden __floatsidf
000335e4 g     F .text	00000034 alt_fs_reg
00033768 g     F .text	00000104 alt_io_redirect
0001fbd8 g     F .text	000000f4 .hidden __ltdf2
000342b8 g       *ABS*	00000000 __DTOR_END__
00031b90 g     F .text	000001c4 alt_ro_zipfs_open
0001b2f4 g     F .text	00000498 __ieee754_logf
00013dc4 g     F .text	00000154 kad_stack
0001cd8c g     F .text	00000074 __fpclassifyd
0002c4e0 g     F .text	000000a4 __ratio
0002dccc g     F .text	0000001c __vfiprintf_internal
00014c1c g     F .text	000001e4 kad_concat
00032340 g     F .text	00000010 alt_up_pixel_buffer_dma_check_swap_buffers_status
000315b8 g     F .text	00000154 altera_avalon_jtag_uart_read
0002339c g     F .text	00000014 malloc
000240e0 g     F .text	00000030 _printf_r
0001d2ac g     F .text	00000064 .hidden __udivsi3
0002eeb8 g     F .text	00000084 isatty
00024b64 g     F .text	000000bc _raise_r
00021170 g     F .text	00000068 __assert_func
000350cc g     O .rodata	000000c8 __mprec_tens
000325e8 g     F .text	00000158 alt_up_pixel_buffer_dma_draw_hline
00011ad0 g     F .text	00000080 kad_feed
0002b640 g     F .text	0000000c __locale_charset
0001dda4 g     F .text	000000c8 .hidden __lesf2
000183a8 g     F .text	000000dc kad_drand
0002e194 g     F .text	00000074 .hidden __fixunsdfsi
00034044 g     F .text	00000050 alt_icache_flush
00039440 g     O .bss	00000004 __malloc_top_pad
00024d74 g     F .text	00000004 _getpid_r
000372e0 g     O .rwdata	00000004 kann_verbose
0001cf40 g     F .text	00000058 __fpclassifyf
00013c70 g     F .text	00000154 kad_max
00037318 g     O .rwdata	00000004 __mb_cur_max
00001f34 g     F .text	00000054 kann_switch
0002b670 g     F .text	0000000c _localeconv_r
0002bb0c g     F .text	0000003c __i2b
00022a9c g     F .text	000004bc __sfvwrite_r
00024c20 g     F .text	000000a8 __sigtramp_r
00017f2c g     F .text	00000170 kad_srand
0001ce24 g     F .text	00000018 finitef
00024a20 g     F .text	00000054 _sbrk_r
00033d14 g     F .text	00000174 alt_program_intel
00032ee4 g     F .text	00000058 helper_plot_pixel
000141bc g     F .text	00000134 kad_reduce_mean
0000aba8 g     F .text	000002b4 kad_op_avg
00015f7c g     F .text	000001fc kad_save
0001ce14 g     F .text	00000010 fabsf
0002c6fc g     F .text	00000060 _read_r
00033230 g     F .text	00000040 alt_dcache_flush
00037320 g     O .rwdata	00000004 alt_max_fd
0002fd88 g     F .text	00000010 alt_read_query_entry_8bit
00021310 g     F .text	000000f0 _fclose_r
000142f0 g     F .text	00000338 kad_dropout
00033e88 g     F .text	000001bc alt_erase_block_intel
0002168c g     F .text	00000030 fflush
0003943c g     O .bss	00000004 __malloc_max_sbrked_mem
00020e3c g     F .text	00000110 .hidden __extendsfdf2
0000d428 g     F .text	000005bc kad_op_stdnorm
0001e8e0 g     F .text	000008ac .hidden __adddf3
0001dc70 g     F .text	00000078 .hidden __nesf2
00030c1c g     F .text	00000080 alt_avalon_dma_launch_bidir
00014628 g     F .text	00000330 kad_sample_normal
0002c288 g     F .text	0000010c __b2d
0001580c g     F .text	000000a4 kad_delete
00032350 g     F .text	00000094 alt_up_pixel_buffer_dma_clear_screen
000332f4 g     F .text	00000050 alt_dma_rxchan_open
0002e780 g     F .text	00000538 .hidden __umoddi3
0002f100 g     F .text	0000007c lseek
00002f94 g     F .text	00000c44 kann_layer_gru2
00037304 g     O .rwdata	00000004 __fdlib_version
00037308 g     O .rwdata	00000004 _global_impure_ptr
000242cc g     F .text	00000564 _realloc_r
0001cbd4 g     F .text	000001b8 __kernel_sinf
00039590 g       *ABS*	00000000 __bss_end
00033700 g     F .text	00000068 alt_iic_isr_register
000323e4 g     F .text	00000204 alt_up_pixel_buffer_dma_draw_box
000338a0 g     F .text	000000f4 alt_tick
00034f64 g     O .rodata	00000100 __hexdig
0002e208 g     F .text	00000578 .hidden __udivdi3
0002df08 g     F .text	00000024 _fputwc_r
0001325c g     F .text	000002b8 kad_max2d
000350a4 g     O .rodata	00000028 __mprec_bigtens
0002b8f0 g     F .text	00000104 __s2b
00021158 g     F .text	00000018 abort
0002ecb8 g     F .text	000000a8 .hidden __floatunsidf
0002bfc8 g     F .text	00000060 __mcmp
00013724 g     F .text	000001fc kad_max1d
00021bf4 g     F .text	00000018 __fp_lock_all
000336e8 g     F .text	00000018 alt_ic_irq_enabled
0001201c g     F .text	0000010c kad_matmul
0001afc4 g     F .text	00000330 __ieee754_expf
0003386c g     F .text	00000034 alt_alarm_stop
00014958 g     F .text	00000164 kad_slice
000169f0 g     F .text	00000050 kad_n_pivots
00019dfc g     F .text	000000b0 cosf
0003945c g     O .bss	00000004 alt_irq_active
000225e0 g     F .text	00000444 _fseeko_r
0000121c g     F .text	000000e0 kann_unroll
00031dfc g     F .text	000000cc alt_ro_zipfs_seek
000000ec g     F .exceptions	00000064 alt_irq_handler
00035fd4 g     O .rwdata	00000028 alt_dev_null
00024fa4 g     F .text	00000068 _strdup_r
00002af4 g     F .text	00000124 kann_layer_layernorm2
0002ff74 g     F .text	00000064 alt_set_flash_algorithm_func
0000b0b4 g     F .text	000001e4 kad_op_select
00033270 g     F .text	00000018 alt_dcache_flush_all
0002b9f4 g     F .text	00000068 __hi0bits
000328bc g     F .text	00000628 alt_up_pixel_buffer_dma_draw_rectangle
00020ce0 g     F .text	00000080 .hidden __fixdfsi
000211ec g     F .text	00000018 calloc
0001538c g     F .text	000003ec kad_compile_array
0001be04 g     F .text	000002cc __kernel_cosf
0002fdc4 g     F .text	0000000c alt_write_flash_command_8bit_device_8bit_mode
000267d0 g     F .text	00000018 strtod
00037360 g       *ABS*	00000000 __ram_rwdata_end
000189b8 g     F .text	00000274 kad_print_graph
0000c670 g     F .text	00000448 kad_op_ce_bin
00037324 g     O .rwdata	00000008 alt_dev_list
00031188 g     F .text	00000028 alt_avalon_dma_space
00021dd8 g     F .text	00000044 _fputc_r
0002f494 g     F .text	000000c4 write
0002414c g     F .text	000000a0 _putc_r
00032f3c g     F .text	00000274 alt_up_pixel_buffer_dma_draw_line
0001dce8 g     F .text	000000bc .hidden __gtsf2
00004c34 g     F .text	000001c8 kann_RMSprop
00035290 g       *ABS*	00000000 __ram_rodata_end
0002ee38 g     F .text	00000078 fstat
00021db4 g     F .text	00000024 fprintf
0002ef3c g     F .text	000000f8 kill
0001fbd8 g     F .text	000000f4 .hidden __ledf2
000309c0 g     F .text	000000c4 alt_check_primary_table
0000b298 g     F .text	000013d8 kad_op_conv1d
0002bd40 g     F .text	00000140 __pow5mult
00007844 g     F .text	000005c0 kad_op_avg1d
0003944c g     O .bss	00000004 __nlocale_changed
0002c870 g     F .text	0000145c ___vfiprintf_internal_r
0001d310 g     F .text	00000058 .hidden __umodsi3
0002f9f8 g     F .text	0000002c alt_flash_cfi_read
0002fe04 g     F .text	00000008 alt_write_native_8bit
00039590 g       *ABS*	00000000 end
0002fdd0 g     F .text	00000020 alt_write_flash_command_16bit_device_8bit_mode
00022a24 g     F .text	0000001c fseeko
000320f4 g     F .text	00000050 alt_up_char_buffer_init
000225c4 g     F .text	0000001c fseek
0002ffd8 g     F .text	00000638 alt_read_cfi_table
00031480 g     F .text	00000078 altera_avalon_jtag_uart_init
000342b8 g       *ABS*	00000000 __CTOR_LIST__
08000000 g       *ABS*	00000000 __alt_stack_pointer
000318e8 g     F .text	00000048 alt_avalon_timer_sc_init
000210f4 g     F .text	00000064 .hidden __clzsi2
000087dc g     F .text	00000180 kad_op_relu
00001f88 g     F .text	000000c0 kann_save_fp
0003170c g     F .text	000001a0 altera_avalon_jtag_uart_write
0002f760 g     F .text	00000064 alt_flash_cfi_init
0000a828 g     F .text	00000380 kad_op_reverse
00021be4 g     F .text	00000004 __sfp_lock_acquire
00023bd0 g     F .text	000000e4 memchr
00026900 g     F .text	000021f8 ___vfprintf_internal_r
000222b0 g     F .text	00000310 _free_r
0002b64c g     F .text	00000010 __locale_mb_cur_max
000311b0 g     F .text	000000ac alt_avalon_dma_send
00028f30 g     F .text	00000180 __call_exitprocs
00003f38 g     F .text	0000010c kann_layer_dense
00037344 g     O .rwdata	00000008 alt_dma_txchan_list
00039448 g     O .bss	00000004 __mlocale_changed
00037310 g     O .rwdata	00000004 __malloc_sbrk_base
00000150 g     F .text	0000004c _start
00039464 g     O .bss	00000004 _alt_tick_rate
00012b70 g     F .text	00000104 kad_relu
00016a40 g     F .text	00001034 kad_unroll
0002be80 g     F .text	00000148 __lshift
00012864 g     F .text	00000104 kad_square
00039460 g     O .bss	00000004 _alt_nticks
00024cdc g     F .text	00000018 signal
0002f35c g     F .text	000000c8 read
0002f578 g     F .text	000001e8 alt_sys_init
0001e7bc g     F .text	00000124 .hidden __floatsisf
00012968 g     F .text	00000104 kad_sigm
0000ae5c g     F .text	00000258 kad_op_stack
00024080 g     F .text	00000060 _open_r
000341a0 g     F .text	00000118 __register_exitproc
000250a4 g     F .text	000000d0 strncmp
000159c0 g     F .text	00000170 kad_eval_marked
000164d0 g     F .text	00000520 kad_clone
0002fd98 g     F .text	00000014 alt_read_query_entry_16bit
0002bb48 g     F .text	000001f8 __multiply
000314f8 g     F .text	0000004c altera_avalon_jtag_uart_close
00035290 g       *ABS*	00000000 __ram_rwdata_start
000342b8 g       *ABS*	00000000 __ram_rodata_start
00039468 g     O .bss	00000028 __malloc_current_mallinfo
00009510 g     F .text	00000138 kad_op_1minus
0001dc70 g     F .text	00000078 .hidden __eqsf2
0002fe60 g     F .text	00000114 alt_set_flash_width_func
0002c394 g     F .text	0000014c __d2b
00001af0 g     F .text	00000154 kann_rnn_start
000242b4 g     F .text	00000018 realloc
000312f0 g     F .text	00000010 altera_avalon_jtag_uart_read_fd
00033618 g     F .text	00000050 alt_get_fd
00034098 g     F .text	00000078 alt_busy_sleep
00028edc g     F .text	00000054 _close_r
00008bdc g     F .text	0000038c kad_op_mul
00002c18 g     F .text	0000037c kann_layer_rnn2
00033b08 g     F .text	00000168 alt_erase_block_amd
00034124 g     F .text	0000007c memcmp
00031310 g     F .text	00000010 altera_avalon_jtag_uart_close_fd
00039590 g       *ABS*	00000000 __alt_stack_base
00031320 g     F .text	0000000c altera_avalon_jtag_uart_ioctl_fd
00003e48 g     F .text	0000000c kann_new_scalar
000230e0 g     F .text	000000cc _fwrite_r
00002694 g     F .text	000002e4 kann_new_leaf2
00028d88 g     F .text	00000154 __swsetup_r
00030610 g     F .text	000003b0 alt_read_cfi_width
0001f18c g     F .text	000008e8 .hidden __divdf3
00021aa4 g     F .text	00000118 __sfp
0002c5f8 g     F .text	00000078 __copybits
000359d4 g     O .rwdata	00000408 __malloc_av_
0000e37c g     F .text	00000158 kad_op_sin
00021bf0 g     F .text	00000004 __sinit_lock_release
00008f68 g     F .text	000002d4 kad_op_add
0001fccc g     F .text	00000718 .hidden __muldf3
00024d78 g     F .text	00000054 __sread
00022158 g     F .text	00000034 fread
000334d4 g     F .text	000000ac alt_find_file
00033288 g     F .text	0000006c alt_dev_llist_insert
0002f1dc g     F .text	00000004 __malloc_lock
00021d8c g     F .text	00000028 _fprintf_r
0002f448 g     F .text	0000004c sbrk
00024f90 g     F .text	00000014 strdup
0001cf98 g     F .text	00000144 scalbnf
00021630 g     F .text	0000005c _fflush_r
00021204 g     F .text	000000c4 _calloc_r
0000425c g     F .text	000000a8 kann_layer_gru
0003734c g     O .rwdata	00000008 alt_flash_dev_list
00012d78 g     F .text	00000104 kad_softmax
0002fe0c g     F .text	00000014 alt_write_flash_command_16bit_device_16bit_mode
000354b0 g     O .rwdata	00000100 .hidden __divsi3_table
00021d74 g     F .text	00000018 fopen
00039430 g       *ABS*	00000000 __bss_start
00023f58 g     F .text	00000128 memset
0001bcb0 g     F .text	00000154 __ieee754_sqrtf
00019794 g     F .text	00000668 main
00030f00 g     F .text	000001dc alt_avalon_dma_rx_ioctl
00039450 g     O .bss	00000004 alt_envp
00039438 g     O .bss	00000004 __malloc_max_total_mem
0003231c g     F .text	00000024 alt_up_pixel_buffer_dma_swap_buffers
00032144 g     F .text	00000008 alt_up_char_buffer_open_dev
00031300 g     F .text	00000010 altera_avalon_jtag_uart_write_fd
00028d10 g     F .text	00000018 __swbuf
00003e54 g     F .text	0000002c kann_new_weight
0001dda4 g     F .text	000000c8 .hidden __ltsf2
00021f2c g     F .text	0000022c _fread_r
00006f08 g     F .text	0000051c kad_op_max2d
00024eac g     F .text	00000008 __sclose
0001ce00 g     F .text	00000008 matherr
08000000 g       *ABS*	00000000 __alt_heap_limit
00021400 g     F .text	00000014 fclose
0001265c g     F .text	00000104 kad_exp
00020f4c g     F .text	000001a8 .hidden __truncdfsf2
000292b0 g     F .text	00001688 _dtoa_r
000233c4 g     F .text	0000080c _malloc_r
0002e108 g     F .text	00000030 __ascii_wctomb
00037334 g     O .rwdata	00000004 alt_errno
00021c24 g     F .text	00000020 _fiprintf_r
0002fe40 g     F .text	00000018 alt_write_flash_command_32bit_device_32bit_mode
00024cf4 g     F .text	00000010 _init_signal
0001809c g     F .text	00000248 kad_rng
00022f58 g     F .text	000000c4 _fwalk
000216bc g     F .text	00000144 _fgets_r
0002fa24 g     F .text	0000008c alt_write_value_to_flash
0002fe38 g     F .text	00000008 alt_write_native_16bit
000241ec g     F .text	000000c8 putc
0001d1b4 g     F .text	00000084 .hidden __divsi3
00018c2c g     F .text	00000970 kad_check_grad
00031d54 g     F .text	000000a8 alt_ro_zipfs_read
0002218c g     F .text	00000124 _malloc_trim_r
00014abc g     F .text	00000160 kad_concat_array
000342b8 g       *ABS*	00000000 __CTOR_END__
0001de6c g     F .text	000003fc .hidden __mulsf3
00031f1c g     F .text	000001d8 alt_ro_zipfs_check_valid
00024eb4 g     F .text	000000dc strcmp
000342b8 g       *ABS*	00000000 __flash_rodata_start
000342b8 g       *ABS*	00000000 __DTOR_LIST__
00001e1c g     F .text	0000010c kann_cost
00002a9c g     F .text	00000058 kann_layer_dropout2
0001fa74 g     F .text	00000088 .hidden __nedf2
00031ec8 g     F .text	00000054 alt_ro_zipfs_fstat
0002f558 g     F .text	00000020 alt_irq_init
0002f424 g     F .text	00000024 alt_release_fd
00018484 g     F .text	00000320 kad_drand_normal
0001d0dc g     F .text	00000018 copysignf
00012a6c g     F .text	00000104 kad_tanh
00034d54 g     O .rodata	00000100 .hidden __clz_tab
00039444 g     O .bss	00000004 _PathLocale
08800000 g       *ABS*	00000000 __alt_mem_generic_tristate_controller_0
000267e8 g     F .text	00000100 strtof
00034110 g     F .text	00000014 atexit
0001dce8 g     F .text	000000bc .hidden __gesf2
00028d28 g     F .text	00000060 _write_r
0000dcec g     F .text	000001f0 kad_op_tanh
00004f80 g     F .text	00000e50 kann_train_fnn1
00013b1c g     F .text	00000154 kad_avg
0002b67c g     F .text	00000018 setlocale
00007e04 g     F .text	00000404 kad_op_reduce_sum
000064bc g     F .text	000004dc kann_data_read
00002048 g     F .text	000000ec kann_save
00004948 g     F .text	00000214 kann_layer_cost
00004304 g     F .text	00000550 kann_layer_lstm
00012558 g     F .text	00000104 kad_log
000040a8 g     F .text	0000010c kann_layer_layernorm
0003730c g     O .rwdata	00000004 _impure_ptr
00015778 g     F .text	00000094 kad_compile
00039458 g     O .bss	00000004 alt_argc
00014088 g     F .text	00000134 kad_reduce_sum
00021414 g     F .text	0000021c __sflush_r
00017b68 g     F .text	000003c4 kad_sgemm_simple
000333f8 g     F .text	00000064 _do_dtors
0002b668 g     F .text	00000008 __locale_cjk_lang
00012340 g     F .text	0000010c kad_ce_bin_neg
0001a620 g     F .text	0000071c __ieee754_log
00009648 g     F .text	00000324 kad_op_slice
00011e04 g     F .text	0000010c kad_mul
000225c0 g     F .text	00000004 _fseek_r
00001118 g     F .text	00000080 kann_clone
00008208 g     F .text	00000474 kad_op_reduce_mean
00012c74 g     F .text	00000104 kad_1minus
00013514 g     F .text	00000210 kad_conv1d
0002484c g     F .text	000001d4 __srefill_r
00000020 g       .exceptions	00000000 alt_irq_entry
0002c224 g     F .text	00000064 __ulp
00021c0c g     F .text	00000018 __fp_unlock_all
00021e1c g     F .text	0000005c fputc
00001c44 g     F .text	000001d4 kann_rnn_end
0000cf6c g     F .text	000004bc kad_op_ce_multi
000189b4 g     F .text	00000004 kad_trap_fe
0003732c g     O .rwdata	00000008 alt_fs_list
0000923c g     F .text	000002d4 kad_op_sub
00019eac g     F .text	000000b0 sinf
0000dedc g     F .text	00000340 kad_op_softmax
0002fdf0 g     F .text	00000014 alt_write_flash_command_32bit_device_8bit_mode
0001ce08 g     F .text	0000000c nan
00013920 g     F .text	000001fc kad_avg1d
00003bd8 g     F .text	00000270 kann_new_leaf
0000235c g     F .text	00000090 kann_load
00000020 g       *ABS*	00000000 __ram_exceptions_start
0002b694 g     F .text	0000000c localeconv
000150a0 g     F .text	0000015c kad_switch
0001ad3c g     F .text	00000288 __ieee754_sqrt
00011b50 g     F .text	00000094 kad_var
00000000 g       *ABS*	00000000 __alt_mem_new_sdram_controller_0
00003ed8 g     F .text	00000030 kann_new_weight_conv1d
00033674 g     F .text	00000004 alt_ic_isr_register
000231ac g     F .text	00000034 fwrite
00006a74 g     F .text	00000254 kad_op_mse
00037360 g       *ABS*	00000000 _edata
000041b4 g     F .text	000000a8 kann_layer_rnn
00039590 g       *ABS*	00000000 _end
00033580 g     F .text	00000050 alt_flash_open_dev
00003e90 g     F .text	00000014 kann_new_bias
0000895c g     F .text	00000280 kad_op_max
00012f80 g     F .text	000002dc kad_conv2d
0002dda4 g     F .text	00000164 __fputwc
00000150 g       *ABS*	00000000 __ram_exceptions_end
00031544 g     F .text	00000074 altera_avalon_jtag_uart_ioctl
00021e78 g     F .text	0000009c _fputs_r
00016178 g     F .text	00000358 kad_load
0000f1d8 g     F .text	000004a4 kad_op_dropout
00011be4 g     F .text	00000114 kad_add
0000cab8 g     F .text	000004b4 kad_op_ce_bin_neg
00002134 g     F .text	00000228 kann_load_fp
000336b0 g     F .text	00000038 alt_ic_irq_disable
00003ea4 g     F .text	00000034 kann_new_weight_conv2d
00024dd4 g     F .text	0000007c __swrite
00037314 g     O .rwdata	00000004 __malloc_trim_threshold
00033994 g     F .text	00000008 altera_nios2_qsys_irq_init
0002b65c g     F .text	0000000c __locale_msgcharset
00000f54 g     F .text	000001c4 kann_new
000212d8 g     F .text	00000038 exit
00021c44 g     F .text	0000003c fiprintf
0000d9e4 g     F .text	00000168 kad_op_exp
000268e8 g     F .text	00000018 _vfiprintf_r
0002301c g     F .text	000000c4 _fwalk_reent
0002c028 g     F .text	000001fc __mdiff
000335d0 g     F .text	00000014 alt_flash_close_dev
0001d238 g     F .text	00000074 .hidden __modsi3
08000000 g       *ABS*	00000000 __alt_data_end
00000020 g     F .exceptions	00000000 alt_exception
00021be8 g     F .text	00000004 __sfp_lock_release
00001f28 g     F .text	0000000c kann_class_error
00001488 g     F .text	00000168 kann_feed_bind
00006998 g     F .text	000000dc kann_data_free
00012e7c g     F .text	00000104 kad_stdnorm
0002181c g     F .text	00000068 fileno
0001d154 g     F .text	00000060 .hidden __fixunssfsi
00021c80 g     F .text	000000f4 _fopen_r
0002ee24 g     F .text	00000014 _exit
000158b0 g     F .text	00000088 kad_size_var
0001c0d0 g     F .text	00000b04 __kernel_rem_pio2f
0001a228 g     F .text	0000016c expf
000331b0 g     F .text	00000080 alt_alarm_start
00012760 g     F .text	00000104 kad_sin
00014f6c g     F .text	00000134 kad_reverse
0001d0f4 g     F .text	00000060 .hidden __muldi3
000231e0 g     F .text	000001bc __smakebuf_r
0002fe58 g     F .text	00000008 alt_write_native_32bit
0002500c g     F .text	00000098 strlen
00024a74 g     F .text	0000006c _init_signal_r
0002f1e4 g     F .text	00000178 open
0001fafc g     F .text	000000dc .hidden __gedf2
0002aae4 g     F .text	00000830 __gethex
00001e18 g     F .text	00000004 kann_mt
0002f9c0 g     F .text	00000038 alt_flash_cfi_get_info
000211d8 g     F .text	00000014 __assert
0000996c g     F .text	0000045c kad_op_concat
0003731c g     O .rwdata	00000004 __wctomb
00001334 g     F .text	00000054 kann_delete
0002c858 g     F .text	00000018 __sprint_r
00033668 g     F .text	0000000c alt_icache_flush_all
0001ce3c g     F .text	00000104 floorf
0000db4c g     F .text	000001a0 kad_op_sigm
00021f14 g     F .text	00000018 fputs
00037354 g     O .rwdata	00000004 alt_priority_mask
00015938 g     F .text	00000088 kad_size_const
00013f18 g     F .text	00000170 kad_select
00033678 g     F .text	00000038 alt_ic_irq_enable
00028af8 g     F .text	0000001c __vfprintf_internal
0002e138 g     F .text	0000005c _wctomb_r
000023ec g     F .text	000002a8 kann_new_leaf_array
000310dc g     F .text	000000ac alt_avalon_dma_prepare
000203e4 g     F .text	000008fc .hidden __subdf3
0003733c g     O .rwdata	00000008 alt_dma_rxchan_list
0002ba5c g     F .text	000000b0 __lo0bits
00017a74 g     F .text	0000007c kad_vec_mul_sum
00037358 g     O .rwdata	00000008 alt_alarm_list
00033394 g     F .text	00000064 _do_ctors
00024d04 g     F .text	00000014 __sigtramp
00004b5c g     F .text	000000d8 kann_shuffle
0002e048 g     F .text	000000c0 wcrtomb
0002ed60 g     F .text	000000bc close
0001d368 g     F .text	000004c8 .hidden __addsf3
00033ae8 g     F .text	00000020 alt_program_amd
0002f034 g     F .text	000000cc alt_load
00030d24 g     F .text	000001dc alt_avalon_dma_tx_ioctl
00001388 g     F .text	00000100 kann_find
0002df2c g     F .text	00000080 fputwc
00024cc8 g     F .text	00000014 raise
000233b0 g     F .text	00000014 free
00021bec g     F .text	00000004 __sinit_lock_acquire
0002b7d0 g     F .text	00000120 __multadd
0002b7a8 g     F .text	00000028 _Bfree
00031a64 g     F .text	0000012c check_directory_header



Disassembly of section .entry:

00000000 <__reset>:
 */

#if NIOS2_ICACHE_SIZE > 0 && defined(ALT_ALLOW_CODE_AT_RESET) && !defined(ALT_SIM_OPTIMIZE)
    /* Assume the instruction cache size is always a power of two. */
#if NIOS2_ICACHE_SIZE > 0x8000
    movhi r2, %hi(NIOS2_ICACHE_SIZE)
   0:	00800074 	movhi	r2,1
#else
    movui r2, NIOS2_ICACHE_SIZE
#endif

0:
    initi r2
   4:	1001483a 	initi	r2
    addi r2, r2, -NIOS2_ICACHE_LINE_SIZE
   8:	10bff804 	addi	r2,r2,-32
    bgt r2, zero, 0b
   c:	00bffd16 	blt	zero,r2,4 <__reset+0x4>
 * Jump to the _start entry point in the .text section if reset code
 * is allowed or if optimizing for RTL simulation.
 */
#if defined(ALT_ALLOW_CODE_AT_RESET) || defined(ALT_SIM_OPTIMIZE)
    /* Jump to the _start entry point in the .text section. */
    movhi r1, %hi(_start)
  10:	00400034 	movhi	at,0
    ori r1, r1, %lo(_start)
  14:	08405414 	ori	at,at,336
    jmp r1
  18:	0800683a 	jmp	at
  1c:	00000000 	call	0 <__reset>

Disassembly of section .exceptions:

00000020 <alt_exception>:

#else /* ALT_EXCEPTION_STACK disabled */
        /* 
         * Reserve space on normal stack for registers about to be pushed.
         */
        addi  sp, sp, -76
  20:	deffed04 	addi	sp,sp,-76
         * documentation for details).
         *
         * Leave a gap in the stack frame at 4(sp) for the muldiv handler to
         * store zero into.
         */
        stw   ra,  0(sp)
  24:	dfc00015 	stw	ra,0(sp)
        stw   r1,   8(sp)
  28:	d8400215 	stw	at,8(sp)
        stw   r2,  12(sp)
  2c:	d8800315 	stw	r2,12(sp)
        stw   r3,  16(sp)
  30:	d8c00415 	stw	r3,16(sp)
        stw   r4,  20(sp)
  34:	d9000515 	stw	r4,20(sp)
        stw   r5,  24(sp)
  38:	d9400615 	stw	r5,24(sp)
        stw   r6,  28(sp)
  3c:	d9800715 	stw	r6,28(sp)
        stw   r7,  32(sp)
  40:	d9c00815 	stw	r7,32(sp)
        rdctl r5, estatus   /* Read early to avoid usage stall */
  44:	000b307a 	rdctl	r5,estatus
        stw   r8,  36(sp)
  48:	da000915 	stw	r8,36(sp)
        stw   r9,  40(sp)
  4c:	da400a15 	stw	r9,40(sp)
        stw   r10, 44(sp)
  50:	da800b15 	stw	r10,44(sp)
        stw   r11, 48(sp)
  54:	dac00c15 	stw	r11,48(sp)
        stw   r12, 52(sp)
  58:	db000d15 	stw	r12,52(sp)
        stw   r13, 56(sp)
  5c:	db400e15 	stw	r13,56(sp)
        stw   r14, 60(sp)
  60:	db800f15 	stw	r14,60(sp)
        stw   r15, 64(sp)
  64:	dbc01015 	stw	r15,64(sp)
        /*
         * ea-4 contains the address of the instruction being executed
         * when the exception occured. For interrupt exceptions, we will
         * will be re-issue the isntruction. Store it in 72(sp)
         */
        stw   r5,  68(sp)  /* estatus */
  68:	d9401115 	stw	r5,68(sp)
        addi  r15, ea, -4  /* instruction that caused exception */
  6c:	ebffff04 	addi	r15,ea,-4
        stw   r15,  72(sp)
  70:	dbc01215 	stw	r15,72(sp)
#else
        /*
         * Test to see if the exception was a software exception or caused 
         * by an external interrupt, and vector accordingly.
         */
        rdctl r4, ipending
  74:	0009313a 	rdctl	r4,ipending
        andi  r2, r5, 1
  78:	2880004c 	andi	r2,r5,1
        beq   r2, zero, .Lnot_irq
  7c:	10000326 	beq	r2,zero,8c <alt_exception+0x6c>
        beq   r4, zero, .Lnot_irq
  80:	20000226 	beq	r4,zero,8c <alt_exception+0x6c>
        /*
         * Now that all necessary registers have been preserved, call 
         * alt_irq_handler() to process the interrupts.
         */

        call alt_irq_handler
  84:	00000ec0 	call	ec <alt_irq_handler>

        .section .exceptions.irqreturn, "xa"

        br    .Lexception_exit
  88:	00000306 	br	98 <alt_exception_unknown+0x4>
         * upon completion, so we write ea (address of instruction *after*
         * the one where the exception occured) into 72(sp). The actual
         * instruction that caused the exception is written in r2, which these
         * handlers will utilize.
         */
        stw   ea,  72(sp)  /* Don't re-issue */
  8c:	df401215 	stw	ea,72(sp)
        ldw   r2, -4(ea)   /* Instruction that caused exception */
  90:	e8bfff17 	ldw	r2,-4(ea)

00000094 <alt_exception_unknown>:
#ifdef NIOS2_HAS_DEBUG_STUB
       /*
        *  Either tell the user now (if there is a debugger attached) or go into
        *  the debug monitor which will loop until a debugger is attached.
        */
        break
  94:	003da03a 	break	0
        /* 
         * Restore the saved registers, so that all general purpose registers 
         * have been restored to their state at the time the interrupt occured.
         */

        ldw   r5,  68(sp)
  98:	d9401117 	ldw	r5,68(sp)
        ldw   ea,  72(sp)  /* This becomes the PC once eret is executed */
  9c:	df401217 	ldw	ea,72(sp)
        ldw   ra,   0(sp)
  a0:	dfc00017 	ldw	ra,0(sp)

        wrctl estatus, r5
  a4:	2801707a 	wrctl	estatus,r5

        ldw   r1,   8(sp)
  a8:	d8400217 	ldw	at,8(sp)
        ldw   r2,  12(sp)
  ac:	d8800317 	ldw	r2,12(sp)
        ldw   r3,  16(sp)
  b0:	d8c00417 	ldw	r3,16(sp)
        ldw   r4,  20(sp)
  b4:	d9000517 	ldw	r4,20(sp)
        ldw   r5,  24(sp)
  b8:	d9400617 	ldw	r5,24(sp)
        ldw   r6,  28(sp)
  bc:	d9800717 	ldw	r6,28(sp)
        ldw   r7,  32(sp)
  c0:	d9c00817 	ldw	r7,32(sp)

#if defined(ALT_EXCEPTION_STACK) && defined(ALT_STACK_CHECK)
        ldw   et, %gprel(alt_exception_old_stack_limit)(gp)
#endif

        ldw   r8,  36(sp)
  c4:	da000917 	ldw	r8,36(sp)
        ldw   r9,  40(sp)
  c8:	da400a17 	ldw	r9,40(sp)
        ldw   r10, 44(sp)
  cc:	da800b17 	ldw	r10,44(sp)
        ldw   r11, 48(sp)
  d0:	dac00c17 	ldw	r11,48(sp)
        ldw   r12, 52(sp)
  d4:	db000d17 	ldw	r12,52(sp)
        ldw   r13, 56(sp)
  d8:	db400e17 	ldw	r13,56(sp)
        ldw   r14, 60(sp)
  dc:	db800f17 	ldw	r14,60(sp)
        ldw   r15, 64(sp)
  e0:	dbc01017 	ldw	r15,64(sp)
        stw   et, %gprel(alt_stack_limit_value)(gp)
        stw   zero, %gprel(alt_exception_old_stack_limit)(gp)
#endif /* ALT_STACK_CHECK */
        ldw   sp,  76(sp)
#else /* ALT_EXCEPTION_STACK disabled */
        addi  sp, sp, 76
  e4:	dec01304 	addi	sp,sp,76

        /*
         * Return to the interrupted instruction.
         */

        eret
  e8:	ef80083a 	eret

000000ec <alt_irq_handler>:
  ec:	defffe04 	addi	sp,sp,-8
  f0:	dfc00115 	stw	ra,4(sp)
  f4:	dc000015 	stw	r16,0(sp)
  f8:	000b313a 	rdctl	r5,ipending
  fc:	04000134 	movhi	r16,4
 100:	84252404 	addi	r16,r16,-27504
 104:	2880004c 	andi	r2,r5,1
 108:	0007883a 	mov	r3,zero
 10c:	1000051e 	bne	r2,zero,124 <alt_irq_handler+0x38>
 110:	00800044 	movi	r2,1
 114:	1085883a 	add	r2,r2,r2
 118:	2888703a 	and	r4,r5,r2
 11c:	18c00044 	addi	r3,r3,1
 120:	203ffc26 	beq	r4,zero,114 <alt_irq_handler+0x28>
 124:	180690fa 	slli	r3,r3,3
 128:	80c7883a 	add	r3,r16,r3
 12c:	18800017 	ldw	r2,0(r3)
 130:	19000117 	ldw	r4,4(r3)
 134:	103ee83a 	callr	r2
 138:	000b313a 	rdctl	r5,ipending
 13c:	283ff11e 	bne	r5,zero,104 <alt_irq_handler+0x18>
 140:	dfc00117 	ldw	ra,4(sp)
 144:	dc000017 	ldw	r16,0(sp)
 148:	dec00204 	addi	sp,sp,8
 14c:	f800283a 	ret

Disassembly of section .text:

00000150 <_start>:

#if NIOS2_DCACHE_SIZE > 0 && (!defined(ALT_SIM_OPTIMIZE) || defined(NIOS2_ECC_PRESENT))

    /* Assume the data cache size is always a power of two. */
#if NIOS2_DCACHE_SIZE > 0x8000
    movhi r2, %hi(NIOS2_DCACHE_SIZE)
     150:	00800074 	movhi	r2,1
#else
    movui r2, NIOS2_DCACHE_SIZE
#endif

0:
    initd 0(r2)
     154:	10000033 	initd	0(r2)
#ifdef NIOS2_ECC_PRESENT
    addi r2, r2, -4
#else
    addi r2, r2, -NIOS2_DCACHE_LINE_SIZE
     158:	10bff804 	addi	r2,r2,-32
#endif
    bgt r2, zero, 0b
     15c:	00bffd16 	blt	zero,r2,154 <_start+0x4>

    /*
     * Now that the caches are initialized, set up the stack pointer and global pointer.
     * The values provided by the linker are assumed to be correctly aligned.
     */
    movhi sp, %hi(__alt_stack_pointer)
     160:	06c20034 	movhi	sp,2048
    ori sp, sp, %lo(__alt_stack_pointer)
     164:	dec00014 	ori	sp,sp,0
    movhi gp, %hi(_gp)
     168:	068000f4 	movhi	gp,3
    ori gp, gp, %lo(_gp)
     16c:	d6bcb814 	ori	gp,gp,62176
 */
#ifndef ALT_SIM_OPTIMIZE
    /* Log that the BSS is about to be cleared. */
    ALT_LOG_PUTS(alt_log_msg_bss)

    movhi r2, %hi(__bss_start)
     170:	008000f4 	movhi	r2,3
    ori r2, r2, %lo(__bss_start)
     174:	10a50c14 	ori	r2,r2,37936

    movhi r3, %hi(__bss_end)
     178:	00c000f4 	movhi	r3,3
    ori r3, r3, %lo(__bss_end)
     17c:	18e56414 	ori	r3,r3,38288

    beq r2, r3, 1f
     180:	10c00326 	beq	r2,r3,190 <_start+0x40>

0:
    stw zero, (r2)
     184:	10000015 	stw	zero,0(r2)
    addi r2, r2, 4
     188:	10800104 	addi	r2,r2,4
    bltu r2, r3, 0b
     18c:	10fffd36 	bltu	r2,r3,184 <_start+0x34>
     * section aren't defined until alt_load() has been called).
     */
    mov   et, zero
#endif

    call alt_load
     190:	002f0340 	call	2f034 <alt_load>

    /* Log that alt_main is about to be called. */
    ALT_LOG_PUTS(alt_log_msg_alt_main)

    /* Call the C entry point. It should never return. */
    call alt_main
     194:	002f17c0 	call	2f17c <alt_main>

00000198 <alt_after_alt_main>:

    /* Wait in infinite loop in case alt_main does return. */
alt_after_alt_main:
    br alt_after_alt_main
     198:	003fff06 	br	198 <alt_after_alt_main>

0000019c <kad_ext_collate>:
     19c:	defff204 	addi	sp,sp,-56
     1a0:	dfc00d15 	stw	ra,52(sp)
     1a4:	dd400915 	stw	r21,36(sp)
     1a8:	dd000815 	stw	r20,32(sp)
     1ac:	202b883a 	mov	r21,r4
     1b0:	3829883a 	mov	r20,r7
     1b4:	dcc00715 	stw	r19,28(sp)
     1b8:	dc800615 	stw	r18,24(sp)
     1bc:	3027883a 	mov	r19,r6
     1c0:	dc400515 	stw	r17,20(sp)
     1c4:	dc000415 	stw	r16,16(sp)
     1c8:	2825883a 	mov	r18,r5
     1cc:	dc400e17 	ldw	r17,56(sp)
     1d0:	df000c15 	stw	fp,48(sp)
     1d4:	ddc00b15 	stw	r23,44(sp)
     1d8:	dd800a15 	stw	r22,40(sp)
     1dc:	00158b00 	call	158b0 <kad_size_var>
     1e0:	99000017 	ldw	r4,0(r19)
     1e4:	1085883a 	add	r2,r2,r2
     1e8:	10a1883a 	add	r16,r2,r2
     1ec:	800b883a 	mov	r5,r16
     1f0:	00242b40 	call	242b4 <realloc>
     1f4:	98800015 	stw	r2,0(r19)
     1f8:	a1000017 	ldw	r4,0(r20)
     1fc:	800b883a 	mov	r5,r16
     200:	d8800015 	stw	r2,0(sp)
     204:	00242b40 	call	242b4 <realloc>
     208:	a0800015 	stw	r2,0(r20)
     20c:	8d000017 	ldw	r20,0(r17)
     210:	900b883a 	mov	r5,r18
     214:	a809883a 	mov	r4,r21
     218:	1027883a 	mov	r19,r2
     21c:	00159380 	call	15938 <kad_size_const>
     220:	1085883a 	add	r2,r2,r2
     224:	108b883a 	add	r5,r2,r2
     228:	a009883a 	mov	r4,r20
     22c:	00242b40 	call	242b4 <realloc>
     230:	88800015 	stw	r2,0(r17)
     234:	800d883a 	mov	r6,r16
     238:	000b883a 	mov	r5,zero
     23c:	9809883a 	mov	r4,r19
     240:	d8800115 	stw	r2,4(sp)
     244:	0023f580 	call	23f58 <memset>
     248:	0540550e 	bge	zero,r21,3a0 <kad_ext_collate+0x204>
     24c:	902f883a 	mov	r23,r18
     250:	0023883a 	mov	r17,zero
     254:	0025883a 	mov	r18,zero
     258:	0039883a 	mov	fp,zero
     25c:	05800044 	movi	r22,1
     260:	050000c4 	movi	r20,3
     264:	00002506 	br	2fc <kad_ext_collate+0x160>
     268:	80800003 	ldbu	r2,0(r16)
     26c:	10005826 	beq	r2,zero,3d0 <kad_ext_collate+0x234>
     270:	82000417 	ldw	r8,16(r16)
     274:	15800926 	beq	r2,r22,29c <kad_ext_collate+0x100>
     278:	81000517 	ldw	r4,20(r16)
     27c:	00c00084 	movi	r3,2
     280:	4111383a 	mul	r8,r8,r4
     284:	10c00526 	beq	r2,r3,29c <kad_ext_collate+0x100>
     288:	81000617 	ldw	r4,24(r16)
     28c:	4111383a 	mul	r8,r8,r4
     290:	15000226 	beq	r2,r20,29c <kad_ext_collate+0x100>
     294:	80800717 	ldw	r2,28(r16)
     298:	4091383a 	mul	r8,r8,r2
     29c:	420d883a 	add	r6,r8,r8
     2a0:	318d883a 	add	r6,r6,r6
     2a4:	d8c00017 	ldw	r3,0(sp)
     2a8:	8c53883a 	add	r9,r17,r17
     2ac:	4a53883a 	add	r9,r9,r9
     2b0:	81400a17 	ldw	r5,40(r16)
     2b4:	1a57883a 	add	r11,r3,r9
     2b8:	5809883a 	mov	r4,r11
     2bc:	da400315 	stw	r9,12(sp)
     2c0:	da000215 	stw	r8,8(sp)
     2c4:	0023cb40 	call	23cb4 <memcpy>
     2c8:	da000217 	ldw	r8,8(sp)
     2cc:	81000a17 	ldw	r4,40(r16)
     2d0:	d8800215 	stw	r2,8(sp)
     2d4:	8a23883a 	add	r17,r17,r8
     2d8:	00233b00 	call	233b0 <free>
     2dc:	da400317 	ldw	r9,12(sp)
     2e0:	dac00217 	ldw	r11,8(sp)
     2e4:	9a53883a 	add	r9,r19,r9
     2e8:	82c00a15 	stw	r11,40(r16)
     2ec:	82400b15 	stw	r9,44(r16)
     2f0:	e7000044 	addi	fp,fp,1
     2f4:	bdc00104 	addi	r23,r23,4
     2f8:	af002926 	beq	r21,fp,3a0 <kad_ext_collate+0x204>
     2fc:	bc000017 	ldw	r16,0(r23)
     300:	80800117 	ldw	r2,4(r16)
     304:	103ffa1e 	bne	r2,zero,2f0 <kad_ext_collate+0x154>
     308:	80800043 	ldbu	r2,1(r16)
     30c:	1100004c 	andi	r4,r2,1
     310:	203fd51e 	bne	r4,zero,268 <kad_ext_collate+0xcc>
     314:	1080008c 	andi	r2,r2,2
     318:	103ff526 	beq	r2,zero,2f0 <kad_ext_collate+0x154>
     31c:	80800003 	ldbu	r2,0(r16)
     320:	10002e26 	beq	r2,zero,3dc <kad_ext_collate+0x240>
     324:	82000417 	ldw	r8,16(r16)
     328:	15800926 	beq	r2,r22,350 <kad_ext_collate+0x1b4>
     32c:	81000517 	ldw	r4,20(r16)
     330:	00c00084 	movi	r3,2
     334:	4111383a 	mul	r8,r8,r4
     338:	10c00526 	beq	r2,r3,350 <kad_ext_collate+0x1b4>
     33c:	81000617 	ldw	r4,24(r16)
     340:	4111383a 	mul	r8,r8,r4
     344:	15000226 	beq	r2,r20,350 <kad_ext_collate+0x1b4>
     348:	80800717 	ldw	r2,28(r16)
     34c:	4091383a 	mul	r8,r8,r2
     350:	420d883a 	add	r6,r8,r8
     354:	318d883a 	add	r6,r6,r6
     358:	d8c00117 	ldw	r3,4(sp)
     35c:	9493883a 	add	r9,r18,r18
     360:	81400a17 	ldw	r5,40(r16)
     364:	4a53883a 	add	r9,r9,r9
     368:	1a53883a 	add	r9,r3,r9
     36c:	4809883a 	mov	r4,r9
     370:	da000215 	stw	r8,8(sp)
     374:	0023cb40 	call	23cb4 <memcpy>
     378:	81000a17 	ldw	r4,40(r16)
     37c:	da000217 	ldw	r8,8(sp)
     380:	d8800315 	stw	r2,12(sp)
     384:	e7000044 	addi	fp,fp,1
     388:	9225883a 	add	r18,r18,r8
     38c:	00233b00 	call	233b0 <free>
     390:	da400317 	ldw	r9,12(sp)
     394:	bdc00104 	addi	r23,r23,4
     398:	82400a15 	stw	r9,40(r16)
     39c:	af3fd71e 	bne	r21,fp,2fc <kad_ext_collate+0x160>
     3a0:	dfc00d17 	ldw	ra,52(sp)
     3a4:	df000c17 	ldw	fp,48(sp)
     3a8:	ddc00b17 	ldw	r23,44(sp)
     3ac:	dd800a17 	ldw	r22,40(sp)
     3b0:	dd400917 	ldw	r21,36(sp)
     3b4:	dd000817 	ldw	r20,32(sp)
     3b8:	dcc00717 	ldw	r19,28(sp)
     3bc:	dc800617 	ldw	r18,24(sp)
     3c0:	dc400517 	ldw	r17,20(sp)
     3c4:	dc000417 	ldw	r16,16(sp)
     3c8:	dec00e04 	addi	sp,sp,56
     3cc:	f800283a 	ret
     3d0:	01800104 	movi	r6,4
     3d4:	02000044 	movi	r8,1
     3d8:	003fb206 	br	2a4 <kad_ext_collate+0x108>
     3dc:	01800104 	movi	r6,4
     3e0:	02000044 	movi	r8,1
     3e4:	003fdc06 	br	358 <kad_ext_collate+0x1bc>

000003e8 <kann_class_error_core.isra.1>:
     3e8:	deffe604 	addi	sp,sp,-104
     3ec:	30000015 	stw	zero,0(r6)
     3f0:	dc001015 	stw	r16,64(sp)
     3f4:	24000017 	ldw	r16,0(r4)
     3f8:	dfc01915 	stw	ra,100(sp)
     3fc:	df001815 	stw	fp,96(sp)
     400:	ddc01715 	stw	r23,92(sp)
     404:	dd801615 	stw	r22,88(sp)
     408:	dd401515 	stw	r21,84(sp)
     40c:	dd001415 	stw	r20,80(sp)
     410:	dcc01315 	stw	r19,76(sp)
     414:	dc801215 	stw	r18,72(sp)
     418:	dc401115 	stw	r17,68(sp)
     41c:	0400950e 	bge	zero,r16,674 <kann_class_error_core.isra.1+0x28c>
     420:	29400017 	ldw	r5,0(r5)
     424:	d9000e15 	stw	r4,56(sp)
     428:	d9800d15 	stw	r6,52(sp)
     42c:	d9400515 	stw	r5,20(sp)
     430:	d8000c15 	stw	zero,48(sp)
     434:	d8000415 	stw	zero,16(sp)
     438:	00000a06 	br	464 <kann_class_error_core.isra.1+0x7c>
     43c:	01400584 	movi	r5,22
     440:	11400d26 	beq	r2,r5,478 <kann_class_error_core.isra.1+0x90>
     444:	d8c00417 	ldw	r3,16(sp)
     448:	18c00044 	addi	r3,r3,1
     44c:	d8c00415 	stw	r3,16(sp)
     450:	d8c00517 	ldw	r3,20(sp)
     454:	18c00104 	addi	r3,r3,4
     458:	d8c00515 	stw	r3,20(sp)
     45c:	d8c00417 	ldw	r3,16(sp)
     460:	1c00850e 	bge	r3,r16,678 <kann_class_error_core.isra.1+0x290>
     464:	d8800517 	ldw	r2,20(sp)
     468:	01000344 	movi	r4,13
     46c:	10c00017 	ldw	r3,0(r2)
     470:	1880008b 	ldhu	r2,2(r3)
     474:	113ff11e 	bne	r2,r4,43c <kann_class_error_core.isra.1+0x54>
     478:	18800117 	ldw	r2,4(r3)
     47c:	01000084 	movi	r4,2
     480:	113ff01e 	bne	r2,r4,444 <kann_class_error_core.isra.1+0x5c>
     484:	18800003 	ldbu	r2,0(r3)
     488:	103fee1e 	bne	r2,zero,444 <kann_class_error_core.isra.1+0x5c>
     48c:	18800e17 	ldw	r2,56(r3)
     490:	10c00117 	ldw	r3,4(r2)
     494:	10800017 	ldw	r2,0(r2)
     498:	d8c00815 	stw	r3,32(sp)
     49c:	18c00003 	ldbu	r3,0(r3)
     4a0:	d8800b15 	stw	r2,44(sp)
     4a4:	d9000817 	ldw	r4,32(sp)
     4a8:	188000c4 	addi	r2,r3,3
     4ac:	1085883a 	add	r2,r2,r2
     4b0:	1085883a 	add	r2,r2,r2
     4b4:	2085883a 	add	r2,r4,r2
     4b8:	10800017 	ldw	r2,0(r2)
     4bc:	d8800315 	stw	r2,12(sp)
     4c0:	1800b426 	beq	r3,zero,794 <kann_class_error_core.isra.1+0x3ac>
     4c4:	01400044 	movi	r5,1
     4c8:	21000417 	ldw	r4,16(r4)
     4cc:	19400c26 	beq	r3,r5,500 <kann_class_error_core.isra.1+0x118>
     4d0:	d9400817 	ldw	r5,32(sp)
     4d4:	28800517 	ldw	r2,20(r5)
     4d8:	2089383a 	mul	r4,r4,r2
     4dc:	00800084 	movi	r2,2
     4e0:	18800726 	beq	r3,r2,500 <kann_class_error_core.isra.1+0x118>
     4e4:	28800617 	ldw	r2,24(r5)
     4e8:	014000c4 	movi	r5,3
     4ec:	2089383a 	mul	r4,r4,r2
     4f0:	19400326 	beq	r3,r5,500 <kann_class_error_core.isra.1+0x118>
     4f4:	d8c00817 	ldw	r3,32(sp)
     4f8:	18800717 	ldw	r2,28(r3)
     4fc:	2089383a 	mul	r4,r4,r2
     500:	d8c00317 	ldw	r3,12(sp)
     504:	014003c4 	movi	r5,15
     508:	20c4b03a 	or	r2,r4,r3
     50c:	2880672e 	bgeu	r5,r2,6ac <kann_class_error_core.isra.1+0x2c4>
     510:	180b883a 	mov	r5,r3
     514:	001d1b40 	call	1d1b4 <__divsi3>
     518:	d8800915 	stw	r2,36(sp)
     51c:	1007883a 	mov	r3,r2
     520:	00ffc80e 	bge	zero,r3,444 <kann_class_error_core.isra.1+0x5c>
     524:	d8c00317 	ldw	r3,12(sp)
     528:	d8000615 	stw	zero,24(sp)
     52c:	d8000715 	stw	zero,28(sp)
     530:	18c5883a 	add	r2,r3,r3
     534:	1085883a 	add	r2,r2,r2
     538:	d8800a15 	stw	r2,40(sp)
     53c:	d8c00317 	ldw	r3,12(sp)
     540:	00c0870e 	bge	zero,r3,760 <kann_class_error_core.isra.1+0x378>
     544:	d8c00b17 	ldw	r3,44(sp)
     548:	070fe034 	movhi	fp,16256
     54c:	0029883a 	mov	r20,zero
     550:	1d800a17 	ldw	r22,40(r3)
     554:	d8c00817 	ldw	r3,32(sp)
     558:	0021883a 	mov	r16,zero
     55c:	e025883a 	mov	r18,fp
     560:	1d400a17 	ldw	r21,40(r3)
     564:	00ffffc4 	movi	r3,-1
     568:	d8c00115 	stw	r3,4(sp)
     56c:	d8c00617 	ldw	r3,24(sp)
     570:	d8000015 	stw	zero,0(sp)
     574:	b0ed883a 	add	r22,r22,r3
     578:	a8eb883a 	add	r21,r21,r3
     57c:	d8c00117 	ldw	r3,4(sp)
     580:	b02f883a 	mov	r23,r22
     584:	a82d883a 	mov	r22,r21
     588:	d8c00215 	stw	r3,8(sp)
     58c:	a02b883a 	mov	r21,r20
     590:	00002206 	br	61c <kann_class_error_core.isra.1+0x234>
     594:	e00b883a 	mov	r5,fp
     598:	9809883a 	mov	r4,r19
     59c:	001dce80 	call	1dce8 <__gesf2>
     5a0:	00802d0e 	bge	zero,r2,658 <kann_class_error_core.isra.1+0x270>
     5a4:	800b883a 	mov	r5,r16
     5a8:	8809883a 	mov	r4,r17
     5ac:	001dce80 	call	1dce8 <__gesf2>
     5b0:	00802e0e 	bge	zero,r2,66c <kann_class_error_core.isra.1+0x284>
     5b4:	8805883a 	mov	r2,r17
     5b8:	800b883a 	mov	r5,r16
     5bc:	8809883a 	mov	r4,r17
     5c0:	1021883a 	mov	r16,r2
     5c4:	001dce80 	call	1dce8 <__gesf2>
     5c8:	0080450e 	bge	zero,r2,6e0 <kann_class_error_core.isra.1+0x2f8>
     5cc:	a023883a 	mov	r17,r20
     5d0:	a80b883a 	mov	r5,r21
     5d4:	9809883a 	mov	r4,r19
     5d8:	dc400115 	stw	r17,4(sp)
     5dc:	001dce80 	call	1dce8 <__gesf2>
     5e0:	00803d0e 	bge	zero,r2,6d8 <kann_class_error_core.isra.1+0x2f0>
     5e4:	9805883a 	mov	r2,r19
     5e8:	9809883a 	mov	r4,r19
     5ec:	a80b883a 	mov	r5,r21
     5f0:	1027883a 	mov	r19,r2
     5f4:	001dce80 	call	1dce8 <__gesf2>
     5f8:	0080350e 	bge	zero,r2,6d0 <kann_class_error_core.isra.1+0x2e8>
     5fc:	a007883a 	mov	r3,r20
     600:	d9000317 	ldw	r4,12(sp)
     604:	a5000044 	addi	r20,r20,1
     608:	d8c00215 	stw	r3,8(sp)
     60c:	bdc00104 	addi	r23,r23,4
     610:	b5800104 	addi	r22,r22,4
     614:	982b883a 	mov	r21,r19
     618:	25003326 	beq	r4,r20,6e8 <kann_class_error_core.isra.1+0x300>
     61c:	b4400017 	ldw	r17,0(r22)
     620:	d9000017 	ldw	r4,0(sp)
     624:	bcc00017 	ldw	r19,0(r23)
     628:	880b883a 	mov	r5,r17
     62c:	001d3680 	call	1d368 <__addsf3>
     630:	900b883a 	mov	r5,r18
     634:	8809883a 	mov	r4,r17
     638:	d8800015 	stw	r2,0(sp)
     63c:	001dce80 	call	1dce8 <__gesf2>
     640:	00bfd416 	blt	zero,r2,594 <kann_class_error_core.isra.1+0x1ac>
     644:	e00b883a 	mov	r5,fp
     648:	9809883a 	mov	r4,r19
     64c:	8825883a 	mov	r18,r17
     650:	001dce80 	call	1dce8 <__gesf2>
     654:	00bfd316 	blt	zero,r2,5a4 <kann_class_error_core.isra.1+0x1bc>
     658:	800b883a 	mov	r5,r16
     65c:	8809883a 	mov	r4,r17
     660:	9839883a 	mov	fp,r19
     664:	001dce80 	call	1dce8 <__gesf2>
     668:	00bfd216 	blt	zero,r2,5b4 <kann_class_error_core.isra.1+0x1cc>
     66c:	8005883a 	mov	r2,r16
     670:	003fd106 	br	5b8 <kann_class_error_core.isra.1+0x1d0>
     674:	d8000c15 	stw	zero,48(sp)
     678:	d8800c17 	ldw	r2,48(sp)
     67c:	dfc01917 	ldw	ra,100(sp)
     680:	df001817 	ldw	fp,96(sp)
     684:	ddc01717 	ldw	r23,92(sp)
     688:	dd801617 	ldw	r22,88(sp)
     68c:	dd401517 	ldw	r21,84(sp)
     690:	dd001417 	ldw	r20,80(sp)
     694:	dcc01317 	ldw	r19,76(sp)
     698:	dc801217 	ldw	r18,72(sp)
     69c:	dc401117 	ldw	r17,68(sp)
     6a0:	dc001017 	ldw	r16,64(sp)
     6a4:	dec01a04 	addi	sp,sp,104
     6a8:	f800283a 	ret
     6ac:	2004913a 	slli	r2,r4,4
     6b0:	10c4b03a 	or	r2,r2,r3
     6b4:	00c000f4 	movhi	r3,3
     6b8:	18d52c04 	addi	r3,r3,21680
     6bc:	10c5883a 	add	r2,r2,r3
     6c0:	10800003 	ldbu	r2,0(r2)
     6c4:	d8800915 	stw	r2,36(sp)
     6c8:	1007883a 	mov	r3,r2
     6cc:	003f9406 	br	520 <kann_class_error_core.isra.1+0x138>
     6d0:	d8c00217 	ldw	r3,8(sp)
     6d4:	003fca06 	br	600 <kann_class_error_core.isra.1+0x218>
     6d8:	a805883a 	mov	r2,r21
     6dc:	003fc206 	br	5e8 <kann_class_error_core.isra.1+0x200>
     6e0:	dc400117 	ldw	r17,4(sp)
     6e4:	003fba06 	br	5d0 <kann_class_error_core.isra.1+0x1e8>
     6e8:	d9000017 	ldw	r4,0(sp)
     6ec:	014fe034 	movhi	r5,16256
     6f0:	d8c00f15 	stw	r3,60(sp)
     6f4:	001e2680 	call	1e268 <__subsf3>
     6f8:	000b883a 	mov	r5,zero
     6fc:	1009883a 	mov	r4,r2
     700:	882f883a 	mov	r23,r17
     704:	001dc700 	call	1dc70 <__eqsf2>
     708:	1000151e 	bne	r2,zero,760 <kann_class_error_core.isra.1+0x378>
     70c:	000b883a 	mov	r5,zero
     710:	9009883a 	mov	r4,r18
     714:	001dce80 	call	1dce8 <__gesf2>
     718:	10001116 	blt	r2,zero,760 <kann_class_error_core.isra.1+0x378>
     71c:	000b883a 	mov	r5,zero
     720:	e009883a 	mov	r4,fp
     724:	001dce80 	call	1dce8 <__gesf2>
     728:	10000d16 	blt	r2,zero,760 <kann_class_error_core.isra.1+0x378>
     72c:	014fe034 	movhi	r5,16256
     730:	9809883a 	mov	r4,r19
     734:	001dda40 	call	1dda4 <__lesf2>
     738:	d8c00f17 	ldw	r3,60(sp)
     73c:	00800816 	blt	zero,r2,760 <kann_class_error_core.isra.1+0x378>
     740:	d9400d17 	ldw	r5,52(sp)
     744:	d9000c17 	ldw	r4,48(sp)
     748:	b8c6c03a 	cmpne	r3,r23,r3
     74c:	28800017 	ldw	r2,0(r5)
     750:	20c9883a 	add	r4,r4,r3
     754:	d9000c15 	stw	r4,48(sp)
     758:	10800044 	addi	r2,r2,1
     75c:	28800015 	stw	r2,0(r5)
     760:	d8c00717 	ldw	r3,28(sp)
     764:	d9000a17 	ldw	r4,40(sp)
     768:	18c00044 	addi	r3,r3,1
     76c:	d8c00715 	stw	r3,28(sp)
     770:	d8c00617 	ldw	r3,24(sp)
     774:	1907883a 	add	r3,r3,r4
     778:	d8c00615 	stw	r3,24(sp)
     77c:	d9000717 	ldw	r4,28(sp)
     780:	d8c00917 	ldw	r3,36(sp)
     784:	193f6d1e 	bne	r3,r4,53c <kann_class_error_core.isra.1+0x154>
     788:	d8c00e17 	ldw	r3,56(sp)
     78c:	1c000017 	ldw	r16,0(r3)
     790:	003f2c06 	br	444 <kann_class_error_core.isra.1+0x5c>
     794:	01000044 	movi	r4,1
     798:	003f5906 	br	500 <kann_class_error_core.isra.1+0x118>

0000079c <kann_new_leaf2.constprop.11>:
     79c:	defffb04 	addi	sp,sp,-20
     7a0:	dcc00315 	stw	r19,12(sp)
     7a4:	dfc00415 	stw	ra,16(sp)
     7a8:	dc800215 	stw	r18,8(sp)
     7ac:	dc400115 	stw	r17,4(sp)
     7b0:	dc000015 	stw	r16,0(sp)
     7b4:	3827883a 	mov	r19,r7
     7b8:	20002426 	beq	r4,zero,84c <kann_new_leaf2.constprop.11+0xb0>
     7bc:	28002326 	beq	r5,zero,84c <kann_new_leaf2.constprop.11+0xb0>
     7c0:	20c00017 	ldw	r3,0(r4)
     7c4:	2025883a 	mov	r18,r4
     7c8:	18002016 	blt	r3,zero,84c <kann_new_leaf2.constprop.11+0xb0>
     7cc:	18c5883a 	add	r2,r3,r3
     7d0:	1085883a 	add	r2,r2,r2
     7d4:	28a1883a 	add	r16,r5,r2
     7d8:	80800017 	ldw	r2,0(r16)
     7dc:	10000926 	beq	r2,zero,804 <kann_new_leaf2.constprop.11+0x68>
     7e0:	18c00044 	addi	r3,r3,1
     7e4:	20c00015 	stw	r3,0(r4)
     7e8:	dfc00417 	ldw	ra,16(sp)
     7ec:	dcc00317 	ldw	r19,12(sp)
     7f0:	dc800217 	ldw	r18,8(sp)
     7f4:	dc400117 	ldw	r17,4(sp)
     7f8:	dc000017 	ldw	r16,0(sp)
     7fc:	dec00504 	addi	sp,sp,20
     800:	f800283a 	ret
     804:	01401004 	movi	r5,64
     808:	01000044 	movi	r4,1
     80c:	00211ec0 	call	211ec <calloc>
     810:	1023883a 	mov	r17,r2
     814:	10000005 	stb	zero,0(r2)
     818:	01400104 	movi	r5,4
     81c:	00800084 	movi	r2,2
     820:	01000044 	movi	r4,1
     824:	88800045 	stb	r2,1(r17)
     828:	00211ec0 	call	211ec <calloc>
     82c:	90c00017 	ldw	r3,0(r18)
     830:	84400015 	stw	r17,0(r16)
     834:	88800a15 	stw	r2,40(r17)
     838:	18c00044 	addi	r3,r3,1
     83c:	14c00015 	stw	r19,0(r2)
     840:	90c00015 	stw	r3,0(r18)
     844:	8805883a 	mov	r2,r17
     848:	003fe706 	br	7e8 <kann_new_leaf2.constprop.11+0x4c>
     84c:	01401004 	movi	r5,64
     850:	01000044 	movi	r4,1
     854:	00211ec0 	call	211ec <calloc>
     858:	1021883a 	mov	r16,r2
     85c:	10000005 	stb	zero,0(r2)
     860:	00800084 	movi	r2,2
     864:	01400104 	movi	r5,4
     868:	01000044 	movi	r4,1
     86c:	80800045 	stb	r2,1(r16)
     870:	00211ec0 	call	211ec <calloc>
     874:	80800a15 	stw	r2,40(r16)
     878:	14c00015 	stw	r19,0(r2)
     87c:	8005883a 	mov	r2,r16
     880:	003fd906 	br	7e8 <kann_new_leaf2.constprop.11+0x4c>

00000884 <kann_new_leaf.constprop.5>:
     884:	defffa04 	addi	sp,sp,-24
     888:	dcc00315 	stw	r19,12(sp)
     88c:	dc800215 	stw	r18,8(sp)
     890:	2027883a 	mov	r19,r4
     894:	2825883a 	mov	r18,r5
     898:	dfc00415 	stw	ra,16(sp)
     89c:	dc400115 	stw	r17,4(sp)
     8a0:	dc000015 	stw	r16,0(sp)
     8a4:	d9c00515 	stw	r7,20(sp)
     8a8:	04400044 	movi	r17,1
     8ac:	8809883a 	mov	r4,r17
     8b0:	01401004 	movi	r5,64
     8b4:	00211ec0 	call	211ec <calloc>
     8b8:	01400104 	movi	r5,4
     8bc:	8809883a 	mov	r4,r17
     8c0:	14c00045 	stb	r19,1(r2)
     8c4:	10000005 	stb	zero,0(r2)
     8c8:	1021883a 	mov	r16,r2
     8cc:	00211ec0 	call	211ec <calloc>
     8d0:	80800a15 	stw	r2,40(r16)
     8d4:	14800015 	stw	r18,0(r2)
     8d8:	8005883a 	mov	r2,r16
     8dc:	dfc00417 	ldw	ra,16(sp)
     8e0:	dcc00317 	ldw	r19,12(sp)
     8e4:	dc800217 	ldw	r18,8(sp)
     8e8:	dc400117 	ldw	r17,4(sp)
     8ec:	dc000017 	ldw	r16,0(sp)
     8f0:	dec00604 	addi	sp,sp,24
     8f4:	f800283a 	ret

000008f8 <kann_new_leaf.constprop.4>:
     8f8:	defff404 	addi	sp,sp,-48
     8fc:	dd000815 	stw	r20,32(sp)
     900:	dc000415 	stw	r16,16(sp)
     904:	2829883a 	mov	r20,r5
     908:	3021883a 	mov	r16,r6
     90c:	dfc00a15 	stw	ra,40(sp)
     910:	dd400915 	stw	r21,36(sp)
     914:	dcc00715 	stw	r19,28(sp)
     918:	dc800615 	stw	r18,24(sp)
     91c:	dc400515 	stw	r17,20(sp)
     920:	d9c00b15 	stw	r7,44(sp)
     924:	01800d0e 	bge	zero,r6,95c <kann_new_leaf.constprop.4+0x64>
     928:	d9c00015 	stw	r7,0(sp)
     92c:	00800044 	movi	r2,1
     930:	30800a26 	beq	r6,r2,95c <kann_new_leaf.constprop.4+0x64>
     934:	d8800c17 	ldw	r2,48(sp)
     938:	d8800115 	stw	r2,4(sp)
     93c:	00800084 	movi	r2,2
     940:	30800626 	beq	r6,r2,95c <kann_new_leaf.constprop.4+0x64>
     944:	d8800d17 	ldw	r2,52(sp)
     948:	d8800215 	stw	r2,8(sp)
     94c:	008000c4 	movi	r2,3
     950:	30800226 	beq	r6,r2,95c <kann_new_leaf.constprop.4+0x64>
     954:	d8800e17 	ldw	r2,56(sp)
     958:	d8800315 	stw	r2,12(sp)
     95c:	04400044 	movi	r17,1
     960:	01401004 	movi	r5,64
     964:	8809883a 	mov	r4,r17
     968:	00211ec0 	call	211ec <calloc>
     96c:	840d883a 	add	r6,r16,r16
     970:	318d883a 	add	r6,r6,r6
     974:	d80b883a 	mov	r5,sp
     978:	11000404 	addi	r4,r2,16
     97c:	14000005 	stb	r16,0(r2)
     980:	14400045 	stb	r17,1(r2)
     984:	1027883a 	mov	r19,r2
     988:	0023cb40 	call	23cb4 <memcpy>
     98c:	80803fcc 	andi	r2,r16,255
     990:	10004c26 	beq	r2,zero,ac4 <kann_new_leaf.constprop.4+0x1cc>
     994:	9c800417 	ldw	r18,16(r19)
     998:	14400a26 	beq	r2,r17,9c4 <kann_new_leaf.constprop.4+0xcc>
     99c:	98c00517 	ldw	r3,20(r19)
     9a0:	90e5383a 	mul	r18,r18,r3
     9a4:	00c00084 	movi	r3,2
     9a8:	10c00626 	beq	r2,r3,9c4 <kann_new_leaf.constprop.4+0xcc>
     9ac:	98c00617 	ldw	r3,24(r19)
     9b0:	90e5383a 	mul	r18,r18,r3
     9b4:	00c000c4 	movi	r3,3
     9b8:	10c00226 	beq	r2,r3,9c4 <kann_new_leaf.constprop.4+0xcc>
     9bc:	98800717 	ldw	r2,28(r19)
     9c0:	90a5383a 	mul	r18,r18,r2
     9c4:	01400104 	movi	r5,4
     9c8:	9009883a 	mov	r4,r18
     9cc:	00211ec0 	call	211ec <calloc>
     9d0:	98800a15 	stw	r2,40(r19)
     9d4:	84003fcc 	andi	r16,r16,255
     9d8:	00c00044 	movi	r3,1
     9dc:	1c00322e 	bgeu	r3,r16,aa8 <kann_new_leaf.constprop.4+0x1b0>
     9e0:	9009883a 	mov	r4,r18
     9e4:	0020d600 	call	20d60 <__floatsidf>
     9e8:	99000417 	ldw	r4,16(r19)
     9ec:	1023883a 	mov	r17,r2
     9f0:	1821883a 	mov	r16,r3
     9f4:	0020d600 	call	20d60 <__floatsidf>
     9f8:	100d883a 	mov	r6,r2
     9fc:	180f883a 	mov	r7,r3
     a00:	8809883a 	mov	r4,r17
     a04:	800b883a 	mov	r5,r16
     a08:	001f18c0 	call	1f18c <__divdf3>
     a0c:	1009883a 	mov	r4,r2
     a10:	180b883a 	mov	r5,r3
     a14:	001a0f80 	call	1a0f8 <sqrt>
     a18:	100d883a 	mov	r6,r2
     a1c:	180f883a 	mov	r7,r3
     a20:	0009883a 	mov	r4,zero
     a24:	014ffc34 	movhi	r5,16368
     a28:	001f18c0 	call	1f18c <__divdf3>
     a2c:	1029883a 	mov	r20,r2
     a30:	182b883a 	mov	r21,r3
     a34:	0480120e 	bge	zero,r18,a80 <kann_new_leaf.constprop.4+0x188>
     a38:	0023883a 	mov	r17,zero
     a3c:	9c000a17 	ldw	r16,40(r19)
     a40:	8c45883a 	add	r2,r17,r17
     a44:	1085883a 	add	r2,r2,r2
     a48:	0009883a 	mov	r4,zero
     a4c:	80a1883a 	add	r16,r16,r2
     a50:	00184840 	call	18484 <kad_drand_normal>
     a54:	100d883a 	mov	r6,r2
     a58:	180f883a 	mov	r7,r3
     a5c:	a009883a 	mov	r4,r20
     a60:	a80b883a 	mov	r5,r21
     a64:	001fccc0 	call	1fccc <__muldf3>
     a68:	1009883a 	mov	r4,r2
     a6c:	180b883a 	mov	r5,r3
     a70:	0020f4c0 	call	20f4c <__truncdfsf2>
     a74:	80800015 	stw	r2,0(r16)
     a78:	8c400044 	addi	r17,r17,1
     a7c:	8cbfef1e 	bne	r17,r18,a3c <kann_new_leaf.constprop.4+0x144>
     a80:	9805883a 	mov	r2,r19
     a84:	dfc00a17 	ldw	ra,40(sp)
     a88:	dd400917 	ldw	r21,36(sp)
     a8c:	dd000817 	ldw	r20,32(sp)
     a90:	dcc00717 	ldw	r19,28(sp)
     a94:	dc800617 	ldw	r18,24(sp)
     a98:	dc400517 	ldw	r17,20(sp)
     a9c:	dc000417 	ldw	r16,16(sp)
     aa0:	dec00c04 	addi	sp,sp,48
     aa4:	f800283a 	ret
     aa8:	04bff50e 	bge	zero,r18,a80 <kann_new_leaf.constprop.4+0x188>
     aac:	0007883a 	mov	r3,zero
     ab0:	15000015 	stw	r20,0(r2)
     ab4:	18c00044 	addi	r3,r3,1
     ab8:	10800104 	addi	r2,r2,4
     abc:	1cbffc16 	blt	r3,r18,ab0 <kann_new_leaf.constprop.4+0x1b8>
     ac0:	003fef06 	br	a80 <kann_new_leaf.constprop.4+0x188>
     ac4:	01400104 	movi	r5,4
     ac8:	8809883a 	mov	r4,r17
     acc:	00211ec0 	call	211ec <calloc>
     ad0:	98800a15 	stw	r2,40(r19)
     ad4:	84003fcc 	andi	r16,r16,255
     ad8:	8c00202e 	bgeu	r17,r16,b5c <kann_new_leaf.constprop.4+0x264>
     adc:	99000417 	ldw	r4,16(r19)
     ae0:	0020d600 	call	20d60 <__floatsidf>
     ae4:	100d883a 	mov	r6,r2
     ae8:	180f883a 	mov	r7,r3
     aec:	0009883a 	mov	r4,zero
     af0:	014ffc34 	movhi	r5,16368
     af4:	001f18c0 	call	1f18c <__divdf3>
     af8:	180b883a 	mov	r5,r3
     afc:	1009883a 	mov	r4,r2
     b00:	001a0f80 	call	1a0f8 <sqrt>
     b04:	0009883a 	mov	r4,zero
     b08:	102b883a 	mov	r21,r2
     b0c:	1829883a 	mov	r20,r3
     b10:	9c000a17 	ldw	r16,40(r19)
     b14:	00184840 	call	18484 <kad_drand_normal>
     b18:	a80d883a 	mov	r6,r21
     b1c:	a00f883a 	mov	r7,r20
     b20:	0009883a 	mov	r4,zero
     b24:	014ffc34 	movhi	r5,16368
     b28:	1025883a 	mov	r18,r2
     b2c:	1823883a 	mov	r17,r3
     b30:	001f18c0 	call	1f18c <__divdf3>
     b34:	900d883a 	mov	r6,r18
     b38:	880f883a 	mov	r7,r17
     b3c:	1009883a 	mov	r4,r2
     b40:	180b883a 	mov	r5,r3
     b44:	001fccc0 	call	1fccc <__muldf3>
     b48:	1009883a 	mov	r4,r2
     b4c:	180b883a 	mov	r5,r3
     b50:	0020f4c0 	call	20f4c <__truncdfsf2>
     b54:	80800015 	stw	r2,0(r16)
     b58:	003fc906 	br	a80 <kann_new_leaf.constprop.4+0x188>
     b5c:	8825883a 	mov	r18,r17
     b60:	003fd206 	br	aac <kann_new_leaf.constprop.4+0x1b4>

00000b64 <kann_new_leaf2.constprop.10>:
     b64:	defff204 	addi	sp,sp,-56
     b68:	dc000415 	stw	r16,16(sp)
     b6c:	dc000e17 	ldw	r16,56(sp)
     b70:	dd400915 	stw	r21,36(sp)
     b74:	dfc00d15 	stw	ra,52(sp)
     b78:	df000c15 	stw	fp,48(sp)
     b7c:	ddc00b15 	stw	r23,44(sp)
     b80:	dd800a15 	stw	r22,40(sp)
     b84:	dd000815 	stw	r20,32(sp)
     b88:	dcc00715 	stw	r19,28(sp)
     b8c:	dc800615 	stw	r18,24(sp)
     b90:	dc400515 	stw	r17,20(sp)
     b94:	382b883a 	mov	r21,r7
     b98:	04000e0e 	bge	zero,r16,bd4 <kann_new_leaf2.constprop.10+0x70>
     b9c:	d8800f17 	ldw	r2,60(sp)
     ba0:	d8800015 	stw	r2,0(sp)
     ba4:	00800044 	movi	r2,1
     ba8:	80800a26 	beq	r16,r2,bd4 <kann_new_leaf2.constprop.10+0x70>
     bac:	d8801017 	ldw	r2,64(sp)
     bb0:	d8800115 	stw	r2,4(sp)
     bb4:	00800084 	movi	r2,2
     bb8:	80800626 	beq	r16,r2,bd4 <kann_new_leaf2.constprop.10+0x70>
     bbc:	d8801117 	ldw	r2,68(sp)
     bc0:	d8800215 	stw	r2,8(sp)
     bc4:	008000c4 	movi	r2,3
     bc8:	80800226 	beq	r16,r2,bd4 <kann_new_leaf2.constprop.10+0x70>
     bcc:	d8801217 	ldw	r2,72(sp)
     bd0:	d8800315 	stw	r2,12(sp)
     bd4:	20001626 	beq	r4,zero,c30 <kann_new_leaf2.constprop.10+0xcc>
     bd8:	28001526 	beq	r5,zero,c30 <kann_new_leaf2.constprop.10+0xcc>
     bdc:	24800017 	ldw	r18,0(r4)
     be0:	90001416 	blt	r18,zero,c34 <kann_new_leaf2.constprop.10+0xd0>
     be4:	9485883a 	add	r2,r18,r18
     be8:	1085883a 	add	r2,r2,r2
     bec:	2885883a 	add	r2,r5,r2
     bf0:	10800017 	ldw	r2,0(r2)
     bf4:	10000f26 	beq	r2,zero,c34 <kann_new_leaf2.constprop.10+0xd0>
     bf8:	94800044 	addi	r18,r18,1
     bfc:	24800015 	stw	r18,0(r4)
     c00:	dfc00d17 	ldw	ra,52(sp)
     c04:	df000c17 	ldw	fp,48(sp)
     c08:	ddc00b17 	ldw	r23,44(sp)
     c0c:	dd800a17 	ldw	r22,40(sp)
     c10:	dd400917 	ldw	r21,36(sp)
     c14:	dd000817 	ldw	r20,32(sp)
     c18:	dcc00717 	ldw	r19,28(sp)
     c1c:	dc800617 	ldw	r18,24(sp)
     c20:	dc400517 	ldw	r17,20(sp)
     c24:	dc000417 	ldw	r16,16(sp)
     c28:	dec00e04 	addi	sp,sp,56
     c2c:	f800283a 	ret
     c30:	04bfffc4 	movi	r18,-1
     c34:	04400044 	movi	r17,1
     c38:	2829883a 	mov	r20,r5
     c3c:	2027883a 	mov	r19,r4
     c40:	01401004 	movi	r5,64
     c44:	8809883a 	mov	r4,r17
     c48:	00211ec0 	call	211ec <calloc>
     c4c:	840d883a 	add	r6,r16,r16
     c50:	318d883a 	add	r6,r6,r6
     c54:	d80b883a 	mov	r5,sp
     c58:	11000404 	addi	r4,r2,16
     c5c:	14000005 	stb	r16,0(r2)
     c60:	14400045 	stb	r17,1(r2)
     c64:	102f883a 	mov	r23,r2
     c68:	0023cb40 	call	23cb4 <memcpy>
     c6c:	80803fcc 	andi	r2,r16,255
     c70:	10004c26 	beq	r2,zero,da4 <kann_new_leaf2.constprop.10+0x240>
     c74:	bf000417 	ldw	fp,16(r23)
     c78:	14400a26 	beq	r2,r17,ca4 <kann_new_leaf2.constprop.10+0x140>
     c7c:	b8c00517 	ldw	r3,20(r23)
     c80:	e0f9383a 	mul	fp,fp,r3
     c84:	00c00084 	movi	r3,2
     c88:	10c00626 	beq	r2,r3,ca4 <kann_new_leaf2.constprop.10+0x140>
     c8c:	b8c00617 	ldw	r3,24(r23)
     c90:	e0f9383a 	mul	fp,fp,r3
     c94:	00c000c4 	movi	r3,3
     c98:	10c00226 	beq	r2,r3,ca4 <kann_new_leaf2.constprop.10+0x140>
     c9c:	b8800717 	ldw	r2,28(r23)
     ca0:	e0b9383a 	mul	fp,fp,r2
     ca4:	01400104 	movi	r5,4
     ca8:	e009883a 	mov	r4,fp
     cac:	00211ec0 	call	211ec <calloc>
     cb0:	b8800a15 	stw	r2,40(r23)
     cb4:	84003fcc 	andi	r16,r16,255
     cb8:	00c00044 	movi	r3,1
     cbc:	1c00322e 	bgeu	r3,r16,d88 <kann_new_leaf2.constprop.10+0x224>
     cc0:	e009883a 	mov	r4,fp
     cc4:	0020d600 	call	20d60 <__floatsidf>
     cc8:	b9000417 	ldw	r4,16(r23)
     ccc:	1023883a 	mov	r17,r2
     cd0:	1821883a 	mov	r16,r3
     cd4:	0020d600 	call	20d60 <__floatsidf>
     cd8:	100d883a 	mov	r6,r2
     cdc:	180f883a 	mov	r7,r3
     ce0:	8809883a 	mov	r4,r17
     ce4:	800b883a 	mov	r5,r16
     ce8:	001f18c0 	call	1f18c <__divdf3>
     cec:	1009883a 	mov	r4,r2
     cf0:	180b883a 	mov	r5,r3
     cf4:	001a0f80 	call	1a0f8 <sqrt>
     cf8:	100d883a 	mov	r6,r2
     cfc:	180f883a 	mov	r7,r3
     d00:	0009883a 	mov	r4,zero
     d04:	014ffc34 	movhi	r5,16368
     d08:	001f18c0 	call	1f18c <__divdf3>
     d0c:	102b883a 	mov	r21,r2
     d10:	182d883a 	mov	r22,r3
     d14:	0700120e 	bge	zero,fp,d60 <kann_new_leaf2.constprop.10+0x1fc>
     d18:	0023883a 	mov	r17,zero
     d1c:	bc000a17 	ldw	r16,40(r23)
     d20:	8c47883a 	add	r3,r17,r17
     d24:	18c7883a 	add	r3,r3,r3
     d28:	0009883a 	mov	r4,zero
     d2c:	80e1883a 	add	r16,r16,r3
     d30:	00184840 	call	18484 <kad_drand_normal>
     d34:	100d883a 	mov	r6,r2
     d38:	180f883a 	mov	r7,r3
     d3c:	a809883a 	mov	r4,r21
     d40:	b00b883a 	mov	r5,r22
     d44:	001fccc0 	call	1fccc <__muldf3>
     d48:	1009883a 	mov	r4,r2
     d4c:	180b883a 	mov	r5,r3
     d50:	0020f4c0 	call	20f4c <__truncdfsf2>
     d54:	80800015 	stw	r2,0(r16)
     d58:	8c400044 	addi	r17,r17,1
     d5c:	8f3fef1e 	bne	r17,fp,d1c <kann_new_leaf2.constprop.10+0x1b8>
     d60:	90000716 	blt	r18,zero,d80 <kann_new_leaf2.constprop.10+0x21c>
     d64:	98800017 	ldw	r2,0(r19)
     d68:	94a5883a 	add	r18,r18,r18
     d6c:	94a5883a 	add	r18,r18,r18
     d70:	a4a9883a 	add	r20,r20,r18
     d74:	a5c00015 	stw	r23,0(r20)
     d78:	10800044 	addi	r2,r2,1
     d7c:	98800015 	stw	r2,0(r19)
     d80:	b805883a 	mov	r2,r23
     d84:	003f9e06 	br	c00 <kann_new_leaf2.constprop.10+0x9c>
     d88:	073ff50e 	bge	zero,fp,d60 <kann_new_leaf2.constprop.10+0x1fc>
     d8c:	0007883a 	mov	r3,zero
     d90:	15400015 	stw	r21,0(r2)
     d94:	18c00044 	addi	r3,r3,1
     d98:	10800104 	addi	r2,r2,4
     d9c:	1f3ffc16 	blt	r3,fp,d90 <kann_new_leaf2.constprop.10+0x22c>
     da0:	003fef06 	br	d60 <kann_new_leaf2.constprop.10+0x1fc>
     da4:	01400104 	movi	r5,4
     da8:	8809883a 	mov	r4,r17
     dac:	00211ec0 	call	211ec <calloc>
     db0:	b8800a15 	stw	r2,40(r23)
     db4:	84003fcc 	andi	r16,r16,255
     db8:	8c00202e 	bgeu	r17,r16,e3c <kann_new_leaf2.constprop.10+0x2d8>
     dbc:	b9000417 	ldw	r4,16(r23)
     dc0:	0020d600 	call	20d60 <__floatsidf>
     dc4:	100d883a 	mov	r6,r2
     dc8:	180f883a 	mov	r7,r3
     dcc:	0009883a 	mov	r4,zero
     dd0:	014ffc34 	movhi	r5,16368
     dd4:	001f18c0 	call	1f18c <__divdf3>
     dd8:	180b883a 	mov	r5,r3
     ddc:	1009883a 	mov	r4,r2
     de0:	001a0f80 	call	1a0f8 <sqrt>
     de4:	0009883a 	mov	r4,zero
     de8:	1039883a 	mov	fp,r2
     dec:	182d883a 	mov	r22,r3
     df0:	bc000a17 	ldw	r16,40(r23)
     df4:	00184840 	call	18484 <kad_drand_normal>
     df8:	e00d883a 	mov	r6,fp
     dfc:	b00f883a 	mov	r7,r22
     e00:	0009883a 	mov	r4,zero
     e04:	014ffc34 	movhi	r5,16368
     e08:	102b883a 	mov	r21,r2
     e0c:	1823883a 	mov	r17,r3
     e10:	001f18c0 	call	1f18c <__divdf3>
     e14:	a80d883a 	mov	r6,r21
     e18:	880f883a 	mov	r7,r17
     e1c:	1009883a 	mov	r4,r2
     e20:	180b883a 	mov	r5,r3
     e24:	001fccc0 	call	1fccc <__muldf3>
     e28:	1009883a 	mov	r4,r2
     e2c:	180b883a 	mov	r5,r3
     e30:	0020f4c0 	call	20f4c <__truncdfsf2>
     e34:	80800015 	stw	r2,0(r16)
     e38:	003fc906 	br	d60 <kann_new_leaf2.constprop.10+0x1fc>
     e3c:	8839883a 	mov	fp,r17
     e40:	003fd206 	br	d8c <kann_new_leaf2.constprop.10+0x228>

00000e44 <kann_cmul_norm>:
     e44:	defff904 	addi	sp,sp,-28
     e48:	dc400315 	stw	r17,12(sp)
     e4c:	dc000215 	stw	r16,8(sp)
     e50:	dfc00615 	stw	ra,24(sp)
     e54:	dcc00515 	stw	r19,20(sp)
     e58:	dc800415 	stw	r18,16(sp)
     e5c:	0011f100 	call	11f10 <kad_cmul>
     e60:	1021883a 	mov	r16,r2
     e64:	10800003 	ldbu	r2,0(r2)
     e68:	04400044 	movi	r17,1
     e6c:	8880362e 	bgeu	r17,r2,f48 <kann_cmul_norm+0x104>
     e70:	81000517 	ldw	r4,20(r16)
     e74:	81400417 	ldw	r5,16(r16)
     e78:	00c00084 	movi	r3,2
     e7c:	2149383a 	mul	r4,r4,r5
     e80:	10c00626 	beq	r2,r3,e9c <kann_cmul_norm+0x58>
     e84:	80c00617 	ldw	r3,24(r16)
     e88:	20c9383a 	mul	r4,r4,r3
     e8c:	00c000c4 	movi	r3,3
     e90:	10c00226 	beq	r2,r3,e9c <kann_cmul_norm+0x58>
     e94:	80800717 	ldw	r2,28(r16)
     e98:	2089383a 	mul	r4,r4,r2
     e9c:	2144b03a 	or	r2,r4,r5
     ea0:	00c003c4 	movi	r3,15
     ea4:	18802536 	bltu	r3,r2,f3c <kann_cmul_norm+0xf8>
     ea8:	2008913a 	slli	r4,r4,4
     eac:	2148b03a 	or	r4,r4,r5
     eb0:	014000f4 	movhi	r5,3
     eb4:	29552c04 	addi	r5,r5,21680
     eb8:	2149883a 	add	r4,r4,r5
     ebc:	24400003 	ldbu	r17,0(r4)
     ec0:	04800044 	movi	r18,1
     ec4:	900d883a 	mov	r6,r18
     ec8:	dc400115 	stw	r17,4(sp)
     ecc:	01cfe034 	movhi	r7,16256
     ed0:	000b883a 	mov	r5,zero
     ed4:	0009883a 	mov	r4,zero
     ed8:	dc800015 	stw	r18,0(sp)
     edc:	0000b640 	call	b64 <kann_new_leaf2.constprop.10>
     ee0:	000f883a 	mov	r7,zero
     ee4:	900d883a 	mov	r6,r18
     ee8:	000b883a 	mov	r5,zero
     eec:	dc400115 	stw	r17,4(sp)
     ef0:	dc800015 	stw	r18,0(sp)
     ef4:	0009883a 	mov	r4,zero
     ef8:	1027883a 	mov	r19,r2
     efc:	0000b640 	call	b64 <kann_new_leaf2.constprop.10>
     f00:	8009883a 	mov	r4,r16
     f04:	1023883a 	mov	r17,r2
     f08:	0012e7c0 	call	12e7c <kad_stdnorm>
     f0c:	980b883a 	mov	r5,r19
     f10:	1009883a 	mov	r4,r2
     f14:	0011e040 	call	11e04 <kad_mul>
     f18:	880b883a 	mov	r5,r17
     f1c:	1009883a 	mov	r4,r2
     f20:	dfc00617 	ldw	ra,24(sp)
     f24:	dcc00517 	ldw	r19,20(sp)
     f28:	dc800417 	ldw	r18,16(sp)
     f2c:	dc400317 	ldw	r17,12(sp)
     f30:	dc000217 	ldw	r16,8(sp)
     f34:	dec00704 	addi	sp,sp,28
     f38:	0011be41 	jmpi	11be4 <kad_add>
     f3c:	001d1b40 	call	1d1b4 <__divsi3>
     f40:	1023883a 	mov	r17,r2
     f44:	003fde06 	br	ec0 <kann_cmul_norm+0x7c>
     f48:	147fdd1e 	bne	r2,r17,ec0 <kann_cmul_norm+0x7c>
     f4c:	84400417 	ldw	r17,16(r16)
     f50:	003fdb06 	br	ec0 <kann_cmul_norm+0x7c>

00000f54 <kann_new>:
     f54:	defff704 	addi	sp,sp,-36
     f58:	dfc00615 	stw	ra,24(sp)
     f5c:	dcc00515 	stw	r19,20(sp)
     f60:	dc800415 	stw	r18,16(sp)
     f64:	dc400315 	stw	r17,12(sp)
     f68:	dc000215 	stw	r16,8(sp)
     f6c:	d9000115 	stw	r4,4(sp)
     f70:	d9800715 	stw	r6,28(sp)
     f74:	d9c00815 	stw	r7,32(sp)
     f78:	20800003 	ldbu	r2,0(r4)
     f7c:	10004a1e 	bne	r2,zero,10a8 <kann_new+0x154>
     f80:	2c000084 	addi	r16,r5,2
     f84:	8421883a 	add	r16,r16,r16
     f88:	8421883a 	add	r16,r16,r16
     f8c:	8009883a 	mov	r4,r16
     f90:	2c800044 	addi	r18,r5,1
     f94:	2827883a 	mov	r19,r5
     f98:	002339c0 	call	2339c <malloc>
     f9c:	1023883a 	mov	r17,r2
     fa0:	04c05b0e 	bge	zero,r19,1110 <kann_new+0x1bc>
     fa4:	81bffe04 	addi	r6,r16,-8
     fa8:	d8800704 	addi	r2,sp,28
     fac:	8807883a 	mov	r3,r17
     fb0:	118b883a 	add	r5,r2,r6
     fb4:	11000017 	ldw	r4,0(r2)
     fb8:	18c00104 	addi	r3,r3,4
     fbc:	10800104 	addi	r2,r2,4
     fc0:	193fff15 	stw	r4,-4(r3)
     fc4:	117ffb1e 	bne	r2,r5,fb4 <kann_new+0x60>
     fc8:	d8800117 	ldw	r2,4(sp)
     fcc:	898d883a 	add	r6,r17,r6
     fd0:	01400604 	movi	r5,24
     fd4:	10c00917 	ldw	r3,36(r2)
     fd8:	30800015 	stw	r2,0(r6)
     fdc:	01000044 	movi	r4,1
     fe0:	18c00214 	ori	r3,r3,8
     fe4:	10c00915 	stw	r3,36(r2)
     fe8:	00211ec0 	call	211ec <calloc>
     fec:	1009883a 	mov	r4,r2
     ff0:	880d883a 	mov	r6,r17
     ff4:	900b883a 	mov	r5,r18
     ff8:	1027883a 	mov	r19,r2
     ffc:	001538c0 	call	1538c <kad_compile_array>
    1000:	99000017 	ldw	r4,0(r19)
    1004:	98800115 	stw	r2,4(r19)
    1008:	0100110e 	bge	zero,r4,1050 <kann_new+0xfc>
    100c:	2111883a 	add	r8,r4,r4
    1010:	4211883a 	add	r8,r8,r8
    1014:	1007883a 	mov	r3,r2
    1018:	1211883a 	add	r8,r2,r8
    101c:	0015883a 	mov	r10,zero
    1020:	000b883a 	mov	r5,zero
    1024:	02400044 	movi	r9,1
    1028:	19800017 	ldw	r6,0(r3)
    102c:	18c00104 	addi	r3,r3,4
    1030:	31c00f17 	ldw	r7,60(r6)
    1034:	38000126 	beq	r7,zero,103c <kann_new+0xe8>
    1038:	02800044 	movi	r10,1
    103c:	31c00117 	ldw	r7,4(r6)
    1040:	3a401326 	beq	r7,r9,1090 <kann_new+0x13c>
    1044:	1a3ff81e 	bne	r3,r8,1028 <kann_new+0xd4>
    1048:	50000126 	beq	r10,zero,1050 <kann_new+0xfc>
    104c:	28001826 	beq	r5,zero,10b0 <kann_new+0x15c>
    1050:	98c00404 	addi	r3,r19,16
    1054:	100b883a 	mov	r5,r2
    1058:	99c00304 	addi	r7,r19,12
    105c:	99800204 	addi	r6,r19,8
    1060:	d8c00015 	stw	r3,0(sp)
    1064:	000019c0 	call	19c <kad_ext_collate>
    1068:	8809883a 	mov	r4,r17
    106c:	00233b00 	call	233b0 <free>
    1070:	9805883a 	mov	r2,r19
    1074:	dfc00617 	ldw	ra,24(sp)
    1078:	dcc00517 	ldw	r19,20(sp)
    107c:	dc800417 	ldw	r18,16(sp)
    1080:	dc400317 	ldw	r17,12(sp)
    1084:	dc000217 	ldw	r16,8(sp)
    1088:	dec00904 	addi	sp,sp,36
    108c:	f800283a 	ret
    1090:	31800043 	ldbu	r6,1(r6)
    1094:	3180010c 	andi	r6,r6,4
    1098:	303fea26 	beq	r6,zero,1044 <kann_new+0xf0>
    109c:	480b883a 	mov	r5,r9
    10a0:	1a3fe11e 	bne	r3,r8,1028 <kann_new+0xd4>
    10a4:	003fe806 	br	1048 <kann_new+0xf4>
    10a8:	0005883a 	mov	r2,zero
    10ac:	003ff106 	br	1074 <kann_new+0x120>
    10b0:	d8c00117 	ldw	r3,4(sp)
    10b4:	00bffdc4 	movi	r2,-9
    10b8:	d9400104 	addi	r5,sp,4
    10bc:	19800917 	ldw	r6,36(r3)
    10c0:	01000044 	movi	r4,1
    10c4:	843ffe04 	addi	r16,r16,-8
    10c8:	3084703a 	and	r2,r6,r2
    10cc:	18800915 	stw	r2,36(r3)
    10d0:	0013b1c0 	call	13b1c <kad_avg>
    10d4:	10c00917 	ldw	r3,36(r2)
    10d8:	99000117 	ldw	r4,4(r19)
    10dc:	8c21883a 	add	r16,r17,r16
    10e0:	80800015 	stw	r2,0(r16)
    10e4:	18c00214 	ori	r3,r3,8
    10e8:	10c00915 	stw	r3,36(r2)
    10ec:	d8800115 	stw	r2,4(sp)
    10f0:	00233b00 	call	233b0 <free>
    10f4:	9809883a 	mov	r4,r19
    10f8:	880d883a 	mov	r6,r17
    10fc:	900b883a 	mov	r5,r18
    1100:	001538c0 	call	1538c <kad_compile_array>
    1104:	99000017 	ldw	r4,0(r19)
    1108:	98800115 	stw	r2,4(r19)
    110c:	003fd006 	br	1050 <kann_new+0xfc>
    1110:	000d883a 	mov	r6,zero
    1114:	003fac06 	br	fc8 <kann_new+0x74>

00001118 <kann_clone>:
    1118:	defffb04 	addi	sp,sp,-20
    111c:	dc800315 	stw	r18,12(sp)
    1120:	dc400215 	stw	r17,8(sp)
    1124:	2825883a 	mov	r18,r5
    1128:	2023883a 	mov	r17,r4
    112c:	01400604 	movi	r5,24
    1130:	01000044 	movi	r4,1
    1134:	dfc00415 	stw	ra,16(sp)
    1138:	dc000115 	stw	r16,4(sp)
    113c:	00211ec0 	call	211ec <calloc>
    1140:	1021883a 	mov	r16,r2
    1144:	88800017 	ldw	r2,0(r17)
    1148:	89400117 	ldw	r5,4(r17)
    114c:	900d883a 	mov	r6,r18
    1150:	1009883a 	mov	r4,r2
    1154:	80800015 	stw	r2,0(r16)
    1158:	00164d00 	call	164d0 <kad_clone>
    115c:	81000017 	ldw	r4,0(r16)
    1160:	80c00404 	addi	r3,r16,16
    1164:	100b883a 	mov	r5,r2
    1168:	d8c00015 	stw	r3,0(sp)
    116c:	81c00304 	addi	r7,r16,12
    1170:	81800204 	addi	r6,r16,8
    1174:	80800115 	stw	r2,4(r16)
    1178:	000019c0 	call	19c <kad_ext_collate>
    117c:	8005883a 	mov	r2,r16
    1180:	dfc00417 	ldw	ra,16(sp)
    1184:	dc800317 	ldw	r18,12(sp)
    1188:	dc400217 	ldw	r17,8(sp)
    118c:	dc000117 	ldw	r16,4(sp)
    1190:	dec00504 	addi	sp,sp,20
    1194:	f800283a 	ret

00001198 <kann_unroll_array>:
    1198:	defffc04 	addi	sp,sp,-16
    119c:	dc000015 	stw	r16,0(sp)
    11a0:	2021883a 	mov	r16,r4
    11a4:	dc800215 	stw	r18,8(sp)
    11a8:	21000017 	ldw	r4,0(r4)
    11ac:	2825883a 	mov	r18,r5
    11b0:	81400117 	ldw	r5,4(r16)
    11b4:	dfc00315 	stw	ra,12(sp)
    11b8:	dc400115 	stw	r17,4(sp)
    11bc:	00169f00 	call	169f0 <kad_n_pivots>
    11c0:	01400604 	movi	r5,24
    11c4:	01000044 	movi	r4,1
    11c8:	00211ec0 	call	211ec <calloc>
    11cc:	1023883a 	mov	r17,r2
    11d0:	82000217 	ldw	r8,8(r16)
    11d4:	80c00317 	ldw	r3,12(r16)
    11d8:	80800417 	ldw	r2,16(r16)
    11dc:	81400117 	ldw	r5,4(r16)
    11e0:	81000017 	ldw	r4,0(r16)
    11e4:	900f883a 	mov	r7,r18
    11e8:	880d883a 	mov	r6,r17
    11ec:	8a000215 	stw	r8,8(r17)
    11f0:	88c00315 	stw	r3,12(r17)
    11f4:	88800415 	stw	r2,16(r17)
    11f8:	0016a400 	call	16a40 <kad_unroll>
    11fc:	88800115 	stw	r2,4(r17)
    1200:	8805883a 	mov	r2,r17
    1204:	dfc00317 	ldw	ra,12(sp)
    1208:	dc800217 	ldw	r18,8(sp)
    120c:	dc400117 	ldw	r17,4(sp)
    1210:	dc000017 	ldw	r16,0(sp)
    1214:	dec00404 	addi	sp,sp,16
    1218:	f800283a 	ret

0000121c <kann_unroll>:
    121c:	defff904 	addi	sp,sp,-28
    1220:	dc400115 	stw	r17,4(sp)
    1224:	2023883a 	mov	r17,r4
    1228:	dfc00315 	stw	ra,12(sp)
    122c:	dc800215 	stw	r18,8(sp)
    1230:	dc000015 	stw	r16,0(sp)
    1234:	d9400415 	stw	r5,16(sp)
    1238:	d9800515 	stw	r6,20(sp)
    123c:	d9c00615 	stw	r7,24(sp)
    1240:	21400117 	ldw	r5,4(r4)
    1244:	21000017 	ldw	r4,0(r4)
    1248:	00169f00 	call	169f0 <kad_n_pivots>
    124c:	01400104 	movi	r5,4
    1250:	1009883a 	mov	r4,r2
    1254:	1021883a 	mov	r16,r2
    1258:	00211ec0 	call	211ec <calloc>
    125c:	1025883a 	mov	r18,r2
    1260:	04000a0e 	bge	zero,r16,128c <kann_unroll+0x70>
    1264:	8421883a 	add	r16,r16,r16
    1268:	8421883a 	add	r16,r16,r16
    126c:	d8c00404 	addi	r3,sp,16
    1270:	1009883a 	mov	r4,r2
    1274:	1c05883a 	add	r2,r3,r16
    1278:	19400017 	ldw	r5,0(r3)
    127c:	21000104 	addi	r4,r4,4
    1280:	18c00104 	addi	r3,r3,4
    1284:	217fff15 	stw	r5,-4(r4)
    1288:	18bffb1e 	bne	r3,r2,1278 <kann_unroll+0x5c>
    128c:	89400117 	ldw	r5,4(r17)
    1290:	89000017 	ldw	r4,0(r17)
    1294:	00169f00 	call	169f0 <kad_n_pivots>
    1298:	01400604 	movi	r5,24
    129c:	01000044 	movi	r4,1
    12a0:	00211ec0 	call	211ec <calloc>
    12a4:	1021883a 	mov	r16,r2
    12a8:	8a000217 	ldw	r8,8(r17)
    12ac:	88c00317 	ldw	r3,12(r17)
    12b0:	88800417 	ldw	r2,16(r17)
    12b4:	89000017 	ldw	r4,0(r17)
    12b8:	89400117 	ldw	r5,4(r17)
    12bc:	900f883a 	mov	r7,r18
    12c0:	800d883a 	mov	r6,r16
    12c4:	82000215 	stw	r8,8(r16)
    12c8:	80c00315 	stw	r3,12(r16)
    12cc:	80800415 	stw	r2,16(r16)
    12d0:	0016a400 	call	16a40 <kad_unroll>
    12d4:	80800115 	stw	r2,4(r16)
    12d8:	9009883a 	mov	r4,r18
    12dc:	00233b00 	call	233b0 <free>
    12e0:	8005883a 	mov	r2,r16
    12e4:	dfc00317 	ldw	ra,12(sp)
    12e8:	dc800217 	ldw	r18,8(sp)
    12ec:	dc400117 	ldw	r17,4(sp)
    12f0:	dc000017 	ldw	r16,0(sp)
    12f4:	dec00704 	addi	sp,sp,28
    12f8:	f800283a 	ret

000012fc <kann_delete_unrolled>:
    12fc:	defffe04 	addi	sp,sp,-8
    1300:	dc000015 	stw	r16,0(sp)
    1304:	dfc00115 	stw	ra,4(sp)
    1308:	2021883a 	mov	r16,r4
    130c:	20000426 	beq	r4,zero,1320 <kann_delete_unrolled+0x24>
    1310:	21400117 	ldw	r5,4(r4)
    1314:	28000226 	beq	r5,zero,1320 <kann_delete_unrolled+0x24>
    1318:	21000017 	ldw	r4,0(r4)
    131c:	001580c0 	call	1580c <kad_delete>
    1320:	8009883a 	mov	r4,r16
    1324:	dfc00117 	ldw	ra,4(sp)
    1328:	dc000017 	ldw	r16,0(sp)
    132c:	dec00204 	addi	sp,sp,8
    1330:	00233b01 	jmpi	233b0 <free>

00001334 <kann_delete>:
    1334:	20001326 	beq	r4,zero,1384 <kann_delete+0x50>
    1338:	defffe04 	addi	sp,sp,-8
    133c:	dc000015 	stw	r16,0(sp)
    1340:	2021883a 	mov	r16,r4
    1344:	21000217 	ldw	r4,8(r4)
    1348:	dfc00115 	stw	ra,4(sp)
    134c:	00233b00 	call	233b0 <free>
    1350:	81000317 	ldw	r4,12(r16)
    1354:	00233b00 	call	233b0 <free>
    1358:	81000417 	ldw	r4,16(r16)
    135c:	00233b00 	call	233b0 <free>
    1360:	81400117 	ldw	r5,4(r16)
    1364:	28000226 	beq	r5,zero,1370 <kann_delete+0x3c>
    1368:	81000017 	ldw	r4,0(r16)
    136c:	001580c0 	call	1580c <kad_delete>
    1370:	8009883a 	mov	r4,r16
    1374:	dfc00117 	ldw	ra,4(sp)
    1378:	dc000017 	ldw	r16,0(sp)
    137c:	dec00204 	addi	sp,sp,8
    1380:	00233b01 	jmpi	233b0 <free>
    1384:	f800283a 	ret

00001388 <kann_find>:
    1388:	21c00017 	ldw	r7,0(r4)
    138c:	01c0280e 	bge	zero,r7,1430 <kann_find+0xa8>
    1390:	28001726 	beq	r5,zero,13f0 <kann_find+0x68>
    1394:	30002b26 	beq	r6,zero,1444 <kann_find+0xbc>
    1398:	22c00117 	ldw	r11,4(r4)
    139c:	0013883a 	mov	r9,zero
    13a0:	00bfffc4 	movi	r2,-1
    13a4:	0007883a 	mov	r3,zero
    13a8:	0011883a 	mov	r8,zero
    13ac:	5a49883a 	add	r4,r11,r9
    13b0:	22800017 	ldw	r10,0(r4)
    13b4:	51000917 	ldw	r4,36(r10)
    13b8:	2908703a 	and	r4,r5,r4
    13bc:	20000426 	beq	r4,zero,13d0 <kann_find+0x48>
    13c0:	51000817 	ldw	r4,32(r10)
    13c4:	3100021e 	bne	r6,r4,13d0 <kann_find+0x48>
    13c8:	18c00044 	addi	r3,r3,1
    13cc:	4005883a 	mov	r2,r8
    13d0:	42000044 	addi	r8,r8,1
    13d4:	4a400104 	addi	r9,r9,4
    13d8:	3a3ff41e 	bne	r7,r8,13ac <kann_find+0x24>
    13dc:	01000044 	movi	r4,1
    13e0:	19001426 	beq	r3,r4,1434 <kann_find+0xac>
    13e4:	1805003a 	cmpeq	r2,r3,zero
    13e8:	10bfff84 	addi	r2,r2,-2
    13ec:	f800283a 	ret
    13f0:	30001126 	beq	r6,zero,1438 <kann_find+0xb0>
    13f4:	21400117 	ldw	r5,4(r4)
    13f8:	00bfffc4 	movi	r2,-1
    13fc:	0007883a 	mov	r3,zero
    1400:	0009883a 	mov	r4,zero
    1404:	00000306 	br	1414 <kann_find+0x8c>
    1408:	21000044 	addi	r4,r4,1
    140c:	29400104 	addi	r5,r5,4
    1410:	393ff226 	beq	r7,r4,13dc <kann_find+0x54>
    1414:	2a000017 	ldw	r8,0(r5)
    1418:	42000817 	ldw	r8,32(r8)
    141c:	3213003a 	cmpeq	r9,r6,r8
    1420:	1a47883a 	add	r3,r3,r9
    1424:	323ff81e 	bne	r6,r8,1408 <kann_find+0x80>
    1428:	2005883a 	mov	r2,r4
    142c:	003ff606 	br	1408 <kann_find+0x80>
    1430:	00bfffc4 	movi	r2,-1
    1434:	f800283a 	ret
    1438:	38bfffc4 	addi	r2,r7,-1
    143c:	3807883a 	mov	r3,r7
    1440:	003fe606 	br	13dc <kann_find+0x54>
    1444:	22000117 	ldw	r8,4(r4)
    1448:	00bfffc4 	movi	r2,-1
    144c:	0007883a 	mov	r3,zero
    1450:	000d883a 	mov	r6,zero
    1454:	41000017 	ldw	r4,0(r8)
    1458:	3013883a 	mov	r9,r6
    145c:	21000917 	ldw	r4,36(r4)
    1460:	2908703a 	and	r4,r5,r4
    1464:	2014c03a 	cmpne	r10,r4,zero
    1468:	1a87883a 	add	r3,r3,r10
    146c:	2000011e 	bne	r4,zero,1474 <kann_find+0xec>
    1470:	1013883a 	mov	r9,r2
    1474:	31800044 	addi	r6,r6,1
    1478:	4805883a 	mov	r2,r9
    147c:	42000104 	addi	r8,r8,4
    1480:	39bff41e 	bne	r7,r6,1454 <kann_find+0xcc>
    1484:	003fd506 	br	13dc <kann_find+0x54>

00001488 <kann_feed_bind>:
    1488:	38005726 	beq	r7,zero,15e8 <kann_feed_bind+0x160>
    148c:	20800017 	ldw	r2,0(r4)
    1490:	0080550e 	bge	zero,r2,15e8 <kann_feed_bind+0x160>
    1494:	20c00117 	ldw	r3,4(r4)
    1498:	1085883a 	add	r2,r2,r2
    149c:	1085883a 	add	r2,r2,r2
    14a0:	1889883a 	add	r4,r3,r2
    14a4:	0005883a 	mov	r2,zero
    14a8:	30000f26 	beq	r6,zero,14e8 <kann_feed_bind+0x60>
    14ac:	28003926 	beq	r5,zero,1594 <kann_feed_bind+0x10c>
    14b0:	1a000017 	ldw	r8,0(r3)
    14b4:	18c00104 	addi	r3,r3,4
    14b8:	42400117 	ldw	r9,4(r8)
    14bc:	4800081e 	bne	r9,zero,14e0 <kann_feed_bind+0x58>
    14c0:	42400043 	ldbu	r9,1(r8)
    14c4:	4a4000cc 	andi	r9,r9,3
    14c8:	4800051e 	bne	r9,zero,14e0 <kann_feed_bind+0x58>
    14cc:	42400917 	ldw	r9,36(r8)
    14d0:	2a52703a 	and	r9,r5,r9
    14d4:	48000226 	beq	r9,zero,14e0 <kann_feed_bind+0x58>
    14d8:	42400817 	ldw	r9,32(r8)
    14dc:	32403a26 	beq	r6,r9,15c8 <kann_feed_bind+0x140>
    14e0:	193ff31e 	bne	r3,r4,14b0 <kann_feed_bind+0x28>
    14e4:	f800283a 	ret
    14e8:	28001326 	beq	r5,zero,1538 <kann_feed_bind+0xb0>
    14ec:	19800017 	ldw	r6,0(r3)
    14f0:	32000117 	ldw	r8,4(r6)
    14f4:	40000c1e 	bne	r8,zero,1528 <kann_feed_bind+0xa0>
    14f8:	32000043 	ldbu	r8,1(r6)
    14fc:	420000cc 	andi	r8,r8,3
    1500:	4000091e 	bne	r8,zero,1528 <kann_feed_bind+0xa0>
    1504:	32400917 	ldw	r9,36(r6)
    1508:	1091883a 	add	r8,r2,r2
    150c:	4211883a 	add	r8,r8,r8
    1510:	2a52703a 	and	r9,r5,r9
    1514:	3a11883a 	add	r8,r7,r8
    1518:	48000326 	beq	r9,zero,1528 <kann_feed_bind+0xa0>
    151c:	42000017 	ldw	r8,0(r8)
    1520:	10800044 	addi	r2,r2,1
    1524:	32000a15 	stw	r8,40(r6)
    1528:	18c00104 	addi	r3,r3,4
    152c:	193fef1e 	bne	r3,r4,14ec <kann_feed_bind+0x64>
    1530:	f800283a 	ret
    1534:	19002226 	beq	r3,r4,15c0 <kann_feed_bind+0x138>
    1538:	19800017 	ldw	r6,0(r3)
    153c:	18c00104 	addi	r3,r3,4
    1540:	31400117 	ldw	r5,4(r6)
    1544:	283ffb1e 	bne	r5,zero,1534 <kann_feed_bind+0xac>
    1548:	32000043 	ldbu	r8,1(r6)
    154c:	108b883a 	add	r5,r2,r2
    1550:	294b883a 	add	r5,r5,r5
    1554:	420000cc 	andi	r8,r8,3
    1558:	394b883a 	add	r5,r7,r5
    155c:	403ff51e 	bne	r8,zero,1534 <kann_feed_bind+0xac>
    1560:	29400017 	ldw	r5,0(r5)
    1564:	10800044 	addi	r2,r2,1
    1568:	31400a15 	stw	r5,40(r6)
    156c:	193ff21e 	bne	r3,r4,1538 <kann_feed_bind+0xb0>
    1570:	00001306 	br	15c0 <kann_feed_bind+0x138>
    1574:	1091883a 	add	r8,r2,r2
    1578:	4211883a 	add	r8,r8,r8
    157c:	3a11883a 	add	r8,r7,r8
    1580:	42000017 	ldw	r8,0(r8)
    1584:	10800044 	addi	r2,r2,1
    1588:	2a000a15 	stw	r8,40(r5)
    158c:	18c00104 	addi	r3,r3,4
    1590:	19000c26 	beq	r3,r4,15c4 <kann_feed_bind+0x13c>
    1594:	19400017 	ldw	r5,0(r3)
    1598:	2a000117 	ldw	r8,4(r5)
    159c:	403ffb1e 	bne	r8,zero,158c <kann_feed_bind+0x104>
    15a0:	2a000043 	ldbu	r8,1(r5)
    15a4:	420000cc 	andi	r8,r8,3
    15a8:	403ff81e 	bne	r8,zero,158c <kann_feed_bind+0x104>
    15ac:	2a000817 	ldw	r8,32(r5)
    15b0:	323ff026 	beq	r6,r8,1574 <kann_feed_bind+0xec>
    15b4:	18c00104 	addi	r3,r3,4
    15b8:	193ff61e 	bne	r3,r4,1594 <kann_feed_bind+0x10c>
    15bc:	00000106 	br	15c4 <kann_feed_bind+0x13c>
    15c0:	f800283a 	ret
    15c4:	f800283a 	ret
    15c8:	1093883a 	add	r9,r2,r2
    15cc:	4a53883a 	add	r9,r9,r9
    15d0:	3a53883a 	add	r9,r7,r9
    15d4:	4a400017 	ldw	r9,0(r9)
    15d8:	10800044 	addi	r2,r2,1
    15dc:	42400a15 	stw	r9,40(r8)
    15e0:	193fb31e 	bne	r3,r4,14b0 <kann_feed_bind+0x28>
    15e4:	003fbf06 	br	14e4 <kann_feed_bind+0x5c>
    15e8:	0005883a 	mov	r2,zero
    15ec:	f800283a 	ret

000015f0 <kann_feed_dim>:
    15f0:	20800017 	ldw	r2,0(r4)
    15f4:	0080e30e 	bge	zero,r2,1984 <kann_feed_dim+0x394>
    15f8:	defff504 	addi	sp,sp,-44
    15fc:	dd000515 	stw	r20,20(sp)
    1600:	dcc00415 	stw	r19,16(sp)
    1604:	dc000115 	stw	r16,4(sp)
    1608:	dfc00a15 	stw	ra,40(sp)
    160c:	df000915 	stw	fp,36(sp)
    1610:	ddc00815 	stw	r23,32(sp)
    1614:	dd800715 	stw	r22,28(sp)
    1618:	dd400615 	stw	r21,24(sp)
    161c:	dc800315 	stw	r18,12(sp)
    1620:	dc400215 	stw	r17,8(sp)
    1624:	3029883a 	mov	r20,r6
    1628:	2827883a 	mov	r19,r5
    162c:	24000117 	ldw	r16,4(r4)
    1630:	1085883a 	add	r2,r2,r2
    1634:	30002826 	beq	r6,zero,16d8 <kann_feed_dim+0xe8>
    1638:	28006126 	beq	r5,zero,17c0 <kann_feed_dim+0x1d0>
    163c:	1085883a 	add	r2,r2,r2
    1640:	058000f4 	movhi	r22,3
    1644:	80a3883a 	add	r17,r16,r2
    1648:	b5952c04 	addi	r22,r22,21680
    164c:	0005883a 	mov	r2,zero
    1650:	0025883a 	mov	r18,zero
    1654:	05400044 	movi	r21,1
    1658:	01800084 	movi	r6,2
    165c:	070003c4 	movi	fp,15
    1660:	05c000c4 	movi	r23,3
    1664:	80c00017 	ldw	r3,0(r16)
    1668:	19000117 	ldw	r4,4(r3)
    166c:	2000081e 	bne	r4,zero,1690 <kann_feed_dim+0xa0>
    1670:	19000043 	ldbu	r4,1(r3)
    1674:	210000cc 	andi	r4,r4,3
    1678:	2000051e 	bne	r4,zero,1690 <kann_feed_dim+0xa0>
    167c:	19000917 	ldw	r4,36(r3)
    1680:	9908703a 	and	r4,r19,r4
    1684:	20000226 	beq	r4,zero,1690 <kann_feed_dim+0xa0>
    1688:	19000817 	ldw	r4,32(r3)
    168c:	a1003826 	beq	r20,r4,1770 <kann_feed_dim+0x180>
    1690:	84000104 	addi	r16,r16,4
    1694:	847ff31e 	bne	r16,r17,1664 <kann_feed_dim+0x74>
    1698:	00c00044 	movi	r3,1
    169c:	90c00226 	beq	r18,r3,16a8 <kann_feed_dim+0xb8>
    16a0:	9004c03a 	cmpne	r2,r18,zero
    16a4:	0084303a 	nor	r2,zero,r2
    16a8:	dfc00a17 	ldw	ra,40(sp)
    16ac:	df000917 	ldw	fp,36(sp)
    16b0:	ddc00817 	ldw	r23,32(sp)
    16b4:	dd800717 	ldw	r22,28(sp)
    16b8:	dd400617 	ldw	r21,24(sp)
    16bc:	dd000517 	ldw	r20,20(sp)
    16c0:	dcc00417 	ldw	r19,16(sp)
    16c4:	dc800317 	ldw	r18,12(sp)
    16c8:	dc400217 	ldw	r17,8(sp)
    16cc:	dc000117 	ldw	r16,4(sp)
    16d0:	dec00b04 	addi	sp,sp,44
    16d4:	f800283a 	ret
    16d8:	28006026 	beq	r5,zero,185c <kann_feed_dim+0x26c>
    16dc:	1085883a 	add	r2,r2,r2
    16e0:	054000f4 	movhi	r21,3
    16e4:	80a3883a 	add	r17,r16,r2
    16e8:	ad552c04 	addi	r21,r21,21680
    16ec:	0005883a 	mov	r2,zero
    16f0:	0025883a 	mov	r18,zero
    16f4:	05000044 	movi	r20,1
    16f8:	07000084 	movi	fp,2
    16fc:	05c000c4 	movi	r23,3
    1700:	058003c4 	movi	r22,15
    1704:	80c00017 	ldw	r3,0(r16)
    1708:	19000117 	ldw	r4,4(r3)
    170c:	2000151e 	bne	r4,zero,1764 <kann_feed_dim+0x174>
    1710:	19000043 	ldbu	r4,1(r3)
    1714:	210000cc 	andi	r4,r4,3
    1718:	2000121e 	bne	r4,zero,1764 <kann_feed_dim+0x174>
    171c:	19000917 	ldw	r4,36(r3)
    1720:	9908703a 	and	r4,r19,r4
    1724:	20000f26 	beq	r4,zero,1764 <kann_feed_dim+0x174>
    1728:	18800003 	ldbu	r2,0(r3)
    172c:	94800044 	addi	r18,r18,1
    1730:	a080752e 	bgeu	r20,r2,1908 <kann_feed_dim+0x318>
    1734:	19400417 	ldw	r5,16(r3)
    1738:	19000517 	ldw	r4,20(r3)
    173c:	2909383a 	mul	r4,r5,r4
    1740:	17000526 	beq	r2,fp,1758 <kann_feed_dim+0x168>
    1744:	19800617 	ldw	r6,24(r3)
    1748:	2189383a 	mul	r4,r4,r6
    174c:	15c00226 	beq	r2,r23,1758 <kann_feed_dim+0x168>
    1750:	18800717 	ldw	r2,28(r3)
    1754:	2089383a 	mul	r4,r4,r2
    1758:	2144b03a 	or	r2,r4,r5
    175c:	b080822e 	bgeu	r22,r2,1968 <kann_feed_dim+0x378>
    1760:	001d1b40 	call	1d1b4 <__divsi3>
    1764:	84000104 	addi	r16,r16,4
    1768:	847fe61e 	bne	r16,r17,1704 <kann_feed_dim+0x114>
    176c:	003fca06 	br	1698 <kann_feed_dim+0xa8>
    1770:	18800003 	ldbu	r2,0(r3)
    1774:	94800044 	addi	r18,r18,1
    1778:	a880602e 	bgeu	r21,r2,18fc <kann_feed_dim+0x30c>
    177c:	19400417 	ldw	r5,16(r3)
    1780:	19000517 	ldw	r4,20(r3)
    1784:	2909383a 	mul	r4,r5,r4
    1788:	11800526 	beq	r2,r6,17a0 <kann_feed_dim+0x1b0>
    178c:	19c00617 	ldw	r7,24(r3)
    1790:	21c9383a 	mul	r4,r4,r7
    1794:	15c00226 	beq	r2,r23,17a0 <kann_feed_dim+0x1b0>
    1798:	18800717 	ldw	r2,28(r3)
    179c:	2089383a 	mul	r4,r4,r2
    17a0:	2144b03a 	or	r2,r4,r5
    17a4:	e080692e 	bgeu	fp,r2,194c <kann_feed_dim+0x35c>
    17a8:	d9800015 	stw	r6,0(sp)
    17ac:	84000104 	addi	r16,r16,4
    17b0:	001d1b40 	call	1d1b4 <__divsi3>
    17b4:	d9800017 	ldw	r6,0(sp)
    17b8:	847faa1e 	bne	r16,r17,1664 <kann_feed_dim+0x74>
    17bc:	003fb606 	br	1698 <kann_feed_dim+0xa8>
    17c0:	1085883a 	add	r2,r2,r2
    17c4:	054000f4 	movhi	r21,3
    17c8:	80a3883a 	add	r17,r16,r2
    17cc:	ad552c04 	addi	r21,r21,21680
    17d0:	0005883a 	mov	r2,zero
    17d4:	0025883a 	mov	r18,zero
    17d8:	04c00044 	movi	r19,1
    17dc:	07000084 	movi	fp,2
    17e0:	05c000c4 	movi	r23,3
    17e4:	058003c4 	movi	r22,15
    17e8:	80c00017 	ldw	r3,0(r16)
    17ec:	19000117 	ldw	r4,4(r3)
    17f0:	2000051e 	bne	r4,zero,1808 <kann_feed_dim+0x218>
    17f4:	19000043 	ldbu	r4,1(r3)
    17f8:	210000cc 	andi	r4,r4,3
    17fc:	2000021e 	bne	r4,zero,1808 <kann_feed_dim+0x218>
    1800:	19000817 	ldw	r4,32(r3)
    1804:	25000326 	beq	r4,r20,1814 <kann_feed_dim+0x224>
    1808:	84000104 	addi	r16,r16,4
    180c:	847ff61e 	bne	r16,r17,17e8 <kann_feed_dim+0x1f8>
    1810:	003fa106 	br	1698 <kann_feed_dim+0xa8>
    1814:	18800003 	ldbu	r2,0(r3)
    1818:	94800044 	addi	r18,r18,1
    181c:	9880342e 	bgeu	r19,r2,18f0 <kann_feed_dim+0x300>
    1820:	19400417 	ldw	r5,16(r3)
    1824:	19000517 	ldw	r4,20(r3)
    1828:	2909383a 	mul	r4,r5,r4
    182c:	17000526 	beq	r2,fp,1844 <kann_feed_dim+0x254>
    1830:	19800617 	ldw	r6,24(r3)
    1834:	2189383a 	mul	r4,r4,r6
    1838:	15c00226 	beq	r2,r23,1844 <kann_feed_dim+0x254>
    183c:	18800717 	ldw	r2,28(r3)
    1840:	2089383a 	mul	r4,r4,r2
    1844:	2144b03a 	or	r2,r4,r5
    1848:	b080322e 	bgeu	r22,r2,1914 <kann_feed_dim+0x324>
    184c:	84000104 	addi	r16,r16,4
    1850:	001d1b40 	call	1d1b4 <__divsi3>
    1854:	847fe41e 	bne	r16,r17,17e8 <kann_feed_dim+0x1f8>
    1858:	003f8f06 	br	1698 <kann_feed_dim+0xa8>
    185c:	1085883a 	add	r2,r2,r2
    1860:	050000f4 	movhi	r20,3
    1864:	80a3883a 	add	r17,r16,r2
    1868:	a5152c04 	addi	r20,r20,21680
    186c:	0005883a 	mov	r2,zero
    1870:	0025883a 	mov	r18,zero
    1874:	04c00044 	movi	r19,1
    1878:	05c00084 	movi	r23,2
    187c:	058003c4 	movi	r22,15
    1880:	054000c4 	movi	r21,3
    1884:	80c00017 	ldw	r3,0(r16)
    1888:	19000117 	ldw	r4,4(r3)
    188c:	2000121e 	bne	r4,zero,18d8 <kann_feed_dim+0x2e8>
    1890:	19000043 	ldbu	r4,1(r3)
    1894:	210000cc 	andi	r4,r4,3
    1898:	20000f1e 	bne	r4,zero,18d8 <kann_feed_dim+0x2e8>
    189c:	18800003 	ldbu	r2,0(r3)
    18a0:	94800044 	addi	r18,r18,1
    18a4:	98800f2e 	bgeu	r19,r2,18e4 <kann_feed_dim+0x2f4>
    18a8:	19400417 	ldw	r5,16(r3)
    18ac:	19000517 	ldw	r4,20(r3)
    18b0:	2909383a 	mul	r4,r5,r4
    18b4:	15c00526 	beq	r2,r23,18cc <kann_feed_dim+0x2dc>
    18b8:	19800617 	ldw	r6,24(r3)
    18bc:	2189383a 	mul	r4,r4,r6
    18c0:	15400226 	beq	r2,r21,18cc <kann_feed_dim+0x2dc>
    18c4:	18800717 	ldw	r2,28(r3)
    18c8:	2089383a 	mul	r4,r4,r2
    18cc:	2144b03a 	or	r2,r4,r5
    18d0:	b080172e 	bgeu	r22,r2,1930 <kann_feed_dim+0x340>
    18d4:	001d1b40 	call	1d1b4 <__divsi3>
    18d8:	84000104 	addi	r16,r16,4
    18dc:	847fe91e 	bne	r16,r17,1884 <kann_feed_dim+0x294>
    18e0:	003f6d06 	br	1698 <kann_feed_dim+0xa8>
    18e4:	14c02926 	beq	r2,r19,198c <kann_feed_dim+0x39c>
    18e8:	00800044 	movi	r2,1
    18ec:	003ffa06 	br	18d8 <kann_feed_dim+0x2e8>
    18f0:	14c02c26 	beq	r2,r19,19a4 <kann_feed_dim+0x3b4>
    18f4:	00800044 	movi	r2,1
    18f8:	003fc306 	br	1808 <kann_feed_dim+0x218>
    18fc:	15402726 	beq	r2,r21,199c <kann_feed_dim+0x3ac>
    1900:	00800044 	movi	r2,1
    1904:	003f6206 	br	1690 <kann_feed_dim+0xa0>
    1908:	15002226 	beq	r2,r20,1994 <kann_feed_dim+0x3a4>
    190c:	00800044 	movi	r2,1
    1910:	003f9406 	br	1764 <kann_feed_dim+0x174>
    1914:	2008913a 	slli	r4,r4,4
    1918:	84000104 	addi	r16,r16,4
    191c:	2148b03a 	or	r4,r4,r5
    1920:	2545883a 	add	r2,r4,r21
    1924:	10800003 	ldbu	r2,0(r2)
    1928:	847faf1e 	bne	r16,r17,17e8 <kann_feed_dim+0x1f8>
    192c:	003f5a06 	br	1698 <kann_feed_dim+0xa8>
    1930:	2008913a 	slli	r4,r4,4
    1934:	84000104 	addi	r16,r16,4
    1938:	2148b03a 	or	r4,r4,r5
    193c:	2505883a 	add	r2,r4,r20
    1940:	10800003 	ldbu	r2,0(r2)
    1944:	847fcf1e 	bne	r16,r17,1884 <kann_feed_dim+0x294>
    1948:	003f5306 	br	1698 <kann_feed_dim+0xa8>
    194c:	2008913a 	slli	r4,r4,4
    1950:	84000104 	addi	r16,r16,4
    1954:	2148b03a 	or	r4,r4,r5
    1958:	2585883a 	add	r2,r4,r22
    195c:	10800003 	ldbu	r2,0(r2)
    1960:	847f401e 	bne	r16,r17,1664 <kann_feed_dim+0x74>
    1964:	003f4c06 	br	1698 <kann_feed_dim+0xa8>
    1968:	2008913a 	slli	r4,r4,4
    196c:	84000104 	addi	r16,r16,4
    1970:	2148b03a 	or	r4,r4,r5
    1974:	2545883a 	add	r2,r4,r21
    1978:	10800003 	ldbu	r2,0(r2)
    197c:	847f611e 	bne	r16,r17,1704 <kann_feed_dim+0x114>
    1980:	003f4506 	br	1698 <kann_feed_dim+0xa8>
    1984:	00bfffc4 	movi	r2,-1
    1988:	f800283a 	ret
    198c:	18800417 	ldw	r2,16(r3)
    1990:	003fd106 	br	18d8 <kann_feed_dim+0x2e8>
    1994:	18800417 	ldw	r2,16(r3)
    1998:	003f7206 	br	1764 <kann_feed_dim+0x174>
    199c:	18800417 	ldw	r2,16(r3)
    19a0:	003f3b06 	br	1690 <kann_feed_dim+0xa0>
    19a4:	18800417 	ldw	r2,16(r3)
    19a8:	003f9706 	br	1808 <kann_feed_dim+0x218>

000019ac <kann_eval>:
    19ac:	2005883a 	mov	r2,r4
    19b0:	21000017 	ldw	r4,0(r4)
    19b4:	defffe04 	addi	sp,sp,-8
    19b8:	dc000015 	stw	r16,0(sp)
    19bc:	dfc00115 	stw	ra,4(sp)
    19c0:	12400117 	ldw	r9,4(r2)
    19c4:	0021883a 	mov	r16,zero
    19c8:	0100100e 	bge	zero,r4,1a0c <kann_eval+0x60>
    19cc:	28001626 	beq	r5,zero,1a28 <kann_eval+0x7c>
    19d0:	30002d26 	beq	r6,zero,1a88 <kann_eval+0xdc>
    19d4:	2111883a 	add	r8,r4,r4
    19d8:	4211883a 	add	r8,r8,r8
    19dc:	4805883a 	mov	r2,r9
    19e0:	4a11883a 	add	r8,r9,r8
    19e4:	0021883a 	mov	r16,zero
    19e8:	02800044 	movi	r10,1
    19ec:	11c00017 	ldw	r7,0(r2)
    19f0:	10800104 	addi	r2,r2,4
    19f4:	38c00917 	ldw	r3,36(r7)
    19f8:	28c6703a 	and	r3,r5,r3
    19fc:	18000226 	beq	r3,zero,1a08 <kann_eval+0x5c>
    1a00:	38c00817 	ldw	r3,32(r7)
    1a04:	30c01c26 	beq	r6,r3,1a78 <kann_eval+0xcc>
    1a08:	40bff81e 	bne	r8,r2,19ec <kann_eval+0x40>
    1a0c:	480b883a 	mov	r5,r9
    1a10:	00159c00 	call	159c0 <kad_eval_marked>
    1a14:	8005883a 	mov	r2,r16
    1a18:	dfc00117 	ldw	ra,4(sp)
    1a1c:	dc000017 	ldw	r16,0(sp)
    1a20:	dec00204 	addi	sp,sp,8
    1a24:	f800283a 	ret
    1a28:	30002626 	beq	r6,zero,1ac4 <kann_eval+0x118>
    1a2c:	4805883a 	mov	r2,r9
    1a30:	10c00017 	ldw	r3,0(r2)
    1a34:	2111883a 	add	r8,r4,r4
    1a38:	4211883a 	add	r8,r8,r8
    1a3c:	19c00817 	ldw	r7,32(r3)
    1a40:	4a11883a 	add	r8,r9,r8
    1a44:	0021883a 	mov	r16,zero
    1a48:	01400044 	movi	r5,1
    1a4c:	10800104 	addi	r2,r2,4
    1a50:	31c00526 	beq	r6,r7,1a68 <kann_eval+0xbc>
    1a54:	40bfed26 	beq	r8,r2,1a0c <kann_eval+0x60>
    1a58:	10c00017 	ldw	r3,0(r2)
    1a5c:	10800104 	addi	r2,r2,4
    1a60:	19c00817 	ldw	r7,32(r3)
    1a64:	31fffb1e 	bne	r6,r7,1a54 <kann_eval+0xa8>
    1a68:	19400215 	stw	r5,8(r3)
    1a6c:	84000044 	addi	r16,r16,1
    1a70:	40bff91e 	bne	r8,r2,1a58 <kann_eval+0xac>
    1a74:	003fe506 	br	1a0c <kann_eval+0x60>
    1a78:	3a800215 	stw	r10,8(r7)
    1a7c:	84000044 	addi	r16,r16,1
    1a80:	40bfda1e 	bne	r8,r2,19ec <kann_eval+0x40>
    1a84:	003fe106 	br	1a0c <kann_eval+0x60>
    1a88:	210f883a 	add	r7,r4,r4
    1a8c:	39cf883a 	add	r7,r7,r7
    1a90:	4805883a 	mov	r2,r9
    1a94:	49cf883a 	add	r7,r9,r7
    1a98:	0021883a 	mov	r16,zero
    1a9c:	02000044 	movi	r8,1
    1aa0:	11800017 	ldw	r6,0(r2)
    1aa4:	10800104 	addi	r2,r2,4
    1aa8:	30c00917 	ldw	r3,36(r6)
    1aac:	28c6703a 	and	r3,r5,r3
    1ab0:	18000226 	beq	r3,zero,1abc <kann_eval+0x110>
    1ab4:	32000215 	stw	r8,8(r6)
    1ab8:	84000044 	addi	r16,r16,1
    1abc:	11fff81e 	bne	r2,r7,1aa0 <kann_eval+0xf4>
    1ac0:	003fd206 	br	1a0c <kann_eval+0x60>
    1ac4:	210d883a 	add	r6,r4,r4
    1ac8:	318d883a 	add	r6,r6,r6
    1acc:	4805883a 	mov	r2,r9
    1ad0:	498d883a 	add	r6,r9,r6
    1ad4:	01400044 	movi	r5,1
    1ad8:	10c00017 	ldw	r3,0(r2)
    1adc:	10800104 	addi	r2,r2,4
    1ae0:	19400215 	stw	r5,8(r3)
    1ae4:	30bffc1e 	bne	r6,r2,1ad8 <kann_eval+0x12c>
    1ae8:	2021883a 	mov	r16,r4
    1aec:	003fc706 	br	1a0c <kann_eval+0x60>

00001af0 <kann_rnn_start>:
    1af0:	defff804 	addi	sp,sp,-32
    1af4:	dd800615 	stw	r22,24(sp)
    1af8:	21400117 	ldw	r5,4(r4)
    1afc:	202d883a 	mov	r22,r4
    1b00:	21000017 	ldw	r4,0(r4)
    1b04:	01800044 	movi	r6,1
    1b08:	dfc00715 	stw	ra,28(sp)
    1b0c:	dd400515 	stw	r21,20(sp)
    1b10:	dd000415 	stw	r20,16(sp)
    1b14:	dcc00315 	stw	r19,12(sp)
    1b18:	dc800215 	stw	r18,8(sp)
    1b1c:	dc400115 	stw	r17,4(sp)
    1b20:	dc000015 	stw	r16,0(sp)
    1b24:	00151fc0 	call	151fc <kad_sync_dim>
    1b28:	b0c00017 	ldw	r3,0(r22)
    1b2c:	00c0390e 	bge	zero,r3,1c14 <kann_rnn_start+0x124>
    1b30:	0029883a 	mov	r20,zero
    1b34:	04800044 	movi	r18,1
    1b38:	04400084 	movi	r17,2
    1b3c:	040000c4 	movi	r16,3
    1b40:	00001606 	br	1b9c <kann_rnn_start+0xac>
    1b44:	99800417 	ldw	r6,16(r19)
    1b48:	1c800826 	beq	r3,r18,1b6c <kann_rnn_start+0x7c>
    1b4c:	98800517 	ldw	r2,20(r19)
    1b50:	308d383a 	mul	r6,r6,r2
    1b54:	1c400526 	beq	r3,r17,1b6c <kann_rnn_start+0x7c>
    1b58:	98800617 	ldw	r2,24(r19)
    1b5c:	308d383a 	mul	r6,r6,r2
    1b60:	1c000226 	beq	r3,r16,1b6c <kann_rnn_start+0x7c>
    1b64:	98800717 	ldw	r2,28(r19)
    1b68:	308d383a 	mul	r6,r6,r2
    1b6c:	318d883a 	add	r6,r6,r6
    1b70:	318d883a 	add	r6,r6,r6
    1b74:	0023cb40 	call	23cb4 <memcpy>
    1b78:	a8800117 	ldw	r2,4(r21)
    1b7c:	0080020e 	bge	zero,r2,1b88 <kann_rnn_start+0x98>
    1b80:	a9000a17 	ldw	r4,40(r21)
    1b84:	00233b00 	call	233b0 <free>
    1b88:	98800a17 	ldw	r2,40(r19)
    1b8c:	b0c00017 	ldw	r3,0(r22)
    1b90:	a8800a15 	stw	r2,40(r21)
    1b94:	a5000044 	addi	r20,r20,1
    1b98:	a0c01e0e 	bge	r20,r3,1c14 <kann_rnn_start+0x124>
    1b9c:	b1000117 	ldw	r4,4(r22)
    1ba0:	a505883a 	add	r2,r20,r20
    1ba4:	1085883a 	add	r2,r2,r2
    1ba8:	2085883a 	add	r2,r4,r2
    1bac:	14c00017 	ldw	r19,0(r2)
    1bb0:	9d400f17 	ldw	r21,60(r19)
    1bb4:	a83ff726 	beq	r21,zero,1b94 <kann_rnn_start+0xa4>
    1bb8:	a9400a17 	ldw	r5,40(r21)
    1bbc:	98c00003 	ldbu	r3,0(r19)
    1bc0:	99000a17 	ldw	r4,40(r19)
    1bc4:	28000326 	beq	r5,zero,1bd4 <kann_rnn_start+0xe4>
    1bc8:	183fde1e 	bne	r3,zero,1b44 <kann_rnn_start+0x54>
    1bcc:	01800104 	movi	r6,4
    1bd0:	003fe806 	br	1b74 <kann_rnn_start+0x84>
    1bd4:	18001926 	beq	r3,zero,1c3c <kann_rnn_start+0x14c>
    1bd8:	99800417 	ldw	r6,16(r19)
    1bdc:	1c800826 	beq	r3,r18,1c00 <kann_rnn_start+0x110>
    1be0:	98800517 	ldw	r2,20(r19)
    1be4:	308d383a 	mul	r6,r6,r2
    1be8:	1c400526 	beq	r3,r17,1c00 <kann_rnn_start+0x110>
    1bec:	98800617 	ldw	r2,24(r19)
    1bf0:	308d383a 	mul	r6,r6,r2
    1bf4:	1c000226 	beq	r3,r16,1c00 <kann_rnn_start+0x110>
    1bf8:	98800717 	ldw	r2,28(r19)
    1bfc:	308d383a 	mul	r6,r6,r2
    1c00:	318d883a 	add	r6,r6,r6
    1c04:	318d883a 	add	r6,r6,r6
    1c08:	000b883a 	mov	r5,zero
    1c0c:	0023f580 	call	23f58 <memset>
    1c10:	003fd906 	br	1b78 <kann_rnn_start+0x88>
    1c14:	dfc00717 	ldw	ra,28(sp)
    1c18:	dd800617 	ldw	r22,24(sp)
    1c1c:	dd400517 	ldw	r21,20(sp)
    1c20:	dd000417 	ldw	r20,16(sp)
    1c24:	dcc00317 	ldw	r19,12(sp)
    1c28:	dc800217 	ldw	r18,8(sp)
    1c2c:	dc400117 	ldw	r17,4(sp)
    1c30:	dc000017 	ldw	r16,0(sp)
    1c34:	dec00804 	addi	sp,sp,32
    1c38:	f800283a 	ret
    1c3c:	01800104 	movi	r6,4
    1c40:	003ff106 	br	1c08 <kann_rnn_start+0x118>

00001c44 <kann_rnn_end>:
    1c44:	defff804 	addi	sp,sp,-32
    1c48:	dd800615 	stw	r22,24(sp)
    1c4c:	25800017 	ldw	r22,0(r4)
    1c50:	dc400115 	stw	r17,4(sp)
    1c54:	dfc00715 	stw	ra,28(sp)
    1c58:	dd400515 	stw	r21,20(sp)
    1c5c:	dd000415 	stw	r20,16(sp)
    1c60:	dcc00315 	stw	r19,12(sp)
    1c64:	dc800215 	stw	r18,8(sp)
    1c68:	dc000015 	stw	r16,0(sp)
    1c6c:	24400117 	ldw	r17,4(r4)
    1c70:	22c00217 	ldw	r11,8(r4)
    1c74:	23000317 	ldw	r12,12(r4)
    1c78:	23400417 	ldw	r13,16(r4)
    1c7c:	0580580e 	bge	zero,r22,1de0 <kann_rnn_end+0x19c>
    1c80:	b58b883a 	add	r5,r22,r22
    1c84:	294b883a 	add	r5,r5,r5
    1c88:	894b883a 	add	r5,r17,r5
    1c8c:	8807883a 	mov	r3,r17
    1c90:	000f883a 	mov	r7,zero
    1c94:	000d883a 	mov	r6,zero
    1c98:	02800044 	movi	r10,1
    1c9c:	02400084 	movi	r9,2
    1ca0:	020000c4 	movi	r8,3
    1ca4:	00001506 	br	1cfc <kann_rnn_end+0xb8>
    1ca8:	3189883a 	add	r4,r6,r6
    1cac:	2109883a 	add	r4,r4,r4
    1cb0:	13800003 	ldbu	r14,0(r2)
    1cb4:	591f883a 	add	r15,r11,r4
    1cb8:	6109883a 	add	r4,r12,r4
    1cbc:	13c00a15 	stw	r15,40(r2)
    1cc0:	11000b15 	stw	r4,44(r2)
    1cc4:	70005026 	beq	r14,zero,1e08 <kann_rnn_end+0x1c4>
    1cc8:	11000417 	ldw	r4,16(r2)
    1ccc:	72800826 	beq	r14,r10,1cf0 <kann_rnn_end+0xac>
    1cd0:	13c00517 	ldw	r15,20(r2)
    1cd4:	23c9383a 	mul	r4,r4,r15
    1cd8:	72400526 	beq	r14,r9,1cf0 <kann_rnn_end+0xac>
    1cdc:	13c00617 	ldw	r15,24(r2)
    1ce0:	23c9383a 	mul	r4,r4,r15
    1ce4:	72000226 	beq	r14,r8,1cf0 <kann_rnn_end+0xac>
    1ce8:	10800717 	ldw	r2,28(r2)
    1cec:	2089383a 	mul	r4,r4,r2
    1cf0:	310d883a 	add	r6,r6,r4
    1cf4:	18c00104 	addi	r3,r3,4
    1cf8:	19401b26 	beq	r3,r5,1d68 <kann_rnn_end+0x124>
    1cfc:	18800017 	ldw	r2,0(r3)
    1d00:	11000117 	ldw	r4,4(r2)
    1d04:	203ffb1e 	bne	r4,zero,1cf4 <kann_rnn_end+0xb0>
    1d08:	11000043 	ldbu	r4,1(r2)
    1d0c:	2380004c 	andi	r14,r4,1
    1d10:	703fe51e 	bne	r14,zero,1ca8 <kann_rnn_end+0x64>
    1d14:	2100008c 	andi	r4,r4,2
    1d18:	203ff626 	beq	r4,zero,1cf4 <kann_rnn_end+0xb0>
    1d1c:	39c9883a 	add	r4,r7,r7
    1d20:	2109883a 	add	r4,r4,r4
    1d24:	13800003 	ldbu	r14,0(r2)
    1d28:	6909883a 	add	r4,r13,r4
    1d2c:	11000a15 	stw	r4,40(r2)
    1d30:	70003726 	beq	r14,zero,1e10 <kann_rnn_end+0x1cc>
    1d34:	11000417 	ldw	r4,16(r2)
    1d38:	72800826 	beq	r14,r10,1d5c <kann_rnn_end+0x118>
    1d3c:	13c00517 	ldw	r15,20(r2)
    1d40:	23c9383a 	mul	r4,r4,r15
    1d44:	72400526 	beq	r14,r9,1d5c <kann_rnn_end+0x118>
    1d48:	13c00617 	ldw	r15,24(r2)
    1d4c:	23c9383a 	mul	r4,r4,r15
    1d50:	72000226 	beq	r14,r8,1d5c <kann_rnn_end+0x118>
    1d54:	10800717 	ldw	r2,28(r2)
    1d58:	2089383a 	mul	r4,r4,r2
    1d5c:	18c00104 	addi	r3,r3,4
    1d60:	390f883a 	add	r7,r7,r4
    1d64:	197fe51e 	bne	r3,r5,1cfc <kann_rnn_end+0xb8>
    1d68:	002b883a 	mov	r21,zero
    1d6c:	05000044 	movi	r20,1
    1d70:	04c00084 	movi	r19,2
    1d74:	048000c4 	movi	r18,3
    1d78:	00001006 	br	1dbc <kann_rnn_end+0x178>
    1d7c:	81000417 	ldw	r4,16(r16)
    1d80:	15000826 	beq	r2,r20,1da4 <kann_rnn_end+0x160>
    1d84:	80c00517 	ldw	r3,20(r16)
    1d88:	20c9383a 	mul	r4,r4,r3
    1d8c:	14c00526 	beq	r2,r19,1da4 <kann_rnn_end+0x160>
    1d90:	80c00617 	ldw	r3,24(r16)
    1d94:	20c9383a 	mul	r4,r4,r3
    1d98:	14800226 	beq	r2,r18,1da4 <kann_rnn_end+0x160>
    1d9c:	80800717 	ldw	r2,28(r16)
    1da0:	2089383a 	mul	r4,r4,r2
    1da4:	01400104 	movi	r5,4
    1da8:	00211ec0 	call	211ec <calloc>
    1dac:	80800a15 	stw	r2,40(r16)
    1db0:	ad400044 	addi	r21,r21,1
    1db4:	8c400104 	addi	r17,r17,4
    1db8:	b5400926 	beq	r22,r21,1de0 <kann_rnn_end+0x19c>
    1dbc:	88800017 	ldw	r2,0(r17)
    1dc0:	14000f17 	ldw	r16,60(r2)
    1dc4:	803ffa26 	beq	r16,zero,1db0 <kann_rnn_end+0x16c>
    1dc8:	80800117 	ldw	r2,4(r16)
    1dcc:	00bff80e 	bge	zero,r2,1db0 <kann_rnn_end+0x16c>
    1dd0:	80800003 	ldbu	r2,0(r16)
    1dd4:	103fe91e 	bne	r2,zero,1d7c <kann_rnn_end+0x138>
    1dd8:	01000044 	movi	r4,1
    1ddc:	003ff106 	br	1da4 <kann_rnn_end+0x160>
    1de0:	dfc00717 	ldw	ra,28(sp)
    1de4:	dd800617 	ldw	r22,24(sp)
    1de8:	dd400517 	ldw	r21,20(sp)
    1dec:	dd000417 	ldw	r20,16(sp)
    1df0:	dcc00317 	ldw	r19,12(sp)
    1df4:	dc800217 	ldw	r18,8(sp)
    1df8:	dc400117 	ldw	r17,4(sp)
    1dfc:	dc000017 	ldw	r16,0(sp)
    1e00:	dec00804 	addi	sp,sp,32
    1e04:	f800283a 	ret
    1e08:	01000044 	movi	r4,1
    1e0c:	003fb806 	br	1cf0 <kann_rnn_end+0xac>
    1e10:	01000044 	movi	r4,1
    1e14:	003fd106 	br	1d5c <kann_rnn_end+0x118>

00001e18 <kann_mt>:
    1e18:	f800283a 	ret

00001e1c <kann_cost>:
    1e1c:	defffb04 	addi	sp,sp,-20
    1e20:	dc400115 	stw	r17,4(sp)
    1e24:	2023883a 	mov	r17,r4
    1e28:	21000017 	ldw	r4,0(r4)
    1e2c:	dfc00415 	stw	ra,16(sp)
    1e30:	dcc00315 	stw	r19,12(sp)
    1e34:	dc800215 	stw	r18,8(sp)
    1e38:	dc000015 	stw	r16,0(sp)
    1e3c:	0100140e 	bge	zero,r4,1e90 <kann_cost+0x74>
    1e40:	8a400117 	ldw	r9,4(r17)
    1e44:	3025883a 	mov	r18,r6
    1e48:	043fffc4 	movi	r16,-1
    1e4c:	480d883a 	mov	r6,r9
    1e50:	000f883a 	mov	r7,zero
    1e54:	0007883a 	mov	r3,zero
    1e58:	28001526 	beq	r5,zero,1eb0 <kann_cost+0x94>
    1e5c:	32000017 	ldw	r8,0(r6)
    1e60:	40800917 	ldw	r2,36(r8)
    1e64:	1080020c 	andi	r2,r2,8
    1e68:	10000426 	beq	r2,zero,1e7c <kann_cost+0x60>
    1e6c:	40800817 	ldw	r2,32(r8)
    1e70:	2880021e 	bne	r5,r2,1e7c <kann_cost+0x60>
    1e74:	39c00044 	addi	r7,r7,1
    1e78:	1821883a 	mov	r16,r3
    1e7c:	18c00044 	addi	r3,r3,1
    1e80:	31800104 	addi	r6,r6,4
    1e84:	20fff51e 	bne	r4,r3,1e5c <kann_cost+0x40>
    1e88:	00800044 	movi	r2,1
    1e8c:	38801426 	beq	r7,r2,1ee0 <kann_cost+0xc4>
    1e90:	01c000f4 	movhi	r7,3
    1e94:	018000f4 	movhi	r6,3
    1e98:	010000f4 	movhi	r4,3
    1e9c:	39d0ae04 	addi	r7,r7,17080
    1ea0:	3190f204 	addi	r6,r6,17352
    1ea4:	2110b104 	addi	r4,r4,17092
    1ea8:	01402f04 	movi	r5,188
    1eac:	00211700 	call	21170 <__assert_func>
    1eb0:	30800017 	ldw	r2,0(r6)
    1eb4:	10800917 	ldw	r2,36(r2)
    1eb8:	1080020c 	andi	r2,r2,8
    1ebc:	1010c03a 	cmpne	r8,r2,zero
    1ec0:	3a0f883a 	add	r7,r7,r8
    1ec4:	10000126 	beq	r2,zero,1ecc <kann_cost+0xb0>
    1ec8:	1821883a 	mov	r16,r3
    1ecc:	18c00044 	addi	r3,r3,1
    1ed0:	31800104 	addi	r6,r6,4
    1ed4:	193ff61e 	bne	r3,r4,1eb0 <kann_cost+0x94>
    1ed8:	00800044 	movi	r2,1
    1edc:	38bfec1e 	bne	r7,r2,1e90 <kann_cost+0x74>
    1ee0:	803feb16 	blt	r16,zero,1e90 <kann_cost+0x74>
    1ee4:	800d883a 	mov	r6,r16
    1ee8:	480b883a 	mov	r5,r9
    1eec:	0015b300 	call	15b30 <kad_eval_at>
    1ef0:	14c00017 	ldw	r19,0(r2)
    1ef4:	90000426 	beq	r18,zero,1f08 <kann_cost+0xec>
    1ef8:	89400117 	ldw	r5,4(r17)
    1efc:	89000017 	ldw	r4,0(r17)
    1f00:	800d883a 	mov	r6,r16
    1f04:	0015d000 	call	15d00 <kad_grad>
    1f08:	9805883a 	mov	r2,r19
    1f0c:	dfc00417 	ldw	ra,16(sp)
    1f10:	dcc00317 	ldw	r19,12(sp)
    1f14:	dc800217 	ldw	r18,8(sp)
    1f18:	dc400117 	ldw	r17,4(sp)
    1f1c:	dc000017 	ldw	r16,0(sp)
    1f20:	dec00504 	addi	sp,sp,20
    1f24:	f800283a 	ret

00001f28 <kann_class_error>:
    1f28:	280d883a 	mov	r6,r5
    1f2c:	21400104 	addi	r5,r4,4
    1f30:	00003e81 	jmpi	3e8 <kann_class_error_core.isra.1>

00001f34 <kann_switch>:
    1f34:	21800017 	ldw	r6,0(r4)
    1f38:	01800c0e 	bge	zero,r6,1f6c <kann_switch+0x38>
    1f3c:	20800117 	ldw	r2,4(r4)
    1f40:	318d883a 	add	r6,r6,r6
    1f44:	318d883a 	add	r6,r6,r6
    1f48:	118d883a 	add	r6,r2,r6
    1f4c:	01c00304 	movi	r7,12
    1f50:	02000084 	movi	r8,2
    1f54:	280ac03a 	cmpne	r5,r5,zero
    1f58:	10c00017 	ldw	r3,0(r2)
    1f5c:	10800104 	addi	r2,r2,4
    1f60:	1900008b 	ldhu	r4,2(r3)
    1f64:	21c00226 	beq	r4,r7,1f70 <kann_switch+0x3c>
    1f68:	11bffb1e 	bne	r2,r6,1f58 <kann_switch+0x24>
    1f6c:	f800283a 	ret
    1f70:	19000117 	ldw	r4,4(r3)
    1f74:	223ffc1e 	bne	r4,r8,1f68 <kann_switch+0x34>
    1f78:	18c00c17 	ldw	r3,48(r3)
    1f7c:	19400015 	stw	r5,0(r3)
    1f80:	11bff51e 	bne	r2,r6,1f58 <kann_switch+0x24>
    1f84:	003ff906 	br	1f6c <kann_switch+0x38>

00001f88 <kann_save_fp>:
    1f88:	defffb04 	addi	sp,sp,-20
    1f8c:	dc000015 	stw	r16,0(sp)
    1f90:	2821883a 	mov	r16,r5
    1f94:	dc400115 	stw	r17,4(sp)
    1f98:	29400117 	ldw	r5,4(r5)
    1f9c:	2023883a 	mov	r17,r4
    1fa0:	81000017 	ldw	r4,0(r16)
    1fa4:	dcc00315 	stw	r19,12(sp)
    1fa8:	04c00044 	movi	r19,1
    1fac:	980d883a 	mov	r6,r19
    1fb0:	dfc00415 	stw	ra,16(sp)
    1fb4:	dc800215 	stw	r18,8(sp)
    1fb8:	00151fc0 	call	151fc <kad_sync_dim>
    1fbc:	04800104 	movi	r18,4
    1fc0:	010000f4 	movhi	r4,3
    1fc4:	880f883a 	mov	r7,r17
    1fc8:	900d883a 	mov	r6,r18
    1fcc:	980b883a 	mov	r5,r19
    1fd0:	2110b304 	addi	r4,r4,17100
    1fd4:	00231ac0 	call	231ac <fwrite>
    1fd8:	81800117 	ldw	r6,4(r16)
    1fdc:	81400017 	ldw	r5,0(r16)
    1fe0:	8809883a 	mov	r4,r17
    1fe4:	0015f7c0 	call	15f7c <kad_save>
    1fe8:	81400117 	ldw	r5,4(r16)
    1fec:	81000017 	ldw	r4,0(r16)
    1ff0:	84c00217 	ldw	r19,8(r16)
    1ff4:	00158b00 	call	158b0 <kad_size_var>
    1ff8:	880f883a 	mov	r7,r17
    1ffc:	100d883a 	mov	r6,r2
    2000:	900b883a 	mov	r5,r18
    2004:	9809883a 	mov	r4,r19
    2008:	00231ac0 	call	231ac <fwrite>
    200c:	81400117 	ldw	r5,4(r16)
    2010:	81000017 	ldw	r4,0(r16)
    2014:	84c00417 	ldw	r19,16(r16)
    2018:	00159380 	call	15938 <kad_size_const>
    201c:	880f883a 	mov	r7,r17
    2020:	100d883a 	mov	r6,r2
    2024:	900b883a 	mov	r5,r18
    2028:	9809883a 	mov	r4,r19
    202c:	dfc00417 	ldw	ra,16(sp)
    2030:	dcc00317 	ldw	r19,12(sp)
    2034:	dc800217 	ldw	r18,8(sp)
    2038:	dc400117 	ldw	r17,4(sp)
    203c:	dc000017 	ldw	r16,0(sp)
    2040:	dec00504 	addi	sp,sp,20
    2044:	00231ac1 	jmpi	231ac <fwrite>

00002048 <kann_save>:
    2048:	defffc04 	addi	sp,sp,-16
    204c:	dc000015 	stw	r16,0(sp)
    2050:	dfc00315 	stw	ra,12(sp)
    2054:	dc800215 	stw	r18,8(sp)
    2058:	dc400115 	stw	r17,4(sp)
    205c:	2821883a 	mov	r16,r5
    2060:	20000526 	beq	r4,zero,2078 <kann_save+0x30>
    2064:	014000f4 	movhi	r5,3
    2068:	2950b504 	addi	r5,r5,17108
    206c:	2023883a 	mov	r17,r4
    2070:	0024eb40 	call	24eb4 <strcmp>
    2074:	1000291e 	bne	r2,zero,211c <kann_save+0xd4>
    2078:	d0a00b17 	ldw	r2,-32724(gp)
    207c:	14400217 	ldw	r17,8(r2)
    2080:	81400117 	ldw	r5,4(r16)
    2084:	81000017 	ldw	r4,0(r16)
    2088:	01800044 	movi	r6,1
    208c:	00151fc0 	call	151fc <kad_sync_dim>
    2090:	010000f4 	movhi	r4,3
    2094:	880f883a 	mov	r7,r17
    2098:	2110b304 	addi	r4,r4,17100
    209c:	01800104 	movi	r6,4
    20a0:	01400044 	movi	r5,1
    20a4:	00231ac0 	call	231ac <fwrite>
    20a8:	81800117 	ldw	r6,4(r16)
    20ac:	81400017 	ldw	r5,0(r16)
    20b0:	8809883a 	mov	r4,r17
    20b4:	0015f7c0 	call	15f7c <kad_save>
    20b8:	81400117 	ldw	r5,4(r16)
    20bc:	81000017 	ldw	r4,0(r16)
    20c0:	84800217 	ldw	r18,8(r16)
    20c4:	00158b00 	call	158b0 <kad_size_var>
    20c8:	880f883a 	mov	r7,r17
    20cc:	100d883a 	mov	r6,r2
    20d0:	9009883a 	mov	r4,r18
    20d4:	01400104 	movi	r5,4
    20d8:	00231ac0 	call	231ac <fwrite>
    20dc:	81400117 	ldw	r5,4(r16)
    20e0:	81000017 	ldw	r4,0(r16)
    20e4:	84000417 	ldw	r16,16(r16)
    20e8:	00159380 	call	15938 <kad_size_const>
    20ec:	8009883a 	mov	r4,r16
    20f0:	880f883a 	mov	r7,r17
    20f4:	100d883a 	mov	r6,r2
    20f8:	01400104 	movi	r5,4
    20fc:	00231ac0 	call	231ac <fwrite>
    2100:	8809883a 	mov	r4,r17
    2104:	dfc00317 	ldw	ra,12(sp)
    2108:	dc800217 	ldw	r18,8(sp)
    210c:	dc400117 	ldw	r17,4(sp)
    2110:	dc000017 	ldw	r16,0(sp)
    2114:	dec00404 	addi	sp,sp,16
    2118:	00214001 	jmpi	21400 <fclose>
    211c:	014000f4 	movhi	r5,3
    2120:	8809883a 	mov	r4,r17
    2124:	2950b604 	addi	r5,r5,17112
    2128:	0021d740 	call	21d74 <fopen>
    212c:	1023883a 	mov	r17,r2
    2130:	003fd306 	br	2080 <kann_save+0x38>

00002134 <kann_load_fp>:
    2134:	defff904 	addi	sp,sp,-28
    2138:	dc400215 	stw	r17,8(sp)
    213c:	2023883a 	mov	r17,r4
    2140:	01800104 	movi	r6,4
    2144:	01400044 	movi	r5,1
    2148:	d809883a 	mov	r4,sp
    214c:	880f883a 	mov	r7,r17
    2150:	dfc00615 	stw	ra,24(sp)
    2154:	dd000515 	stw	r20,20(sp)
    2158:	dcc00415 	stw	r19,16(sp)
    215c:	dc800315 	stw	r18,12(sp)
    2160:	dc000115 	stw	r16,4(sp)
    2164:	00221580 	call	22158 <fread>
    2168:	014000f4 	movhi	r5,3
    216c:	2950b304 	addi	r5,r5,17100
    2170:	01800104 	movi	r6,4
    2174:	d809883a 	mov	r4,sp
    2178:	00250a40 	call	250a4 <strncmp>
    217c:	1000731e 	bne	r2,zero,234c <kann_load_fp+0x218>
    2180:	01400604 	movi	r5,24
    2184:	01000044 	movi	r4,1
    2188:	00211ec0 	call	211ec <calloc>
    218c:	100b883a 	mov	r5,r2
    2190:	8809883a 	mov	r4,r17
    2194:	1021883a 	mov	r16,r2
    2198:	00161780 	call	16178 <kad_load>
    219c:	81000017 	ldw	r4,0(r16)
    21a0:	100b883a 	mov	r5,r2
    21a4:	80800115 	stw	r2,4(r16)
    21a8:	00158b00 	call	158b0 <kad_size_var>
    21ac:	81400117 	ldw	r5,4(r16)
    21b0:	81000017 	ldw	r4,0(r16)
    21b4:	1025883a 	mov	r18,r2
    21b8:	00159380 	call	15938 <kad_size_const>
    21bc:	9489883a 	add	r4,r18,r18
    21c0:	2109883a 	add	r4,r4,r4
    21c4:	1027883a 	mov	r19,r2
    21c8:	002339c0 	call	2339c <malloc>
    21cc:	01400104 	movi	r5,4
    21d0:	9009883a 	mov	r4,r18
    21d4:	1029883a 	mov	r20,r2
    21d8:	80800215 	stw	r2,8(r16)
    21dc:	00211ec0 	call	211ec <calloc>
    21e0:	9cc9883a 	add	r4,r19,r19
    21e4:	2109883a 	add	r4,r4,r4
    21e8:	80800315 	stw	r2,12(r16)
    21ec:	002339c0 	call	2339c <malloc>
    21f0:	01400104 	movi	r5,4
    21f4:	a009883a 	mov	r4,r20
    21f8:	880f883a 	mov	r7,r17
    21fc:	900d883a 	mov	r6,r18
    2200:	80800415 	stw	r2,16(r16)
    2204:	00221580 	call	22158 <fread>
    2208:	81000417 	ldw	r4,16(r16)
    220c:	980d883a 	mov	r6,r19
    2210:	880f883a 	mov	r7,r17
    2214:	01400104 	movi	r5,4
    2218:	00221580 	call	22158 <fread>
    221c:	81800017 	ldw	r6,0(r16)
    2220:	81000117 	ldw	r4,4(r16)
    2224:	83000217 	ldw	r12,8(r16)
    2228:	83400317 	ldw	r13,12(r16)
    222c:	83800417 	ldw	r14,16(r16)
    2230:	0180390e 	bge	zero,r6,2318 <kann_load_fp+0x1e4>
    2234:	318d883a 	add	r6,r6,r6
    2238:	318d883a 	add	r6,r6,r6
    223c:	218d883a 	add	r6,r4,r6
    2240:	0011883a 	mov	r8,zero
    2244:	000f883a 	mov	r7,zero
    2248:	02c00044 	movi	r11,1
    224c:	02800084 	movi	r10,2
    2250:	024000c4 	movi	r9,3
    2254:	00001506 	br	22ac <kann_load_fp+0x178>
    2258:	39cb883a 	add	r5,r7,r7
    225c:	294b883a 	add	r5,r5,r5
    2260:	18800003 	ldbu	r2,0(r3)
    2264:	615f883a 	add	r15,r12,r5
    2268:	694b883a 	add	r5,r13,r5
    226c:	1bc00a15 	stw	r15,40(r3)
    2270:	19400b15 	stw	r5,44(r3)
    2274:	10003126 	beq	r2,zero,233c <kann_load_fp+0x208>
    2278:	19400417 	ldw	r5,16(r3)
    227c:	12c00826 	beq	r2,r11,22a0 <kann_load_fp+0x16c>
    2280:	1bc00517 	ldw	r15,20(r3)
    2284:	2bcb383a 	mul	r5,r5,r15
    2288:	12800526 	beq	r2,r10,22a0 <kann_load_fp+0x16c>
    228c:	1bc00617 	ldw	r15,24(r3)
    2290:	2bcb383a 	mul	r5,r5,r15
    2294:	12400226 	beq	r2,r9,22a0 <kann_load_fp+0x16c>
    2298:	18800717 	ldw	r2,28(r3)
    229c:	288b383a 	mul	r5,r5,r2
    22a0:	394f883a 	add	r7,r7,r5
    22a4:	21000104 	addi	r4,r4,4
    22a8:	31001b26 	beq	r6,r4,2318 <kann_load_fp+0x1e4>
    22ac:	20c00017 	ldw	r3,0(r4)
    22b0:	19400117 	ldw	r5,4(r3)
    22b4:	283ffb1e 	bne	r5,zero,22a4 <kann_load_fp+0x170>
    22b8:	19400043 	ldbu	r5,1(r3)
    22bc:	2880004c 	andi	r2,r5,1
    22c0:	103fe51e 	bne	r2,zero,2258 <kann_load_fp+0x124>
    22c4:	2940008c 	andi	r5,r5,2
    22c8:	283ff626 	beq	r5,zero,22a4 <kann_load_fp+0x170>
    22cc:	4205883a 	add	r2,r8,r8
    22d0:	1085883a 	add	r2,r2,r2
    22d4:	19400003 	ldbu	r5,0(r3)
    22d8:	7085883a 	add	r2,r14,r2
    22dc:	18800a15 	stw	r2,40(r3)
    22e0:	28001826 	beq	r5,zero,2344 <kann_load_fp+0x210>
    22e4:	18800417 	ldw	r2,16(r3)
    22e8:	2ac00826 	beq	r5,r11,230c <kann_load_fp+0x1d8>
    22ec:	1bc00517 	ldw	r15,20(r3)
    22f0:	13c5383a 	mul	r2,r2,r15
    22f4:	2a800526 	beq	r5,r10,230c <kann_load_fp+0x1d8>
    22f8:	1bc00617 	ldw	r15,24(r3)
    22fc:	13c5383a 	mul	r2,r2,r15
    2300:	2a400226 	beq	r5,r9,230c <kann_load_fp+0x1d8>
    2304:	18c00717 	ldw	r3,28(r3)
    2308:	10c5383a 	mul	r2,r2,r3
    230c:	21000104 	addi	r4,r4,4
    2310:	4091883a 	add	r8,r8,r2
    2314:	313fe51e 	bne	r6,r4,22ac <kann_load_fp+0x178>
    2318:	8005883a 	mov	r2,r16
    231c:	dfc00617 	ldw	ra,24(sp)
    2320:	dd000517 	ldw	r20,20(sp)
    2324:	dcc00417 	ldw	r19,16(sp)
    2328:	dc800317 	ldw	r18,12(sp)
    232c:	dc400217 	ldw	r17,8(sp)
    2330:	dc000117 	ldw	r16,4(sp)
    2334:	dec00704 	addi	sp,sp,28
    2338:	f800283a 	ret
    233c:	01400044 	movi	r5,1
    2340:	003fd706 	br	22a0 <kann_load_fp+0x16c>
    2344:	00800044 	movi	r2,1
    2348:	003ff006 	br	230c <kann_load_fp+0x1d8>
    234c:	8809883a 	mov	r4,r17
    2350:	00214000 	call	21400 <fclose>
    2354:	0005883a 	mov	r2,zero
    2358:	003ff006 	br	231c <kann_load_fp+0x1e8>

0000235c <kann_load>:
    235c:	defffd04 	addi	sp,sp,-12
    2360:	dc400115 	stw	r17,4(sp)
    2364:	dfc00215 	stw	ra,8(sp)
    2368:	dc000015 	stw	r16,0(sp)
    236c:	2023883a 	mov	r17,r4
    2370:	20000426 	beq	r4,zero,2384 <kann_load+0x28>
    2374:	014000f4 	movhi	r5,3
    2378:	2950b504 	addi	r5,r5,17108
    237c:	0024eb40 	call	24eb4 <strcmp>
    2380:	10000e1e 	bne	r2,zero,23bc <kann_load+0x60>
    2384:	d0a00b17 	ldw	r2,-32724(gp)
    2388:	14000117 	ldw	r16,4(r2)
    238c:	80001126 	beq	r16,zero,23d4 <kann_load+0x78>
    2390:	8009883a 	mov	r4,r16
    2394:	00021340 	call	2134 <kann_load_fp>
    2398:	8009883a 	mov	r4,r16
    239c:	1023883a 	mov	r17,r2
    23a0:	00214000 	call	21400 <fclose>
    23a4:	8805883a 	mov	r2,r17
    23a8:	dfc00217 	ldw	ra,8(sp)
    23ac:	dc400117 	ldw	r17,4(sp)
    23b0:	dc000017 	ldw	r16,0(sp)
    23b4:	dec00304 	addi	sp,sp,12
    23b8:	f800283a 	ret
    23bc:	014000f4 	movhi	r5,3
    23c0:	2950b704 	addi	r5,r5,17116
    23c4:	8809883a 	mov	r4,r17
    23c8:	0021d740 	call	21d74 <fopen>
    23cc:	1021883a 	mov	r16,r2
    23d0:	003fee06 	br	238c <kann_load+0x30>
    23d4:	010000f4 	movhi	r4,3
    23d8:	2110b804 	addi	r4,r4,17120
    23dc:	880b883a 	mov	r5,r17
    23e0:	00241100 	call	24110 <printf>
    23e4:	01000044 	movi	r4,1
    23e8:	00212d80 	call	212d8 <exit>

000023ec <kann_new_leaf_array>:
    23ec:	defff604 	addi	sp,sp,-40
    23f0:	dc400115 	stw	r17,4(sp)
    23f4:	dc000015 	stw	r16,0(sp)
    23f8:	dfc00915 	stw	ra,36(sp)
    23fc:	df000815 	stw	fp,32(sp)
    2400:	ddc00715 	stw	r23,28(sp)
    2404:	dd800615 	stw	r22,24(sp)
    2408:	dd400515 	stw	r21,20(sp)
    240c:	dd000415 	stw	r20,16(sp)
    2410:	dcc00315 	stw	r19,12(sp)
    2414:	dc800215 	stw	r18,8(sp)
    2418:	3823883a 	mov	r17,r7
    241c:	dc000a17 	ldw	r16,40(sp)
    2420:	20001626 	beq	r4,zero,247c <kann_new_leaf_array+0x90>
    2424:	28001526 	beq	r5,zero,247c <kann_new_leaf_array+0x90>
    2428:	24800017 	ldw	r18,0(r4)
    242c:	90001416 	blt	r18,zero,2480 <kann_new_leaf_array+0x94>
    2430:	9485883a 	add	r2,r18,r18
    2434:	1085883a 	add	r2,r2,r2
    2438:	2885883a 	add	r2,r5,r2
    243c:	10800017 	ldw	r2,0(r2)
    2440:	10000f26 	beq	r2,zero,2480 <kann_new_leaf_array+0x94>
    2444:	94800044 	addi	r18,r18,1
    2448:	24800015 	stw	r18,0(r4)
    244c:	dfc00917 	ldw	ra,36(sp)
    2450:	df000817 	ldw	fp,32(sp)
    2454:	ddc00717 	ldw	r23,28(sp)
    2458:	dd800617 	ldw	r22,24(sp)
    245c:	dd400517 	ldw	r21,20(sp)
    2460:	dd000417 	ldw	r20,16(sp)
    2464:	dcc00317 	ldw	r19,12(sp)
    2468:	dc800217 	ldw	r18,8(sp)
    246c:	dc400117 	ldw	r17,4(sp)
    2470:	dc000017 	ldw	r16,0(sp)
    2474:	dec00a04 	addi	sp,sp,40
    2478:	f800283a 	ret
    247c:	04bfffc4 	movi	r18,-1
    2480:	05800044 	movi	r22,1
    2484:	2829883a 	mov	r20,r5
    2488:	2027883a 	mov	r19,r4
    248c:	01401004 	movi	r5,64
    2490:	b009883a 	mov	r4,r22
    2494:	302b883a 	mov	r21,r6
    2498:	00211ec0 	call	211ec <calloc>
    249c:	d9400b17 	ldw	r5,44(sp)
    24a0:	840d883a 	add	r6,r16,r16
    24a4:	318d883a 	add	r6,r6,r6
    24a8:	11000404 	addi	r4,r2,16
    24ac:	14000005 	stb	r16,0(r2)
    24b0:	15400045 	stb	r21,1(r2)
    24b4:	102f883a 	mov	r23,r2
    24b8:	0023cb40 	call	23cb4 <memcpy>
    24bc:	80803fcc 	andi	r2,r16,255
    24c0:	10004c26 	beq	r2,zero,25f4 <kann_new_leaf_array+0x208>
    24c4:	bf000417 	ldw	fp,16(r23)
    24c8:	15800a26 	beq	r2,r22,24f4 <kann_new_leaf_array+0x108>
    24cc:	b8c00517 	ldw	r3,20(r23)
    24d0:	e0f9383a 	mul	fp,fp,r3
    24d4:	00c00084 	movi	r3,2
    24d8:	10c00626 	beq	r2,r3,24f4 <kann_new_leaf_array+0x108>
    24dc:	b8c00617 	ldw	r3,24(r23)
    24e0:	e0f9383a 	mul	fp,fp,r3
    24e4:	00c000c4 	movi	r3,3
    24e8:	10c00226 	beq	r2,r3,24f4 <kann_new_leaf_array+0x108>
    24ec:	b8800717 	ldw	r2,28(r23)
    24f0:	e0b9383a 	mul	fp,fp,r2
    24f4:	01400104 	movi	r5,4
    24f8:	e009883a 	mov	r4,fp
    24fc:	00211ec0 	call	211ec <calloc>
    2500:	b8800a15 	stw	r2,40(r23)
    2504:	84003fcc 	andi	r16,r16,255
    2508:	00c00044 	movi	r3,1
    250c:	1c00322e 	bgeu	r3,r16,25d8 <kann_new_leaf_array+0x1ec>
    2510:	e009883a 	mov	r4,fp
    2514:	0020d600 	call	20d60 <__floatsidf>
    2518:	b9000417 	ldw	r4,16(r23)
    251c:	1023883a 	mov	r17,r2
    2520:	1821883a 	mov	r16,r3
    2524:	0020d600 	call	20d60 <__floatsidf>
    2528:	100d883a 	mov	r6,r2
    252c:	180f883a 	mov	r7,r3
    2530:	8809883a 	mov	r4,r17
    2534:	800b883a 	mov	r5,r16
    2538:	001f18c0 	call	1f18c <__divdf3>
    253c:	1009883a 	mov	r4,r2
    2540:	180b883a 	mov	r5,r3
    2544:	001a0f80 	call	1a0f8 <sqrt>
    2548:	100d883a 	mov	r6,r2
    254c:	180f883a 	mov	r7,r3
    2550:	0009883a 	mov	r4,zero
    2554:	014ffc34 	movhi	r5,16368
    2558:	001f18c0 	call	1f18c <__divdf3>
    255c:	102b883a 	mov	r21,r2
    2560:	182d883a 	mov	r22,r3
    2564:	0700120e 	bge	zero,fp,25b0 <kann_new_leaf_array+0x1c4>
    2568:	0023883a 	mov	r17,zero
    256c:	bc000a17 	ldw	r16,40(r23)
    2570:	8c47883a 	add	r3,r17,r17
    2574:	18c7883a 	add	r3,r3,r3
    2578:	0009883a 	mov	r4,zero
    257c:	80e1883a 	add	r16,r16,r3
    2580:	00184840 	call	18484 <kad_drand_normal>
    2584:	100d883a 	mov	r6,r2
    2588:	180f883a 	mov	r7,r3
    258c:	a809883a 	mov	r4,r21
    2590:	b00b883a 	mov	r5,r22
    2594:	001fccc0 	call	1fccc <__muldf3>
    2598:	1009883a 	mov	r4,r2
    259c:	180b883a 	mov	r5,r3
    25a0:	0020f4c0 	call	20f4c <__truncdfsf2>
    25a4:	80800015 	stw	r2,0(r16)
    25a8:	8c400044 	addi	r17,r17,1
    25ac:	8f3fef1e 	bne	r17,fp,256c <kann_new_leaf_array+0x180>
    25b0:	90000716 	blt	r18,zero,25d0 <kann_new_leaf_array+0x1e4>
    25b4:	98800017 	ldw	r2,0(r19)
    25b8:	94a5883a 	add	r18,r18,r18
    25bc:	94a5883a 	add	r18,r18,r18
    25c0:	a4a9883a 	add	r20,r20,r18
    25c4:	a5c00015 	stw	r23,0(r20)
    25c8:	10800044 	addi	r2,r2,1
    25cc:	98800015 	stw	r2,0(r19)
    25d0:	b805883a 	mov	r2,r23
    25d4:	003f9d06 	br	244c <kann_new_leaf_array+0x60>
    25d8:	073ff50e 	bge	zero,fp,25b0 <kann_new_leaf_array+0x1c4>
    25dc:	0007883a 	mov	r3,zero
    25e0:	14400015 	stw	r17,0(r2)
    25e4:	18c00044 	addi	r3,r3,1
    25e8:	10800104 	addi	r2,r2,4
    25ec:	1f3ffc16 	blt	r3,fp,25e0 <kann_new_leaf_array+0x1f4>
    25f0:	003fef06 	br	25b0 <kann_new_leaf_array+0x1c4>
    25f4:	01400104 	movi	r5,4
    25f8:	b009883a 	mov	r4,r22
    25fc:	00211ec0 	call	211ec <calloc>
    2600:	b8800a15 	stw	r2,40(r23)
    2604:	84003fcc 	andi	r16,r16,255
    2608:	b400202e 	bgeu	r22,r16,268c <kann_new_leaf_array+0x2a0>
    260c:	b9000417 	ldw	r4,16(r23)
    2610:	0020d600 	call	20d60 <__floatsidf>
    2614:	100d883a 	mov	r6,r2
    2618:	180f883a 	mov	r7,r3
    261c:	0009883a 	mov	r4,zero
    2620:	014ffc34 	movhi	r5,16368
    2624:	001f18c0 	call	1f18c <__divdf3>
    2628:	180b883a 	mov	r5,r3
    262c:	1009883a 	mov	r4,r2
    2630:	001a0f80 	call	1a0f8 <sqrt>
    2634:	0009883a 	mov	r4,zero
    2638:	1039883a 	mov	fp,r2
    263c:	182d883a 	mov	r22,r3
    2640:	bc000a17 	ldw	r16,40(r23)
    2644:	00184840 	call	18484 <kad_drand_normal>
    2648:	e00d883a 	mov	r6,fp
    264c:	b00f883a 	mov	r7,r22
    2650:	0009883a 	mov	r4,zero
    2654:	014ffc34 	movhi	r5,16368
    2658:	102b883a 	mov	r21,r2
    265c:	1823883a 	mov	r17,r3
    2660:	001f18c0 	call	1f18c <__divdf3>
    2664:	a80d883a 	mov	r6,r21
    2668:	880f883a 	mov	r7,r17
    266c:	1009883a 	mov	r4,r2
    2670:	180b883a 	mov	r5,r3
    2674:	001fccc0 	call	1fccc <__muldf3>
    2678:	1009883a 	mov	r4,r2
    267c:	180b883a 	mov	r5,r3
    2680:	0020f4c0 	call	20f4c <__truncdfsf2>
    2684:	80800015 	stw	r2,0(r16)
    2688:	003fc906 	br	25b0 <kann_new_leaf_array+0x1c4>
    268c:	b039883a 	mov	fp,r22
    2690:	003fd206 	br	25dc <kann_new_leaf_array+0x1f0>

00002694 <kann_new_leaf2>:
    2694:	defff204 	addi	sp,sp,-56
    2698:	dc000415 	stw	r16,16(sp)
    269c:	dc000e17 	ldw	r16,56(sp)
    26a0:	dc400515 	stw	r17,20(sp)
    26a4:	dfc00d15 	stw	ra,52(sp)
    26a8:	df000c15 	stw	fp,48(sp)
    26ac:	ddc00b15 	stw	r23,44(sp)
    26b0:	dd800a15 	stw	r22,40(sp)
    26b4:	dd400915 	stw	r21,36(sp)
    26b8:	dd000815 	stw	r20,32(sp)
    26bc:	dcc00715 	stw	r19,28(sp)
    26c0:	dc800615 	stw	r18,24(sp)
    26c4:	3823883a 	mov	r17,r7
    26c8:	04000e0e 	bge	zero,r16,2704 <kann_new_leaf2+0x70>
    26cc:	d8800f17 	ldw	r2,60(sp)
    26d0:	d8800015 	stw	r2,0(sp)
    26d4:	00800044 	movi	r2,1
    26d8:	80800a26 	beq	r16,r2,2704 <kann_new_leaf2+0x70>
    26dc:	d8801017 	ldw	r2,64(sp)
    26e0:	d8800115 	stw	r2,4(sp)
    26e4:	00800084 	movi	r2,2
    26e8:	80800626 	beq	r16,r2,2704 <kann_new_leaf2+0x70>
    26ec:	d8801117 	ldw	r2,68(sp)
    26f0:	d8800215 	stw	r2,8(sp)
    26f4:	008000c4 	movi	r2,3
    26f8:	80800226 	beq	r16,r2,2704 <kann_new_leaf2+0x70>
    26fc:	d8801217 	ldw	r2,72(sp)
    2700:	d8800315 	stw	r2,12(sp)
    2704:	20001626 	beq	r4,zero,2760 <kann_new_leaf2+0xcc>
    2708:	28001526 	beq	r5,zero,2760 <kann_new_leaf2+0xcc>
    270c:	24800017 	ldw	r18,0(r4)
    2710:	90001416 	blt	r18,zero,2764 <kann_new_leaf2+0xd0>
    2714:	9485883a 	add	r2,r18,r18
    2718:	1085883a 	add	r2,r2,r2
    271c:	2885883a 	add	r2,r5,r2
    2720:	10800017 	ldw	r2,0(r2)
    2724:	10000f26 	beq	r2,zero,2764 <kann_new_leaf2+0xd0>
    2728:	94800044 	addi	r18,r18,1
    272c:	24800015 	stw	r18,0(r4)
    2730:	dfc00d17 	ldw	ra,52(sp)
    2734:	df000c17 	ldw	fp,48(sp)
    2738:	ddc00b17 	ldw	r23,44(sp)
    273c:	dd800a17 	ldw	r22,40(sp)
    2740:	dd400917 	ldw	r21,36(sp)
    2744:	dd000817 	ldw	r20,32(sp)
    2748:	dcc00717 	ldw	r19,28(sp)
    274c:	dc800617 	ldw	r18,24(sp)
    2750:	dc400517 	ldw	r17,20(sp)
    2754:	dc000417 	ldw	r16,16(sp)
    2758:	dec00e04 	addi	sp,sp,56
    275c:	f800283a 	ret
    2760:	04bfffc4 	movi	r18,-1
    2764:	05800044 	movi	r22,1
    2768:	2829883a 	mov	r20,r5
    276c:	2027883a 	mov	r19,r4
    2770:	01401004 	movi	r5,64
    2774:	b009883a 	mov	r4,r22
    2778:	302b883a 	mov	r21,r6
    277c:	00211ec0 	call	211ec <calloc>
    2780:	840d883a 	add	r6,r16,r16
    2784:	318d883a 	add	r6,r6,r6
    2788:	d80b883a 	mov	r5,sp
    278c:	11000404 	addi	r4,r2,16
    2790:	14000005 	stb	r16,0(r2)
    2794:	15400045 	stb	r21,1(r2)
    2798:	102f883a 	mov	r23,r2
    279c:	0023cb40 	call	23cb4 <memcpy>
    27a0:	80803fcc 	andi	r2,r16,255
    27a4:	10004c26 	beq	r2,zero,28d8 <kann_new_leaf2+0x244>
    27a8:	bf000417 	ldw	fp,16(r23)
    27ac:	15800a26 	beq	r2,r22,27d8 <kann_new_leaf2+0x144>
    27b0:	b8c00517 	ldw	r3,20(r23)
    27b4:	e0f9383a 	mul	fp,fp,r3
    27b8:	00c00084 	movi	r3,2
    27bc:	10c00626 	beq	r2,r3,27d8 <kann_new_leaf2+0x144>
    27c0:	b8c00617 	ldw	r3,24(r23)
    27c4:	e0f9383a 	mul	fp,fp,r3
    27c8:	00c000c4 	movi	r3,3
    27cc:	10c00226 	beq	r2,r3,27d8 <kann_new_leaf2+0x144>
    27d0:	b8800717 	ldw	r2,28(r23)
    27d4:	e0b9383a 	mul	fp,fp,r2
    27d8:	01400104 	movi	r5,4
    27dc:	e009883a 	mov	r4,fp
    27e0:	00211ec0 	call	211ec <calloc>
    27e4:	b8800a15 	stw	r2,40(r23)
    27e8:	84003fcc 	andi	r16,r16,255
    27ec:	00c00044 	movi	r3,1
    27f0:	1c00322e 	bgeu	r3,r16,28bc <kann_new_leaf2+0x228>
    27f4:	e009883a 	mov	r4,fp
    27f8:	0020d600 	call	20d60 <__floatsidf>
    27fc:	b9000417 	ldw	r4,16(r23)
    2800:	1023883a 	mov	r17,r2
    2804:	1821883a 	mov	r16,r3
    2808:	0020d600 	call	20d60 <__floatsidf>
    280c:	100d883a 	mov	r6,r2
    2810:	180f883a 	mov	r7,r3
    2814:	8809883a 	mov	r4,r17
    2818:	800b883a 	mov	r5,r16
    281c:	001f18c0 	call	1f18c <__divdf3>
    2820:	1009883a 	mov	r4,r2
    2824:	180b883a 	mov	r5,r3
    2828:	001a0f80 	call	1a0f8 <sqrt>
    282c:	100d883a 	mov	r6,r2
    2830:	180f883a 	mov	r7,r3
    2834:	0009883a 	mov	r4,zero
    2838:	014ffc34 	movhi	r5,16368
    283c:	001f18c0 	call	1f18c <__divdf3>
    2840:	102b883a 	mov	r21,r2
    2844:	182d883a 	mov	r22,r3
    2848:	0700120e 	bge	zero,fp,2894 <kann_new_leaf2+0x200>
    284c:	0023883a 	mov	r17,zero
    2850:	bc000a17 	ldw	r16,40(r23)
    2854:	8c47883a 	add	r3,r17,r17
    2858:	18c7883a 	add	r3,r3,r3
    285c:	0009883a 	mov	r4,zero
    2860:	80e1883a 	add	r16,r16,r3
    2864:	00184840 	call	18484 <kad_drand_normal>
    2868:	100d883a 	mov	r6,r2
    286c:	180f883a 	mov	r7,r3
    2870:	a809883a 	mov	r4,r21
    2874:	b00b883a 	mov	r5,r22
    2878:	001fccc0 	call	1fccc <__muldf3>
    287c:	1009883a 	mov	r4,r2
    2880:	180b883a 	mov	r5,r3
    2884:	0020f4c0 	call	20f4c <__truncdfsf2>
    2888:	80800015 	stw	r2,0(r16)
    288c:	8c400044 	addi	r17,r17,1
    2890:	8f3fef1e 	bne	r17,fp,2850 <kann_new_leaf2+0x1bc>
    2894:	90000716 	blt	r18,zero,28b4 <kann_new_leaf2+0x220>
    2898:	98800017 	ldw	r2,0(r19)
    289c:	94a5883a 	add	r18,r18,r18
    28a0:	94a5883a 	add	r18,r18,r18
    28a4:	a4a9883a 	add	r20,r20,r18
    28a8:	a5c00015 	stw	r23,0(r20)
    28ac:	10800044 	addi	r2,r2,1
    28b0:	98800015 	stw	r2,0(r19)
    28b4:	b805883a 	mov	r2,r23
    28b8:	003f9d06 	br	2730 <kann_new_leaf2+0x9c>
    28bc:	073ff50e 	bge	zero,fp,2894 <kann_new_leaf2+0x200>
    28c0:	0007883a 	mov	r3,zero
    28c4:	14400015 	stw	r17,0(r2)
    28c8:	18c00044 	addi	r3,r3,1
    28cc:	10800104 	addi	r2,r2,4
    28d0:	1f3ffc16 	blt	r3,fp,28c4 <kann_new_leaf2+0x230>
    28d4:	003fef06 	br	2894 <kann_new_leaf2+0x200>
    28d8:	01400104 	movi	r5,4
    28dc:	b009883a 	mov	r4,r22
    28e0:	00211ec0 	call	211ec <calloc>
    28e4:	b8800a15 	stw	r2,40(r23)
    28e8:	84003fcc 	andi	r16,r16,255
    28ec:	b400202e 	bgeu	r22,r16,2970 <kann_new_leaf2+0x2dc>
    28f0:	b9000417 	ldw	r4,16(r23)
    28f4:	0020d600 	call	20d60 <__floatsidf>
    28f8:	100d883a 	mov	r6,r2
    28fc:	180f883a 	mov	r7,r3
    2900:	0009883a 	mov	r4,zero
    2904:	014ffc34 	movhi	r5,16368
    2908:	001f18c0 	call	1f18c <__divdf3>
    290c:	180b883a 	mov	r5,r3
    2910:	1009883a 	mov	r4,r2
    2914:	001a0f80 	call	1a0f8 <sqrt>
    2918:	0009883a 	mov	r4,zero
    291c:	1039883a 	mov	fp,r2
    2920:	182d883a 	mov	r22,r3
    2924:	bc000a17 	ldw	r16,40(r23)
    2928:	00184840 	call	18484 <kad_drand_normal>
    292c:	e00d883a 	mov	r6,fp
    2930:	b00f883a 	mov	r7,r22
    2934:	0009883a 	mov	r4,zero
    2938:	014ffc34 	movhi	r5,16368
    293c:	102b883a 	mov	r21,r2
    2940:	1823883a 	mov	r17,r3
    2944:	001f18c0 	call	1f18c <__divdf3>
    2948:	a80d883a 	mov	r6,r21
    294c:	880f883a 	mov	r7,r17
    2950:	1009883a 	mov	r4,r2
    2954:	180b883a 	mov	r5,r3
    2958:	001fccc0 	call	1fccc <__muldf3>
    295c:	1009883a 	mov	r4,r2
    2960:	180b883a 	mov	r5,r3
    2964:	0020f4c0 	call	20f4c <__truncdfsf2>
    2968:	80800015 	stw	r2,0(r16)
    296c:	003fc906 	br	2894 <kann_new_leaf2+0x200>
    2970:	b039883a 	mov	fp,r22
    2974:	003fd206 	br	28c0 <kann_new_leaf2+0x22c>

00002978 <kann_layer_dense2>:
    2978:	defff604 	addi	sp,sp,-40
    297c:	dd000715 	stw	r20,28(sp)
    2980:	dcc00615 	stw	r19,24(sp)
    2984:	dc800515 	stw	r18,20(sp)
    2988:	dc000315 	stw	r16,12(sp)
    298c:	dfc00915 	stw	ra,36(sp)
    2990:	dd400815 	stw	r21,32(sp)
    2994:	dc400415 	stw	r17,16(sp)
    2998:	30c00003 	ldbu	r3,0(r6)
    299c:	00800044 	movi	r2,1
    29a0:	3021883a 	mov	r16,r6
    29a4:	2025883a 	mov	r18,r4
    29a8:	2827883a 	mov	r19,r5
    29ac:	3829883a 	mov	r20,r7
    29b0:	10c0372e 	bgeu	r2,r3,2a90 <kann_layer_dense2+0x118>
    29b4:	31000517 	ldw	r4,20(r6)
    29b8:	31400417 	ldw	r5,16(r6)
    29bc:	00800084 	movi	r2,2
    29c0:	2149383a 	mul	r4,r4,r5
    29c4:	18800626 	beq	r3,r2,29e0 <kann_layer_dense2+0x68>
    29c8:	30800617 	ldw	r2,24(r6)
    29cc:	2089383a 	mul	r4,r4,r2
    29d0:	008000c4 	movi	r2,3
    29d4:	18800226 	beq	r3,r2,29e0 <kann_layer_dense2+0x68>
    29d8:	30800717 	ldw	r2,28(r6)
    29dc:	2089383a 	mul	r4,r4,r2
    29e0:	2144b03a 	or	r2,r4,r5
    29e4:	00c003c4 	movi	r3,15
    29e8:	18802736 	bltu	r3,r2,2a88 <kann_layer_dense2+0x110>
    29ec:	2008913a 	slli	r4,r4,4
    29f0:	2148b03a 	or	r4,r4,r5
    29f4:	014000f4 	movhi	r5,3
    29f8:	29552c04 	addi	r5,r5,21680
    29fc:	2149883a 	add	r4,r4,r5
    2a00:	20800003 	ldbu	r2,0(r4)
    2a04:	04400044 	movi	r17,1
    2a08:	d8800215 	stw	r2,8(sp)
    2a0c:	00800084 	movi	r2,2
    2a10:	880d883a 	mov	r6,r17
    2a14:	980b883a 	mov	r5,r19
    2a18:	9009883a 	mov	r4,r18
    2a1c:	000f883a 	mov	r7,zero
    2a20:	dd000115 	stw	r20,4(sp)
    2a24:	d8800015 	stw	r2,0(sp)
    2a28:	0000b640 	call	b64 <kann_new_leaf2.constprop.10>
    2a2c:	880d883a 	mov	r6,r17
    2a30:	000f883a 	mov	r7,zero
    2a34:	dc400015 	stw	r17,0(sp)
    2a38:	980b883a 	mov	r5,r19
    2a3c:	9009883a 	mov	r4,r18
    2a40:	dd000115 	stw	r20,4(sp)
    2a44:	102b883a 	mov	r21,r2
    2a48:	0000b640 	call	b64 <kann_new_leaf2.constprop.10>
    2a4c:	a80b883a 	mov	r5,r21
    2a50:	8009883a 	mov	r4,r16
    2a54:	1023883a 	mov	r17,r2
    2a58:	0011f100 	call	11f10 <kad_cmul>
    2a5c:	880b883a 	mov	r5,r17
    2a60:	1009883a 	mov	r4,r2
    2a64:	dfc00917 	ldw	ra,36(sp)
    2a68:	dd400817 	ldw	r21,32(sp)
    2a6c:	dd000717 	ldw	r20,28(sp)
    2a70:	dcc00617 	ldw	r19,24(sp)
    2a74:	dc800517 	ldw	r18,20(sp)
    2a78:	dc400417 	ldw	r17,16(sp)
    2a7c:	dc000317 	ldw	r16,12(sp)
    2a80:	dec00a04 	addi	sp,sp,40
    2a84:	0011be41 	jmpi	11be4 <kad_add>
    2a88:	001d1b40 	call	1d1b4 <__divsi3>
    2a8c:	003fdd06 	br	2a04 <kann_layer_dense2+0x8c>
    2a90:	18bfdc1e 	bne	r3,r2,2a04 <kann_layer_dense2+0x8c>
    2a94:	30800417 	ldw	r2,16(r6)
    2a98:	003fda06 	br	2a04 <kann_layer_dense2+0x8c>

00002a9c <kann_layer_dropout2>:
    2a9c:	defffa04 	addi	sp,sp,-24
    2aa0:	dc000315 	stw	r16,12(sp)
    2aa4:	04000084 	movi	r16,2
    2aa8:	dc400415 	stw	r17,16(sp)
    2aac:	d8000015 	stw	zero,0(sp)
    2ab0:	3023883a 	mov	r17,r6
    2ab4:	800d883a 	mov	r6,r16
    2ab8:	dfc00515 	stw	ra,20(sp)
    2abc:	000079c0 	call	79c <kann_new_leaf2.constprop.11>
    2ac0:	8809883a 	mov	r4,r17
    2ac4:	100b883a 	mov	r5,r2
    2ac8:	dc400115 	stw	r17,4(sp)
    2acc:	00142f00 	call	142f0 <kad_dropout>
    2ad0:	d9400104 	addi	r5,sp,4
    2ad4:	8009883a 	mov	r4,r16
    2ad8:	d8800215 	stw	r2,8(sp)
    2adc:	00150a00 	call	150a0 <kad_switch>
    2ae0:	dfc00517 	ldw	ra,20(sp)
    2ae4:	dc400417 	ldw	r17,16(sp)
    2ae8:	dc000317 	ldw	r16,12(sp)
    2aec:	dec00604 	addi	sp,sp,24
    2af0:	f800283a 	ret

00002af4 <kann_layer_layernorm2>:
    2af4:	defff704 	addi	sp,sp,-36
    2af8:	dd000615 	stw	r20,24(sp)
    2afc:	dcc00515 	stw	r19,20(sp)
    2b00:	dc400315 	stw	r17,12(sp)
    2b04:	dc000215 	stw	r16,8(sp)
    2b08:	dfc00815 	stw	ra,32(sp)
    2b0c:	dd400715 	stw	r21,28(sp)
    2b10:	dc800415 	stw	r18,16(sp)
    2b14:	30800003 	ldbu	r2,0(r6)
    2b18:	04400044 	movi	r17,1
    2b1c:	3021883a 	mov	r16,r6
    2b20:	2027883a 	mov	r19,r4
    2b24:	2829883a 	mov	r20,r5
    2b28:	8880382e 	bgeu	r17,r2,2c0c <kann_layer_layernorm2+0x118>
    2b2c:	31000517 	ldw	r4,20(r6)
    2b30:	31400417 	ldw	r5,16(r6)
    2b34:	00c00084 	movi	r3,2
    2b38:	2149383a 	mul	r4,r4,r5
    2b3c:	10c00626 	beq	r2,r3,2b58 <kann_layer_layernorm2+0x64>
    2b40:	30c00617 	ldw	r3,24(r6)
    2b44:	20c9383a 	mul	r4,r4,r3
    2b48:	00c000c4 	movi	r3,3
    2b4c:	10c00226 	beq	r2,r3,2b58 <kann_layer_layernorm2+0x64>
    2b50:	30800717 	ldw	r2,28(r6)
    2b54:	2089383a 	mul	r4,r4,r2
    2b58:	2144b03a 	or	r2,r4,r5
    2b5c:	00c003c4 	movi	r3,15
    2b60:	18802736 	bltu	r3,r2,2c00 <kann_layer_layernorm2+0x10c>
    2b64:	2008913a 	slli	r4,r4,4
    2b68:	2148b03a 	or	r4,r4,r5
    2b6c:	014000f4 	movhi	r5,3
    2b70:	29552c04 	addi	r5,r5,21680
    2b74:	2149883a 	add	r4,r4,r5
    2b78:	24400003 	ldbu	r17,0(r4)
    2b7c:	04800044 	movi	r18,1
    2b80:	900d883a 	mov	r6,r18
    2b84:	a00b883a 	mov	r5,r20
    2b88:	9809883a 	mov	r4,r19
    2b8c:	dc400115 	stw	r17,4(sp)
    2b90:	01cfe034 	movhi	r7,16256
    2b94:	dc800015 	stw	r18,0(sp)
    2b98:	0000b640 	call	b64 <kann_new_leaf2.constprop.10>
    2b9c:	000f883a 	mov	r7,zero
    2ba0:	900d883a 	mov	r6,r18
    2ba4:	a00b883a 	mov	r5,r20
    2ba8:	dc400115 	stw	r17,4(sp)
    2bac:	9809883a 	mov	r4,r19
    2bb0:	dc800015 	stw	r18,0(sp)
    2bb4:	102b883a 	mov	r21,r2
    2bb8:	0000b640 	call	b64 <kann_new_leaf2.constprop.10>
    2bbc:	8009883a 	mov	r4,r16
    2bc0:	1023883a 	mov	r17,r2
    2bc4:	0012e7c0 	call	12e7c <kad_stdnorm>
    2bc8:	a80b883a 	mov	r5,r21
    2bcc:	1009883a 	mov	r4,r2
    2bd0:	0011e040 	call	11e04 <kad_mul>
    2bd4:	880b883a 	mov	r5,r17
    2bd8:	1009883a 	mov	r4,r2
    2bdc:	dfc00817 	ldw	ra,32(sp)
    2be0:	dd400717 	ldw	r21,28(sp)
    2be4:	dd000617 	ldw	r20,24(sp)
    2be8:	dcc00517 	ldw	r19,20(sp)
    2bec:	dc800417 	ldw	r18,16(sp)
    2bf0:	dc400317 	ldw	r17,12(sp)
    2bf4:	dc000217 	ldw	r16,8(sp)
    2bf8:	dec00904 	addi	sp,sp,36
    2bfc:	0011be41 	jmpi	11be4 <kad_add>
    2c00:	001d1b40 	call	1d1b4 <__divsi3>
    2c04:	1023883a 	mov	r17,r2
    2c08:	003fdc06 	br	2b7c <kann_layer_layernorm2+0x88>
    2c0c:	147fdb1e 	bne	r2,r17,2b7c <kann_layer_layernorm2+0x88>
    2c10:	34400417 	ldw	r17,16(r6)
    2c14:	003fd906 	br	2b7c <kann_layer_layernorm2+0x88>

00002c18 <kann_layer_rnn2>:
    2c18:	defff104 	addi	sp,sp,-60
    2c1c:	dfc00e15 	stw	ra,56(sp)
    2c20:	df000d15 	stw	fp,52(sp)
    2c24:	ddc00c15 	stw	r23,48(sp)
    2c28:	dd800b15 	stw	r22,44(sp)
    2c2c:	dd400a15 	stw	r21,40(sp)
    2c30:	dd000915 	stw	r20,36(sp)
    2c34:	dcc00815 	stw	r19,32(sp)
    2c38:	dc800715 	stw	r18,28(sp)
    2c3c:	dc400615 	stw	r17,24(sp)
    2c40:	dc000515 	stw	r16,20(sp)
    2c44:	38800003 	ldbu	r2,0(r7)
    2c48:	04000044 	movi	r16,1
    2c4c:	05800084 	movi	r22,2
    2c50:	108000c4 	addi	r2,r2,3
    2c54:	1085883a 	add	r2,r2,r2
    2c58:	1085883a 	add	r2,r2,r2
    2c5c:	3885883a 	add	r2,r7,r2
    2c60:	14c00017 	ldw	r19,0(r2)
    2c64:	3823883a 	mov	r17,r7
    2c68:	302f883a 	mov	r23,r6
    2c6c:	000f883a 	mov	r7,zero
    2c70:	800d883a 	mov	r6,r16
    2c74:	dcc00215 	stw	r19,8(sp)
    2c78:	dcc00115 	stw	r19,4(sp)
    2c7c:	dd800015 	stw	r22,0(sp)
    2c80:	2029883a 	mov	r20,r4
    2c84:	282b883a 	mov	r21,r5
    2c88:	dc800f17 	ldw	r18,60(sp)
    2c8c:	0000b640 	call	b64 <kann_new_leaf2.constprop.10>
    2c90:	a80b883a 	mov	r5,r21
    2c94:	a009883a 	mov	r4,r20
    2c98:	dcc00115 	stw	r19,4(sp)
    2c9c:	dc000015 	stw	r16,0(sp)
    2ca0:	000f883a 	mov	r7,zero
    2ca4:	800d883a 	mov	r6,r16
    2ca8:	1039883a 	mov	fp,r2
    2cac:	0000b640 	call	b64 <kann_new_leaf2.constprop.10>
    2cb0:	95a4703a 	and	r18,r18,r22
    2cb4:	d8800315 	stw	r2,12(sp)
    2cb8:	e00b883a 	mov	r5,fp
    2cbc:	8809883a 	mov	r4,r17
    2cc0:	9000401e 	bne	r18,zero,2dc4 <kann_layer_rnn2+0x1ac>
    2cc4:	0011f100 	call	11f10 <kad_cmul>
    2cc8:	1021883a 	mov	r16,r2
    2ccc:	b8002926 	beq	r23,zero,2d74 <kann_layer_rnn2+0x15c>
    2cd0:	b9800003 	ldbu	r6,0(r23)
    2cd4:	00800044 	movi	r2,1
    2cd8:	11809f2e 	bgeu	r2,r6,2f58 <kann_layer_rnn2+0x340>
    2cdc:	b9400417 	ldw	r5,16(r23)
    2ce0:	b9000517 	ldw	r4,20(r23)
    2ce4:	00800084 	movi	r2,2
    2ce8:	2909383a 	mul	r4,r5,r4
    2cec:	30800626 	beq	r6,r2,2d08 <kann_layer_rnn2+0xf0>
    2cf0:	b8800617 	ldw	r2,24(r23)
    2cf4:	2089383a 	mul	r4,r4,r2
    2cf8:	008000c4 	movi	r2,3
    2cfc:	30800226 	beq	r6,r2,2d08 <kann_layer_rnn2+0xf0>
    2d00:	b8800717 	ldw	r2,28(r23)
    2d04:	2089383a 	mul	r4,r4,r2
    2d08:	2144b03a 	or	r2,r4,r5
    2d0c:	018003c4 	movi	r6,15
    2d10:	30802a36 	bltu	r6,r2,2dbc <kann_layer_rnn2+0x1a4>
    2d14:	2008913a 	slli	r4,r4,4
    2d18:	2148b03a 	or	r4,r4,r5
    2d1c:	014000f4 	movhi	r5,3
    2d20:	29552c04 	addi	r5,r5,21680
    2d24:	2149883a 	add	r4,r4,r5
    2d28:	20800003 	ldbu	r2,0(r4)
    2d2c:	05800044 	movi	r22,1
    2d30:	07000084 	movi	fp,2
    2d34:	a80b883a 	mov	r5,r21
    2d38:	a009883a 	mov	r4,r20
    2d3c:	d8800215 	stw	r2,8(sp)
    2d40:	dcc00115 	stw	r19,4(sp)
    2d44:	df000015 	stw	fp,0(sp)
    2d48:	000f883a 	mov	r7,zero
    2d4c:	b00d883a 	mov	r6,r22
    2d50:	0000b640 	call	b64 <kann_new_leaf2.constprop.10>
    2d54:	100b883a 	mov	r5,r2
    2d58:	b809883a 	mov	r4,r23
    2d5c:	90004c1e 	bne	r18,zero,2e90 <kann_layer_rnn2+0x278>
    2d60:	0011f100 	call	11f10 <kad_cmul>
    2d64:	1009883a 	mov	r4,r2
    2d68:	800b883a 	mov	r5,r16
    2d6c:	0011be40 	call	11be4 <kad_add>
    2d70:	1021883a 	mov	r16,r2
    2d74:	d9400317 	ldw	r5,12(sp)
    2d78:	8009883a 	mov	r4,r16
    2d7c:	0011be40 	call	11be4 <kad_add>
    2d80:	1009883a 	mov	r4,r2
    2d84:	0012a6c0 	call	12a6c <kad_tanh>
    2d88:	14400f15 	stw	r17,60(r2)
    2d8c:	dfc00e17 	ldw	ra,56(sp)
    2d90:	df000d17 	ldw	fp,52(sp)
    2d94:	ddc00c17 	ldw	r23,48(sp)
    2d98:	dd800b17 	ldw	r22,44(sp)
    2d9c:	dd400a17 	ldw	r21,40(sp)
    2da0:	dd000917 	ldw	r20,36(sp)
    2da4:	dcc00817 	ldw	r19,32(sp)
    2da8:	dc800717 	ldw	r18,28(sp)
    2dac:	dc400617 	ldw	r17,24(sp)
    2db0:	dc000517 	ldw	r16,20(sp)
    2db4:	dec00f04 	addi	sp,sp,60
    2db8:	f800283a 	ret
    2dbc:	001d1b40 	call	1d1b4 <__divsi3>
    2dc0:	003fda06 	br	2d2c <kann_layer_rnn2+0x114>
    2dc4:	0011f100 	call	11f10 <kad_cmul>
    2dc8:	1039883a 	mov	fp,r2
    2dcc:	10800003 	ldbu	r2,0(r2)
    2dd0:	80806a2e 	bgeu	r16,r2,2f7c <kann_layer_rnn2+0x364>
    2dd4:	e1400417 	ldw	r5,16(fp)
    2dd8:	e1000517 	ldw	r4,20(fp)
    2ddc:	2909383a 	mul	r4,r5,r4
    2de0:	15800626 	beq	r2,r22,2dfc <kann_layer_rnn2+0x1e4>
    2de4:	e1800617 	ldw	r6,24(fp)
    2de8:	2189383a 	mul	r4,r4,r6
    2dec:	018000c4 	movi	r6,3
    2df0:	11800226 	beq	r2,r6,2dfc <kann_layer_rnn2+0x1e4>
    2df4:	e0800717 	ldw	r2,28(fp)
    2df8:	2089383a 	mul	r4,r4,r2
    2dfc:	2144b03a 	or	r2,r4,r5
    2e00:	018003c4 	movi	r6,15
    2e04:	30805736 	bltu	r6,r2,2f64 <kann_layer_rnn2+0x34c>
    2e08:	2008913a 	slli	r4,r4,4
    2e0c:	2148b03a 	or	r4,r4,r5
    2e10:	014000f4 	movhi	r5,3
    2e14:	29552c04 	addi	r5,r5,21680
    2e18:	2149883a 	add	r4,r4,r5
    2e1c:	24000003 	ldbu	r16,0(r4)
    2e20:	05800044 	movi	r22,1
    2e24:	01cfe034 	movhi	r7,16256
    2e28:	b00d883a 	mov	r6,r22
    2e2c:	a80b883a 	mov	r5,r21
    2e30:	a009883a 	mov	r4,r20
    2e34:	dc000115 	stw	r16,4(sp)
    2e38:	dd800015 	stw	r22,0(sp)
    2e3c:	0000b640 	call	b64 <kann_new_leaf2.constprop.10>
    2e40:	000f883a 	mov	r7,zero
    2e44:	b00d883a 	mov	r6,r22
    2e48:	a80b883a 	mov	r5,r21
    2e4c:	dc000115 	stw	r16,4(sp)
    2e50:	a009883a 	mov	r4,r20
    2e54:	dd800015 	stw	r22,0(sp)
    2e58:	d8800415 	stw	r2,16(sp)
    2e5c:	0000b640 	call	b64 <kann_new_leaf2.constprop.10>
    2e60:	e009883a 	mov	r4,fp
    2e64:	1021883a 	mov	r16,r2
    2e68:	0012e7c0 	call	12e7c <kad_stdnorm>
    2e6c:	da000417 	ldw	r8,16(sp)
    2e70:	1009883a 	mov	r4,r2
    2e74:	400b883a 	mov	r5,r8
    2e78:	0011e040 	call	11e04 <kad_mul>
    2e7c:	800b883a 	mov	r5,r16
    2e80:	1009883a 	mov	r4,r2
    2e84:	0011be40 	call	11be4 <kad_add>
    2e88:	1021883a 	mov	r16,r2
    2e8c:	003f8f06 	br	2ccc <kann_layer_rnn2+0xb4>
    2e90:	0011f100 	call	11f10 <kad_cmul>
    2e94:	1025883a 	mov	r18,r2
    2e98:	10800003 	ldbu	r2,0(r2)
    2e9c:	b0803a2e 	bgeu	r22,r2,2f88 <kann_layer_rnn2+0x370>
    2ea0:	91000517 	ldw	r4,20(r18)
    2ea4:	91400417 	ldw	r5,16(r18)
    2ea8:	2149383a 	mul	r4,r4,r5
    2eac:	17000626 	beq	r2,fp,2ec8 <kann_layer_rnn2+0x2b0>
    2eb0:	90c00617 	ldw	r3,24(r18)
    2eb4:	20c9383a 	mul	r4,r4,r3
    2eb8:	00c000c4 	movi	r3,3
    2ebc:	10c00226 	beq	r2,r3,2ec8 <kann_layer_rnn2+0x2b0>
    2ec0:	90800717 	ldw	r2,28(r18)
    2ec4:	2089383a 	mul	r4,r4,r2
    2ec8:	2144b03a 	or	r2,r4,r5
    2ecc:	00c003c4 	movi	r3,15
    2ed0:	18802736 	bltu	r3,r2,2f70 <kann_layer_rnn2+0x358>
    2ed4:	2008913a 	slli	r4,r4,4
    2ed8:	2148b03a 	or	r4,r4,r5
    2edc:	014000f4 	movhi	r5,3
    2ee0:	29552c04 	addi	r5,r5,21680
    2ee4:	2149883a 	add	r4,r4,r5
    2ee8:	25800003 	ldbu	r22,0(r4)
    2eec:	04c00044 	movi	r19,1
    2ef0:	980d883a 	mov	r6,r19
    2ef4:	01cfe034 	movhi	r7,16256
    2ef8:	a80b883a 	mov	r5,r21
    2efc:	a009883a 	mov	r4,r20
    2f00:	dcc00015 	stw	r19,0(sp)
    2f04:	dd800115 	stw	r22,4(sp)
    2f08:	0000b640 	call	b64 <kann_new_leaf2.constprop.10>
    2f0c:	980d883a 	mov	r6,r19
    2f10:	000f883a 	mov	r7,zero
    2f14:	a80b883a 	mov	r5,r21
    2f18:	dcc00015 	stw	r19,0(sp)
    2f1c:	a009883a 	mov	r4,r20
    2f20:	dd800115 	stw	r22,4(sp)
    2f24:	1039883a 	mov	fp,r2
    2f28:	0000b640 	call	b64 <kann_new_leaf2.constprop.10>
    2f2c:	9009883a 	mov	r4,r18
    2f30:	1027883a 	mov	r19,r2
    2f34:	0012e7c0 	call	12e7c <kad_stdnorm>
    2f38:	e00b883a 	mov	r5,fp
    2f3c:	1009883a 	mov	r4,r2
    2f40:	0011e040 	call	11e04 <kad_mul>
    2f44:	1009883a 	mov	r4,r2
    2f48:	980b883a 	mov	r5,r19
    2f4c:	0011be40 	call	11be4 <kad_add>
    2f50:	1009883a 	mov	r4,r2
    2f54:	003f8406 	br	2d68 <kann_layer_rnn2+0x150>
    2f58:	30bf741e 	bne	r6,r2,2d2c <kann_layer_rnn2+0x114>
    2f5c:	b8800417 	ldw	r2,16(r23)
    2f60:	003f7206 	br	2d2c <kann_layer_rnn2+0x114>
    2f64:	001d1b40 	call	1d1b4 <__divsi3>
    2f68:	1021883a 	mov	r16,r2
    2f6c:	003fac06 	br	2e20 <kann_layer_rnn2+0x208>
    2f70:	001d1b40 	call	1d1b4 <__divsi3>
    2f74:	102d883a 	mov	r22,r2
    2f78:	003fdc06 	br	2eec <kann_layer_rnn2+0x2d4>
    2f7c:	143fa81e 	bne	r2,r16,2e20 <kann_layer_rnn2+0x208>
    2f80:	e4000417 	ldw	r16,16(fp)
    2f84:	003fa606 	br	2e20 <kann_layer_rnn2+0x208>
    2f88:	15bfd81e 	bne	r2,r22,2eec <kann_layer_rnn2+0x2d4>
    2f8c:	95800417 	ldw	r22,16(r18)
    2f90:	003fd606 	br	2eec <kann_layer_rnn2+0x2d4>

00002f94 <kann_layer_gru2>:
    2f94:	deffee04 	addi	sp,sp,-72
    2f98:	dd400d15 	stw	r21,52(sp)
    2f9c:	dd000c15 	stw	r20,48(sp)
    2fa0:	dcc00b15 	stw	r19,44(sp)
    2fa4:	dc800a15 	stw	r18,40(sp)
    2fa8:	dc400915 	stw	r17,36(sp)
    2fac:	dc000815 	stw	r16,32(sp)
    2fb0:	dfc01115 	stw	ra,68(sp)
    2fb4:	df001015 	stw	fp,64(sp)
    2fb8:	ddc00f15 	stw	r23,60(sp)
    2fbc:	dd800e15 	stw	r22,56(sp)
    2fc0:	38800003 	ldbu	r2,0(r7)
    2fc4:	dd401217 	ldw	r21,72(sp)
    2fc8:	3829883a 	mov	r20,r7
    2fcc:	108000c4 	addi	r2,r2,3
    2fd0:	1085883a 	add	r2,r2,r2
    2fd4:	1085883a 	add	r2,r2,r2
    2fd8:	3885883a 	add	r2,r7,r2
    2fdc:	3027883a 	mov	r19,r6
    2fe0:	2021883a 	mov	r16,r4
    2fe4:	2823883a 	mov	r17,r5
    2fe8:	14800017 	ldw	r18,0(r2)
    2fec:	ad40008c 	andi	r21,r21,2
    2ff0:	3001ef26 	beq	r6,zero,37b0 <kann_layer_gru2+0x81c>
    2ff4:	30800003 	ldbu	r2,0(r6)
    2ff8:	05800044 	movi	r22,1
    2ffc:	b082802e 	bgeu	r22,r2,3a00 <kann_layer_gru2+0xa6c>
    3000:	31400417 	ldw	r5,16(r6)
    3004:	31000517 	ldw	r4,20(r6)
    3008:	00c00084 	movi	r3,2
    300c:	2909383a 	mul	r4,r5,r4
    3010:	10c00626 	beq	r2,r3,302c <kann_layer_gru2+0x98>
    3014:	30c00617 	ldw	r3,24(r6)
    3018:	20c9383a 	mul	r4,r4,r3
    301c:	00c000c4 	movi	r3,3
    3020:	10c00226 	beq	r2,r3,302c <kann_layer_gru2+0x98>
    3024:	30800717 	ldw	r2,28(r6)
    3028:	2089383a 	mul	r4,r4,r2
    302c:	2144b03a 	or	r2,r4,r5
    3030:	00c003c4 	movi	r3,15
    3034:	1880b236 	bltu	r3,r2,3300 <kann_layer_gru2+0x36c>
    3038:	2008913a 	slli	r4,r4,4
    303c:	2148b03a 	or	r4,r4,r5
    3040:	014000f4 	movhi	r5,3
    3044:	29552c04 	addi	r5,r5,21680
    3048:	2149883a 	add	r4,r4,r5
    304c:	25800003 	ldbu	r22,0(r4)
    3050:	05c00044 	movi	r23,1
    3054:	00800084 	movi	r2,2
    3058:	000f883a 	mov	r7,zero
    305c:	b80d883a 	mov	r6,r23
    3060:	880b883a 	mov	r5,r17
    3064:	8009883a 	mov	r4,r16
    3068:	dc800215 	stw	r18,8(sp)
    306c:	dc800115 	stw	r18,4(sp)
    3070:	d8800015 	stw	r2,0(sp)
    3074:	0000b640 	call	b64 <kann_new_leaf2.constprop.10>
    3078:	000f883a 	mov	r7,zero
    307c:	dc800115 	stw	r18,4(sp)
    3080:	ddc00015 	stw	r23,0(sp)
    3084:	b80d883a 	mov	r6,r23
    3088:	880b883a 	mov	r5,r17
    308c:	8009883a 	mov	r4,r16
    3090:	d8800715 	stw	r2,28(sp)
    3094:	0000b640 	call	b64 <kann_new_leaf2.constprop.10>
    3098:	1039883a 	mov	fp,r2
    309c:	d8c00717 	ldw	r3,28(sp)
    30a0:	a801d71e 	bne	r21,zero,3800 <kann_layer_gru2+0x86c>
    30a4:	180b883a 	mov	r5,r3
    30a8:	a009883a 	mov	r4,r20
    30ac:	0011f100 	call	11f10 <kad_cmul>
    30b0:	d8800315 	stw	r2,12(sp)
    30b4:	00800084 	movi	r2,2
    30b8:	000f883a 	mov	r7,zero
    30bc:	b80d883a 	mov	r6,r23
    30c0:	880b883a 	mov	r5,r17
    30c4:	8009883a 	mov	r4,r16
    30c8:	dd800215 	stw	r22,8(sp)
    30cc:	dc800115 	stw	r18,4(sp)
    30d0:	d8800015 	stw	r2,0(sp)
    30d4:	0000b640 	call	b64 <kann_new_leaf2.constprop.10>
    30d8:	9809883a 	mov	r4,r19
    30dc:	100b883a 	mov	r5,r2
    30e0:	0011f100 	call	11f10 <kad_cmul>
    30e4:	1009883a 	mov	r4,r2
    30e8:	d9400317 	ldw	r5,12(sp)
    30ec:	05c00044 	movi	r23,1
    30f0:	0011be40 	call	11be4 <kad_add>
    30f4:	e00b883a 	mov	r5,fp
    30f8:	1009883a 	mov	r4,r2
    30fc:	0011be40 	call	11be4 <kad_add>
    3100:	1009883a 	mov	r4,r2
    3104:	00129680 	call	12968 <kad_sigm>
    3108:	1039883a 	mov	fp,r2
    310c:	00800084 	movi	r2,2
    3110:	000f883a 	mov	r7,zero
    3114:	b80d883a 	mov	r6,r23
    3118:	880b883a 	mov	r5,r17
    311c:	8009883a 	mov	r4,r16
    3120:	dc800215 	stw	r18,8(sp)
    3124:	dc800115 	stw	r18,4(sp)
    3128:	d8800015 	stw	r2,0(sp)
    312c:	0000b640 	call	b64 <kann_new_leaf2.constprop.10>
    3130:	000f883a 	mov	r7,zero
    3134:	dc800115 	stw	r18,4(sp)
    3138:	ddc00015 	stw	r23,0(sp)
    313c:	b80d883a 	mov	r6,r23
    3140:	880b883a 	mov	r5,r17
    3144:	8009883a 	mov	r4,r16
    3148:	d8800715 	stw	r2,28(sp)
    314c:	0000b640 	call	b64 <kann_new_leaf2.constprop.10>
    3150:	d8800315 	stw	r2,12(sp)
    3154:	d8c00717 	ldw	r3,28(sp)
    3158:	a801151e 	bne	r21,zero,35b0 <kann_layer_gru2+0x61c>
    315c:	a009883a 	mov	r4,r20
    3160:	180b883a 	mov	r5,r3
    3164:	0011f100 	call	11f10 <kad_cmul>
    3168:	d8800415 	stw	r2,16(sp)
    316c:	1009883a 	mov	r4,r2
    3170:	98024526 	beq	r19,zero,3a88 <kann_layer_gru2+0xaf4>
    3174:	00800084 	movi	r2,2
    3178:	000f883a 	mov	r7,zero
    317c:	b80d883a 	mov	r6,r23
    3180:	880b883a 	mov	r5,r17
    3184:	8009883a 	mov	r4,r16
    3188:	dd800215 	stw	r22,8(sp)
    318c:	dc800115 	stw	r18,4(sp)
    3190:	d8800015 	stw	r2,0(sp)
    3194:	0000b640 	call	b64 <kann_new_leaf2.constprop.10>
    3198:	9809883a 	mov	r4,r19
    319c:	100b883a 	mov	r5,r2
    31a0:	0011f100 	call	11f10 <kad_cmul>
    31a4:	1009883a 	mov	r4,r2
    31a8:	d9400417 	ldw	r5,16(sp)
    31ac:	05c00044 	movi	r23,1
    31b0:	0011be40 	call	11be4 <kad_add>
    31b4:	d9400317 	ldw	r5,12(sp)
    31b8:	1009883a 	mov	r4,r2
    31bc:	0011be40 	call	11be4 <kad_add>
    31c0:	1009883a 	mov	r4,r2
    31c4:	00129680 	call	12968 <kad_sigm>
    31c8:	1011883a 	mov	r8,r2
    31cc:	00800084 	movi	r2,2
    31d0:	000f883a 	mov	r7,zero
    31d4:	b80d883a 	mov	r6,r23
    31d8:	880b883a 	mov	r5,r17
    31dc:	8009883a 	mov	r4,r16
    31e0:	dc800215 	stw	r18,8(sp)
    31e4:	dc800115 	stw	r18,4(sp)
    31e8:	d8800015 	stw	r2,0(sp)
    31ec:	da000515 	stw	r8,20(sp)
    31f0:	0000b640 	call	b64 <kann_new_leaf2.constprop.10>
    31f4:	000f883a 	mov	r7,zero
    31f8:	b80d883a 	mov	r6,r23
    31fc:	880b883a 	mov	r5,r17
    3200:	8009883a 	mov	r4,r16
    3204:	dc800115 	stw	r18,4(sp)
    3208:	ddc00015 	stw	r23,0(sp)
    320c:	d8800715 	stw	r2,28(sp)
    3210:	0000b640 	call	b64 <kann_new_leaf2.constprop.10>
    3214:	da000517 	ldw	r8,20(sp)
    3218:	a00b883a 	mov	r5,r20
    321c:	d8800315 	stw	r2,12(sp)
    3220:	4009883a 	mov	r4,r8
    3224:	0011e040 	call	11e04 <kad_mul>
    3228:	d8c00717 	ldw	r3,28(sp)
    322c:	a800531e 	bne	r21,zero,337c <kann_layer_gru2+0x3e8>
    3230:	180b883a 	mov	r5,r3
    3234:	1009883a 	mov	r4,r2
    3238:	0011f100 	call	11f10 <kad_cmul>
    323c:	102b883a 	mov	r21,r2
    3240:	98001026 	beq	r19,zero,3284 <kann_layer_gru2+0x2f0>
    3244:	00800084 	movi	r2,2
    3248:	880b883a 	mov	r5,r17
    324c:	8009883a 	mov	r4,r16
    3250:	000f883a 	mov	r7,zero
    3254:	b80d883a 	mov	r6,r23
    3258:	dd800215 	stw	r22,8(sp)
    325c:	dc800115 	stw	r18,4(sp)
    3260:	d8800015 	stw	r2,0(sp)
    3264:	0000b640 	call	b64 <kann_new_leaf2.constprop.10>
    3268:	100b883a 	mov	r5,r2
    326c:	9809883a 	mov	r4,r19
    3270:	0011f100 	call	11f10 <kad_cmul>
    3274:	a80b883a 	mov	r5,r21
    3278:	1009883a 	mov	r4,r2
    327c:	0011be40 	call	11be4 <kad_add>
    3280:	102b883a 	mov	r21,r2
    3284:	d9400317 	ldw	r5,12(sp)
    3288:	a809883a 	mov	r4,r21
    328c:	0011be40 	call	11be4 <kad_add>
    3290:	1009883a 	mov	r4,r2
    3294:	0012a6c0 	call	12a6c <kad_tanh>
    3298:	e009883a 	mov	r4,fp
    329c:	1021883a 	mov	r16,r2
    32a0:	0012c740 	call	12c74 <kad_1minus>
    32a4:	800b883a 	mov	r5,r16
    32a8:	1009883a 	mov	r4,r2
    32ac:	0011e040 	call	11e04 <kad_mul>
    32b0:	a00b883a 	mov	r5,r20
    32b4:	e009883a 	mov	r4,fp
    32b8:	1021883a 	mov	r16,r2
    32bc:	0011e040 	call	11e04 <kad_mul>
    32c0:	100b883a 	mov	r5,r2
    32c4:	8009883a 	mov	r4,r16
    32c8:	0011be40 	call	11be4 <kad_add>
    32cc:	15000f15 	stw	r20,60(r2)
    32d0:	dfc01117 	ldw	ra,68(sp)
    32d4:	df001017 	ldw	fp,64(sp)
    32d8:	ddc00f17 	ldw	r23,60(sp)
    32dc:	dd800e17 	ldw	r22,56(sp)
    32e0:	dd400d17 	ldw	r21,52(sp)
    32e4:	dd000c17 	ldw	r20,48(sp)
    32e8:	dcc00b17 	ldw	r19,44(sp)
    32ec:	dc800a17 	ldw	r18,40(sp)
    32f0:	dc400917 	ldw	r17,36(sp)
    32f4:	dc000817 	ldw	r16,32(sp)
    32f8:	dec01204 	addi	sp,sp,72
    32fc:	f800283a 	ret
    3300:	001d1b40 	call	1d1b4 <__divsi3>
    3304:	102d883a 	mov	r22,r2
    3308:	003f5106 	br	3050 <kann_layer_gru2+0xbc>
    330c:	d9400317 	ldw	r5,12(sp)
    3310:	1009883a 	mov	r4,r2
    3314:	0011be40 	call	11be4 <kad_add>
    3318:	1009883a 	mov	r4,r2
    331c:	00129680 	call	12968 <kad_sigm>
    3320:	102b883a 	mov	r21,r2
    3324:	00800084 	movi	r2,2
    3328:	000f883a 	mov	r7,zero
    332c:	b80d883a 	mov	r6,r23
    3330:	880b883a 	mov	r5,r17
    3334:	8009883a 	mov	r4,r16
    3338:	dc800215 	stw	r18,8(sp)
    333c:	dc800115 	stw	r18,4(sp)
    3340:	d8800015 	stw	r2,0(sp)
    3344:	0000b640 	call	b64 <kann_new_leaf2.constprop.10>
    3348:	000f883a 	mov	r7,zero
    334c:	b80d883a 	mov	r6,r23
    3350:	880b883a 	mov	r5,r17
    3354:	8009883a 	mov	r4,r16
    3358:	dc800115 	stw	r18,4(sp)
    335c:	ddc00015 	stw	r23,0(sp)
    3360:	d8800715 	stw	r2,28(sp)
    3364:	0000b640 	call	b64 <kann_new_leaf2.constprop.10>
    3368:	a00b883a 	mov	r5,r20
    336c:	a809883a 	mov	r4,r21
    3370:	d8800315 	stw	r2,12(sp)
    3374:	0011e040 	call	11e04 <kad_mul>
    3378:	d8c00717 	ldw	r3,28(sp)
    337c:	180b883a 	mov	r5,r3
    3380:	1009883a 	mov	r4,r2
    3384:	0011f100 	call	11f10 <kad_cmul>
    3388:	102b883a 	mov	r21,r2
    338c:	10800003 	ldbu	r2,0(r2)
    3390:	00c00044 	movi	r3,1
    3394:	1881f02e 	bgeu	r3,r2,3b58 <kann_layer_gru2+0xbc4>
    3398:	a9400417 	ldw	r5,16(r21)
    339c:	a9000517 	ldw	r4,20(r21)
    33a0:	00c00084 	movi	r3,2
    33a4:	2909383a 	mul	r4,r5,r4
    33a8:	10c00626 	beq	r2,r3,33c4 <kann_layer_gru2+0x430>
    33ac:	a8c00617 	ldw	r3,24(r21)
    33b0:	20c9383a 	mul	r4,r4,r3
    33b4:	00c000c4 	movi	r3,3
    33b8:	10c00226 	beq	r2,r3,33c4 <kann_layer_gru2+0x430>
    33bc:	a8800717 	ldw	r2,28(r21)
    33c0:	2089383a 	mul	r4,r4,r2
    33c4:	2144b03a 	or	r2,r4,r5
    33c8:	00c003c4 	movi	r3,15
    33cc:	1881d32e 	bgeu	r3,r2,3b1c <kann_layer_gru2+0xb88>
    33d0:	001d1b40 	call	1d1b4 <__divsi3>
    33d4:	1007883a 	mov	r3,r2
    33d8:	05c00044 	movi	r23,1
    33dc:	01cfe034 	movhi	r7,16256
    33e0:	b80d883a 	mov	r6,r23
    33e4:	880b883a 	mov	r5,r17
    33e8:	8009883a 	mov	r4,r16
    33ec:	d8c00115 	stw	r3,4(sp)
    33f0:	ddc00015 	stw	r23,0(sp)
    33f4:	d8c00715 	stw	r3,28(sp)
    33f8:	0000b640 	call	b64 <kann_new_leaf2.constprop.10>
    33fc:	d8c00717 	ldw	r3,28(sp)
    3400:	000f883a 	mov	r7,zero
    3404:	b80d883a 	mov	r6,r23
    3408:	d8c00115 	stw	r3,4(sp)
    340c:	880b883a 	mov	r5,r17
    3410:	8009883a 	mov	r4,r16
    3414:	ddc00015 	stw	r23,0(sp)
    3418:	d8800515 	stw	r2,20(sp)
    341c:	0000b640 	call	b64 <kann_new_leaf2.constprop.10>
    3420:	a809883a 	mov	r4,r21
    3424:	d8800715 	stw	r2,28(sp)
    3428:	0012e7c0 	call	12e7c <kad_stdnorm>
    342c:	da000517 	ldw	r8,20(sp)
    3430:	1009883a 	mov	r4,r2
    3434:	400b883a 	mov	r5,r8
    3438:	0011e040 	call	11e04 <kad_mul>
    343c:	d8c00717 	ldw	r3,28(sp)
    3440:	1009883a 	mov	r4,r2
    3444:	180b883a 	mov	r5,r3
    3448:	0011be40 	call	11be4 <kad_add>
    344c:	102b883a 	mov	r21,r2
    3450:	983f8c26 	beq	r19,zero,3284 <kann_layer_gru2+0x2f0>
    3454:	00c00084 	movi	r3,2
    3458:	d8c00015 	stw	r3,0(sp)
    345c:	000f883a 	mov	r7,zero
    3460:	b80d883a 	mov	r6,r23
    3464:	dc800115 	stw	r18,4(sp)
    3468:	880b883a 	mov	r5,r17
    346c:	8009883a 	mov	r4,r16
    3470:	dd800215 	stw	r22,8(sp)
    3474:	d8c00715 	stw	r3,28(sp)
    3478:	0000b640 	call	b64 <kann_new_leaf2.constprop.10>
    347c:	100b883a 	mov	r5,r2
    3480:	9809883a 	mov	r4,r19
    3484:	0011f100 	call	11f10 <kad_cmul>
    3488:	1025883a 	mov	r18,r2
    348c:	10800003 	ldbu	r2,0(r2)
    3490:	d8c00717 	ldw	r3,28(sp)
    3494:	b881c32e 	bgeu	r23,r2,3ba4 <kann_layer_gru2+0xc10>
    3498:	91000517 	ldw	r4,20(r18)
    349c:	91400417 	ldw	r5,16(r18)
    34a0:	2149383a 	mul	r4,r4,r5
    34a4:	10c00626 	beq	r2,r3,34c0 <kann_layer_gru2+0x52c>
    34a8:	90c00617 	ldw	r3,24(r18)
    34ac:	20c9383a 	mul	r4,r4,r3
    34b0:	00c000c4 	movi	r3,3
    34b4:	10c00226 	beq	r2,r3,34c0 <kann_layer_gru2+0x52c>
    34b8:	90800717 	ldw	r2,28(r18)
    34bc:	2089383a 	mul	r4,r4,r2
    34c0:	2144b03a 	or	r2,r4,r5
    34c4:	00c003c4 	movi	r3,15
    34c8:	1881a036 	bltu	r3,r2,3b4c <kann_layer_gru2+0xbb8>
    34cc:	2008913a 	slli	r4,r4,4
    34d0:	2148b03a 	or	r4,r4,r5
    34d4:	014000f4 	movhi	r5,3
    34d8:	29552c04 	addi	r5,r5,21680
    34dc:	2149883a 	add	r4,r4,r5
    34e0:	25c00003 	ldbu	r23,0(r4)
    34e4:	04c00044 	movi	r19,1
    34e8:	980d883a 	mov	r6,r19
    34ec:	880b883a 	mov	r5,r17
    34f0:	8009883a 	mov	r4,r16
    34f4:	01cfe034 	movhi	r7,16256
    34f8:	ddc00115 	stw	r23,4(sp)
    34fc:	dcc00015 	stw	r19,0(sp)
    3500:	0000b640 	call	b64 <kann_new_leaf2.constprop.10>
    3504:	000f883a 	mov	r7,zero
    3508:	980d883a 	mov	r6,r19
    350c:	880b883a 	mov	r5,r17
    3510:	8009883a 	mov	r4,r16
    3514:	ddc00115 	stw	r23,4(sp)
    3518:	dcc00015 	stw	r19,0(sp)
    351c:	102d883a 	mov	r22,r2
    3520:	0000b640 	call	b64 <kann_new_leaf2.constprop.10>
    3524:	9009883a 	mov	r4,r18
    3528:	1021883a 	mov	r16,r2
    352c:	0012e7c0 	call	12e7c <kad_stdnorm>
    3530:	b00b883a 	mov	r5,r22
    3534:	1009883a 	mov	r4,r2
    3538:	0011e040 	call	11e04 <kad_mul>
    353c:	800b883a 	mov	r5,r16
    3540:	1009883a 	mov	r4,r2
    3544:	0011be40 	call	11be4 <kad_add>
    3548:	003f4a06 	br	3274 <kann_layer_gru2+0x2e0>
    354c:	e00b883a 	mov	r5,fp
    3550:	1009883a 	mov	r4,r2
    3554:	0011be40 	call	11be4 <kad_add>
    3558:	1009883a 	mov	r4,r2
    355c:	00129680 	call	12968 <kad_sigm>
    3560:	1039883a 	mov	fp,r2
    3564:	00800084 	movi	r2,2
    3568:	000f883a 	mov	r7,zero
    356c:	b80d883a 	mov	r6,r23
    3570:	880b883a 	mov	r5,r17
    3574:	8009883a 	mov	r4,r16
    3578:	dc800215 	stw	r18,8(sp)
    357c:	dc800115 	stw	r18,4(sp)
    3580:	d8800015 	stw	r2,0(sp)
    3584:	0000b640 	call	b64 <kann_new_leaf2.constprop.10>
    3588:	000f883a 	mov	r7,zero
    358c:	dc800115 	stw	r18,4(sp)
    3590:	ddc00015 	stw	r23,0(sp)
    3594:	b80d883a 	mov	r6,r23
    3598:	880b883a 	mov	r5,r17
    359c:	8009883a 	mov	r4,r16
    35a0:	d8800715 	stw	r2,28(sp)
    35a4:	0000b640 	call	b64 <kann_new_leaf2.constprop.10>
    35a8:	d8c00717 	ldw	r3,28(sp)
    35ac:	d8800315 	stw	r2,12(sp)
    35b0:	180b883a 	mov	r5,r3
    35b4:	a009883a 	mov	r4,r20
    35b8:	0011f100 	call	11f10 <kad_cmul>
    35bc:	1007883a 	mov	r3,r2
    35c0:	10800003 	ldbu	r2,0(r2)
    35c4:	02000044 	movi	r8,1
    35c8:	4081692e 	bgeu	r8,r2,3b70 <kann_layer_gru2+0xbdc>
    35cc:	19400417 	ldw	r5,16(r3)
    35d0:	19000517 	ldw	r4,20(r3)
    35d4:	01800084 	movi	r6,2
    35d8:	2909383a 	mul	r4,r5,r4
    35dc:	11800626 	beq	r2,r6,35f8 <kann_layer_gru2+0x664>
    35e0:	19800617 	ldw	r6,24(r3)
    35e4:	2189383a 	mul	r4,r4,r6
    35e8:	018000c4 	movi	r6,3
    35ec:	11800226 	beq	r2,r6,35f8 <kann_layer_gru2+0x664>
    35f0:	18800717 	ldw	r2,28(r3)
    35f4:	2089383a 	mul	r4,r4,r2
    35f8:	2144b03a 	or	r2,r4,r5
    35fc:	018003c4 	movi	r6,15
    3600:	30814d36 	bltu	r6,r2,3b38 <kann_layer_gru2+0xba4>
    3604:	2008913a 	slli	r4,r4,4
    3608:	2148b03a 	or	r4,r4,r5
    360c:	014000f4 	movhi	r5,3
    3610:	29552c04 	addi	r5,r5,21680
    3614:	2149883a 	add	r4,r4,r5
    3618:	22000003 	ldbu	r8,0(r4)
    361c:	05c00044 	movi	r23,1
    3620:	01cfe034 	movhi	r7,16256
    3624:	b80d883a 	mov	r6,r23
    3628:	880b883a 	mov	r5,r17
    362c:	8009883a 	mov	r4,r16
    3630:	da000115 	stw	r8,4(sp)
    3634:	ddc00015 	stw	r23,0(sp)
    3638:	d8c00715 	stw	r3,28(sp)
    363c:	da000515 	stw	r8,20(sp)
    3640:	0000b640 	call	b64 <kann_new_leaf2.constprop.10>
    3644:	da000517 	ldw	r8,20(sp)
    3648:	000f883a 	mov	r7,zero
    364c:	b80d883a 	mov	r6,r23
    3650:	da000115 	stw	r8,4(sp)
    3654:	880b883a 	mov	r5,r17
    3658:	8009883a 	mov	r4,r16
    365c:	ddc00015 	stw	r23,0(sp)
    3660:	d8800615 	stw	r2,24(sp)
    3664:	0000b640 	call	b64 <kann_new_leaf2.constprop.10>
    3668:	d8c00717 	ldw	r3,28(sp)
    366c:	d8800515 	stw	r2,20(sp)
    3670:	1809883a 	mov	r4,r3
    3674:	0012e7c0 	call	12e7c <kad_stdnorm>
    3678:	da400617 	ldw	r9,24(sp)
    367c:	1009883a 	mov	r4,r2
    3680:	480b883a 	mov	r5,r9
    3684:	0011e040 	call	11e04 <kad_mul>
    3688:	d9800517 	ldw	r6,20(sp)
    368c:	1009883a 	mov	r4,r2
    3690:	300b883a 	mov	r5,r6
    3694:	0011be40 	call	11be4 <kad_add>
    3698:	d8800415 	stw	r2,16(sp)
    369c:	983f1b26 	beq	r19,zero,330c <kann_layer_gru2+0x378>
    36a0:	02000084 	movi	r8,2
    36a4:	da000015 	stw	r8,0(sp)
    36a8:	000f883a 	mov	r7,zero
    36ac:	b80d883a 	mov	r6,r23
    36b0:	880b883a 	mov	r5,r17
    36b4:	8009883a 	mov	r4,r16
    36b8:	dd800215 	stw	r22,8(sp)
    36bc:	dc800115 	stw	r18,4(sp)
    36c0:	da000515 	stw	r8,20(sp)
    36c4:	0000b640 	call	b64 <kann_new_leaf2.constprop.10>
    36c8:	100b883a 	mov	r5,r2
    36cc:	9809883a 	mov	r4,r19
    36d0:	0011f100 	call	11f10 <kad_cmul>
    36d4:	1007883a 	mov	r3,r2
    36d8:	10800003 	ldbu	r2,0(r2)
    36dc:	da000517 	ldw	r8,20(sp)
    36e0:	b881332e 	bgeu	r23,r2,3bb0 <kann_layer_gru2+0xc1c>
    36e4:	19400417 	ldw	r5,16(r3)
    36e8:	19000517 	ldw	r4,20(r3)
    36ec:	2909383a 	mul	r4,r5,r4
    36f0:	12000626 	beq	r2,r8,370c <kann_layer_gru2+0x778>
    36f4:	19800617 	ldw	r6,24(r3)
    36f8:	2189383a 	mul	r4,r4,r6
    36fc:	018000c4 	movi	r6,3
    3700:	11800226 	beq	r2,r6,370c <kann_layer_gru2+0x778>
    3704:	18800717 	ldw	r2,28(r3)
    3708:	2089383a 	mul	r4,r4,r2
    370c:	2144b03a 	or	r2,r4,r5
    3710:	018003c4 	movi	r6,15
    3714:	30811e36 	bltu	r6,r2,3b90 <kann_layer_gru2+0xbfc>
    3718:	2008913a 	slli	r4,r4,4
    371c:	2148b03a 	or	r4,r4,r5
    3720:	014000f4 	movhi	r5,3
    3724:	29552c04 	addi	r5,r5,21680
    3728:	2149883a 	add	r4,r4,r5
    372c:	22000003 	ldbu	r8,0(r4)
    3730:	05c00044 	movi	r23,1
    3734:	b80d883a 	mov	r6,r23
    3738:	01cfe034 	movhi	r7,16256
    373c:	880b883a 	mov	r5,r17
    3740:	8009883a 	mov	r4,r16
    3744:	da000115 	stw	r8,4(sp)
    3748:	ddc00015 	stw	r23,0(sp)
    374c:	d8c00715 	stw	r3,28(sp)
    3750:	da000515 	stw	r8,20(sp)
    3754:	0000b640 	call	b64 <kann_new_leaf2.constprop.10>
    3758:	da000517 	ldw	r8,20(sp)
    375c:	b80d883a 	mov	r6,r23
    3760:	000f883a 	mov	r7,zero
    3764:	da000115 	stw	r8,4(sp)
    3768:	880b883a 	mov	r5,r17
    376c:	ddc00015 	stw	r23,0(sp)
    3770:	8009883a 	mov	r4,r16
    3774:	d8800615 	stw	r2,24(sp)
    3778:	0000b640 	call	b64 <kann_new_leaf2.constprop.10>
    377c:	d8c00717 	ldw	r3,28(sp)
    3780:	102f883a 	mov	r23,r2
    3784:	1809883a 	mov	r4,r3
    3788:	0012e7c0 	call	12e7c <kad_stdnorm>
    378c:	da400617 	ldw	r9,24(sp)
    3790:	1009883a 	mov	r4,r2
    3794:	480b883a 	mov	r5,r9
    3798:	0011e040 	call	11e04 <kad_mul>
    379c:	1009883a 	mov	r4,r2
    37a0:	b80b883a 	mov	r5,r23
    37a4:	0011be40 	call	11be4 <kad_add>
    37a8:	1009883a 	mov	r4,r2
    37ac:	003e7e06 	br	31a8 <kann_layer_gru2+0x214>
    37b0:	05800044 	movi	r22,1
    37b4:	05c00084 	movi	r23,2
    37b8:	000f883a 	mov	r7,zero
    37bc:	b00d883a 	mov	r6,r22
    37c0:	dc800215 	stw	r18,8(sp)
    37c4:	dc800115 	stw	r18,4(sp)
    37c8:	ddc00015 	stw	r23,0(sp)
    37cc:	0000b640 	call	b64 <kann_new_leaf2.constprop.10>
    37d0:	000f883a 	mov	r7,zero
    37d4:	dc800115 	stw	r18,4(sp)
    37d8:	dd800015 	stw	r22,0(sp)
    37dc:	b00d883a 	mov	r6,r22
    37e0:	880b883a 	mov	r5,r17
    37e4:	8009883a 	mov	r4,r16
    37e8:	d8800715 	stw	r2,28(sp)
    37ec:	0000b640 	call	b64 <kann_new_leaf2.constprop.10>
    37f0:	1039883a 	mov	fp,r2
    37f4:	d8c00717 	ldw	r3,28(sp)
    37f8:	a8008426 	beq	r21,zero,3a0c <kann_layer_gru2+0xa78>
    37fc:	002d883a 	mov	r22,zero
    3800:	180b883a 	mov	r5,r3
    3804:	a009883a 	mov	r4,r20
    3808:	0011f100 	call	11f10 <kad_cmul>
    380c:	1007883a 	mov	r3,r2
    3810:	10800003 	ldbu	r2,0(r2)
    3814:	02000044 	movi	r8,1
    3818:	4080d22e 	bgeu	r8,r2,3b64 <kann_layer_gru2+0xbd0>
    381c:	19000517 	ldw	r4,20(r3)
    3820:	19400417 	ldw	r5,16(r3)
    3824:	01800084 	movi	r6,2
    3828:	2149383a 	mul	r4,r4,r5
    382c:	11800626 	beq	r2,r6,3848 <kann_layer_gru2+0x8b4>
    3830:	19800617 	ldw	r6,24(r3)
    3834:	2189383a 	mul	r4,r4,r6
    3838:	018000c4 	movi	r6,3
    383c:	11800226 	beq	r2,r6,3848 <kann_layer_gru2+0x8b4>
    3840:	18800717 	ldw	r2,28(r3)
    3844:	2089383a 	mul	r4,r4,r2
    3848:	2144b03a 	or	r2,r4,r5
    384c:	018003c4 	movi	r6,15
    3850:	3080ad36 	bltu	r6,r2,3b08 <kann_layer_gru2+0xb74>
    3854:	2008913a 	slli	r4,r4,4
    3858:	2148b03a 	or	r4,r4,r5
    385c:	014000f4 	movhi	r5,3
    3860:	29552c04 	addi	r5,r5,21680
    3864:	2149883a 	add	r4,r4,r5
    3868:	22000003 	ldbu	r8,0(r4)
    386c:	05c00044 	movi	r23,1
    3870:	01cfe034 	movhi	r7,16256
    3874:	b80d883a 	mov	r6,r23
    3878:	880b883a 	mov	r5,r17
    387c:	8009883a 	mov	r4,r16
    3880:	da000115 	stw	r8,4(sp)
    3884:	ddc00015 	stw	r23,0(sp)
    3888:	d8c00715 	stw	r3,28(sp)
    388c:	da000515 	stw	r8,20(sp)
    3890:	0000b640 	call	b64 <kann_new_leaf2.constprop.10>
    3894:	da000517 	ldw	r8,20(sp)
    3898:	000f883a 	mov	r7,zero
    389c:	b80d883a 	mov	r6,r23
    38a0:	da000115 	stw	r8,4(sp)
    38a4:	880b883a 	mov	r5,r17
    38a8:	8009883a 	mov	r4,r16
    38ac:	ddc00015 	stw	r23,0(sp)
    38b0:	d8800615 	stw	r2,24(sp)
    38b4:	0000b640 	call	b64 <kann_new_leaf2.constprop.10>
    38b8:	d8c00717 	ldw	r3,28(sp)
    38bc:	d8800515 	stw	r2,20(sp)
    38c0:	1809883a 	mov	r4,r3
    38c4:	0012e7c0 	call	12e7c <kad_stdnorm>
    38c8:	da400617 	ldw	r9,24(sp)
    38cc:	1009883a 	mov	r4,r2
    38d0:	480b883a 	mov	r5,r9
    38d4:	0011e040 	call	11e04 <kad_mul>
    38d8:	d9800517 	ldw	r6,20(sp)
    38dc:	1009883a 	mov	r4,r2
    38e0:	300b883a 	mov	r5,r6
    38e4:	0011be40 	call	11be4 <kad_add>
    38e8:	d8800315 	stw	r2,12(sp)
    38ec:	983f1726 	beq	r19,zero,354c <kann_layer_gru2+0x5b8>
    38f0:	02000084 	movi	r8,2
    38f4:	da000015 	stw	r8,0(sp)
    38f8:	000f883a 	mov	r7,zero
    38fc:	b80d883a 	mov	r6,r23
    3900:	880b883a 	mov	r5,r17
    3904:	8009883a 	mov	r4,r16
    3908:	dd800215 	stw	r22,8(sp)
    390c:	dc800115 	stw	r18,4(sp)
    3910:	da000515 	stw	r8,20(sp)
    3914:	0000b640 	call	b64 <kann_new_leaf2.constprop.10>
    3918:	100b883a 	mov	r5,r2
    391c:	9809883a 	mov	r4,r19
    3920:	0011f100 	call	11f10 <kad_cmul>
    3924:	1007883a 	mov	r3,r2
    3928:	10800003 	ldbu	r2,0(r2)
    392c:	da000517 	ldw	r8,20(sp)
    3930:	b880a22e 	bgeu	r23,r2,3bbc <kann_layer_gru2+0xc28>
    3934:	19000517 	ldw	r4,20(r3)
    3938:	19400417 	ldw	r5,16(r3)
    393c:	2149383a 	mul	r4,r4,r5
    3940:	12000626 	beq	r2,r8,395c <kann_layer_gru2+0x9c8>
    3944:	19800617 	ldw	r6,24(r3)
    3948:	2189383a 	mul	r4,r4,r6
    394c:	018000c4 	movi	r6,3
    3950:	11800226 	beq	r2,r6,395c <kann_layer_gru2+0x9c8>
    3954:	18800717 	ldw	r2,28(r3)
    3958:	2089383a 	mul	r4,r4,r2
    395c:	2144b03a 	or	r2,r4,r5
    3960:	018003c4 	movi	r6,15
    3964:	30808536 	bltu	r6,r2,3b7c <kann_layer_gru2+0xbe8>
    3968:	2008913a 	slli	r4,r4,4
    396c:	2148b03a 	or	r4,r4,r5
    3970:	014000f4 	movhi	r5,3
    3974:	29552c04 	addi	r5,r5,21680
    3978:	2149883a 	add	r4,r4,r5
    397c:	22000003 	ldbu	r8,0(r4)
    3980:	05c00044 	movi	r23,1
    3984:	b80d883a 	mov	r6,r23
    3988:	01cfe034 	movhi	r7,16256
    398c:	880b883a 	mov	r5,r17
    3990:	8009883a 	mov	r4,r16
    3994:	da000115 	stw	r8,4(sp)
    3998:	ddc00015 	stw	r23,0(sp)
    399c:	d8c00715 	stw	r3,28(sp)
    39a0:	da000515 	stw	r8,20(sp)
    39a4:	0000b640 	call	b64 <kann_new_leaf2.constprop.10>
    39a8:	da000517 	ldw	r8,20(sp)
    39ac:	b80d883a 	mov	r6,r23
    39b0:	000f883a 	mov	r7,zero
    39b4:	da000115 	stw	r8,4(sp)
    39b8:	880b883a 	mov	r5,r17
    39bc:	ddc00015 	stw	r23,0(sp)
    39c0:	8009883a 	mov	r4,r16
    39c4:	d8800615 	stw	r2,24(sp)
    39c8:	0000b640 	call	b64 <kann_new_leaf2.constprop.10>
    39cc:	d8c00717 	ldw	r3,28(sp)
    39d0:	102f883a 	mov	r23,r2
    39d4:	1809883a 	mov	r4,r3
    39d8:	0012e7c0 	call	12e7c <kad_stdnorm>
    39dc:	da400617 	ldw	r9,24(sp)
    39e0:	1009883a 	mov	r4,r2
    39e4:	480b883a 	mov	r5,r9
    39e8:	0011e040 	call	11e04 <kad_mul>
    39ec:	1009883a 	mov	r4,r2
    39f0:	b80b883a 	mov	r5,r23
    39f4:	0011be40 	call	11be4 <kad_add>
    39f8:	1009883a 	mov	r4,r2
    39fc:	003dba06 	br	30e8 <kann_layer_gru2+0x154>
    3a00:	15bd931e 	bne	r2,r22,3050 <kann_layer_gru2+0xbc>
    3a04:	35800417 	ldw	r22,16(r6)
    3a08:	003d9106 	br	3050 <kann_layer_gru2+0xbc>
    3a0c:	180b883a 	mov	r5,r3
    3a10:	a009883a 	mov	r4,r20
    3a14:	0011f100 	call	11f10 <kad_cmul>
    3a18:	e00b883a 	mov	r5,fp
    3a1c:	1009883a 	mov	r4,r2
    3a20:	0011be40 	call	11be4 <kad_add>
    3a24:	1009883a 	mov	r4,r2
    3a28:	00129680 	call	12968 <kad_sigm>
    3a2c:	000f883a 	mov	r7,zero
    3a30:	b00d883a 	mov	r6,r22
    3a34:	880b883a 	mov	r5,r17
    3a38:	8009883a 	mov	r4,r16
    3a3c:	dc800215 	stw	r18,8(sp)
    3a40:	dc800115 	stw	r18,4(sp)
    3a44:	ddc00015 	stw	r23,0(sp)
    3a48:	1039883a 	mov	fp,r2
    3a4c:	0000b640 	call	b64 <kann_new_leaf2.constprop.10>
    3a50:	000f883a 	mov	r7,zero
    3a54:	b00d883a 	mov	r6,r22
    3a58:	880b883a 	mov	r5,r17
    3a5c:	8009883a 	mov	r4,r16
    3a60:	dc800115 	stw	r18,4(sp)
    3a64:	dd800015 	stw	r22,0(sp)
    3a68:	1027883a 	mov	r19,r2
    3a6c:	0000b640 	call	b64 <kann_new_leaf2.constprop.10>
    3a70:	a009883a 	mov	r4,r20
    3a74:	980b883a 	mov	r5,r19
    3a78:	d8800315 	stw	r2,12(sp)
    3a7c:	0011f100 	call	11f10 <kad_cmul>
    3a80:	d8800415 	stw	r2,16(sp)
    3a84:	1009883a 	mov	r4,r2
    3a88:	d9400317 	ldw	r5,12(sp)
    3a8c:	04c00044 	movi	r19,1
    3a90:	0011be40 	call	11be4 <kad_add>
    3a94:	1009883a 	mov	r4,r2
    3a98:	00129680 	call	12968 <kad_sigm>
    3a9c:	102d883a 	mov	r22,r2
    3aa0:	00800084 	movi	r2,2
    3aa4:	000f883a 	mov	r7,zero
    3aa8:	980d883a 	mov	r6,r19
    3aac:	880b883a 	mov	r5,r17
    3ab0:	8009883a 	mov	r4,r16
    3ab4:	dc800215 	stw	r18,8(sp)
    3ab8:	dc800115 	stw	r18,4(sp)
    3abc:	d8800015 	stw	r2,0(sp)
    3ac0:	0000b640 	call	b64 <kann_new_leaf2.constprop.10>
    3ac4:	000f883a 	mov	r7,zero
    3ac8:	980d883a 	mov	r6,r19
    3acc:	880b883a 	mov	r5,r17
    3ad0:	8009883a 	mov	r4,r16
    3ad4:	dc800115 	stw	r18,4(sp)
    3ad8:	dcc00015 	stw	r19,0(sp)
    3adc:	102b883a 	mov	r21,r2
    3ae0:	0000b640 	call	b64 <kann_new_leaf2.constprop.10>
    3ae4:	a00b883a 	mov	r5,r20
    3ae8:	b009883a 	mov	r4,r22
    3aec:	d8800315 	stw	r2,12(sp)
    3af0:	0011e040 	call	11e04 <kad_mul>
    3af4:	a80b883a 	mov	r5,r21
    3af8:	1009883a 	mov	r4,r2
    3afc:	0011f100 	call	11f10 <kad_cmul>
    3b00:	102b883a 	mov	r21,r2
    3b04:	003ddf06 	br	3284 <kann_layer_gru2+0x2f0>
    3b08:	d8c00715 	stw	r3,28(sp)
    3b0c:	001d1b40 	call	1d1b4 <__divsi3>
    3b10:	1011883a 	mov	r8,r2
    3b14:	d8c00717 	ldw	r3,28(sp)
    3b18:	003f5406 	br	386c <kann_layer_gru2+0x8d8>
    3b1c:	2008913a 	slli	r4,r4,4
    3b20:	2148b03a 	or	r4,r4,r5
    3b24:	014000f4 	movhi	r5,3
    3b28:	29552c04 	addi	r5,r5,21680
    3b2c:	2149883a 	add	r4,r4,r5
    3b30:	20c00003 	ldbu	r3,0(r4)
    3b34:	003e2806 	br	33d8 <kann_layer_gru2+0x444>
    3b38:	d8c00715 	stw	r3,28(sp)
    3b3c:	001d1b40 	call	1d1b4 <__divsi3>
    3b40:	1011883a 	mov	r8,r2
    3b44:	d8c00717 	ldw	r3,28(sp)
    3b48:	003eb406 	br	361c <kann_layer_gru2+0x688>
    3b4c:	001d1b40 	call	1d1b4 <__divsi3>
    3b50:	102f883a 	mov	r23,r2
    3b54:	003e6306 	br	34e4 <kann_layer_gru2+0x550>
    3b58:	10fe1f1e 	bne	r2,r3,33d8 <kann_layer_gru2+0x444>
    3b5c:	a8c00417 	ldw	r3,16(r21)
    3b60:	003e1d06 	br	33d8 <kann_layer_gru2+0x444>
    3b64:	123f411e 	bne	r2,r8,386c <kann_layer_gru2+0x8d8>
    3b68:	1a000417 	ldw	r8,16(r3)
    3b6c:	003f3f06 	br	386c <kann_layer_gru2+0x8d8>
    3b70:	123eaa1e 	bne	r2,r8,361c <kann_layer_gru2+0x688>
    3b74:	1a000417 	ldw	r8,16(r3)
    3b78:	003ea806 	br	361c <kann_layer_gru2+0x688>
    3b7c:	d8c00715 	stw	r3,28(sp)
    3b80:	001d1b40 	call	1d1b4 <__divsi3>
    3b84:	1011883a 	mov	r8,r2
    3b88:	d8c00717 	ldw	r3,28(sp)
    3b8c:	003f7c06 	br	3980 <kann_layer_gru2+0x9ec>
    3b90:	d8c00715 	stw	r3,28(sp)
    3b94:	001d1b40 	call	1d1b4 <__divsi3>
    3b98:	1011883a 	mov	r8,r2
    3b9c:	d8c00717 	ldw	r3,28(sp)
    3ba0:	003ee306 	br	3730 <kann_layer_gru2+0x79c>
    3ba4:	15fe4f1e 	bne	r2,r23,34e4 <kann_layer_gru2+0x550>
    3ba8:	95c00417 	ldw	r23,16(r18)
    3bac:	003e4d06 	br	34e4 <kann_layer_gru2+0x550>
    3bb0:	15c0051e 	bne	r2,r23,3bc8 <kann_layer_gru2+0xc34>
    3bb4:	1a000417 	ldw	r8,16(r3)
    3bb8:	003edd06 	br	3730 <kann_layer_gru2+0x79c>
    3bbc:	15c0041e 	bne	r2,r23,3bd0 <kann_layer_gru2+0xc3c>
    3bc0:	1a000417 	ldw	r8,16(r3)
    3bc4:	003f6e06 	br	3980 <kann_layer_gru2+0x9ec>
    3bc8:	b811883a 	mov	r8,r23
    3bcc:	003ed806 	br	3730 <kann_layer_gru2+0x79c>
    3bd0:	b811883a 	mov	r8,r23
    3bd4:	003f6a06 	br	3980 <kann_layer_gru2+0x9ec>

00003bd8 <kann_new_leaf>:
    3bd8:	defff404 	addi	sp,sp,-48
    3bdc:	dd000815 	stw	r20,32(sp)
    3be0:	dc800615 	stw	r18,24(sp)
    3be4:	dc000415 	stw	r16,16(sp)
    3be8:	2025883a 	mov	r18,r4
    3bec:	2829883a 	mov	r20,r5
    3bf0:	3021883a 	mov	r16,r6
    3bf4:	dfc00a15 	stw	ra,40(sp)
    3bf8:	dd400915 	stw	r21,36(sp)
    3bfc:	dcc00715 	stw	r19,28(sp)
    3c00:	dc400515 	stw	r17,20(sp)
    3c04:	d9c00b15 	stw	r7,44(sp)
    3c08:	01800d0e 	bge	zero,r6,3c40 <kann_new_leaf+0x68>
    3c0c:	d9c00015 	stw	r7,0(sp)
    3c10:	00800044 	movi	r2,1
    3c14:	30800a26 	beq	r6,r2,3c40 <kann_new_leaf+0x68>
    3c18:	d8800c17 	ldw	r2,48(sp)
    3c1c:	d8800115 	stw	r2,4(sp)
    3c20:	00800084 	movi	r2,2
    3c24:	30800626 	beq	r6,r2,3c40 <kann_new_leaf+0x68>
    3c28:	d8800d17 	ldw	r2,52(sp)
    3c2c:	d8800215 	stw	r2,8(sp)
    3c30:	008000c4 	movi	r2,3
    3c34:	30800226 	beq	r6,r2,3c40 <kann_new_leaf+0x68>
    3c38:	d8800e17 	ldw	r2,56(sp)
    3c3c:	d8800315 	stw	r2,12(sp)
    3c40:	04400044 	movi	r17,1
    3c44:	01401004 	movi	r5,64
    3c48:	8809883a 	mov	r4,r17
    3c4c:	00211ec0 	call	211ec <calloc>
    3c50:	840d883a 	add	r6,r16,r16
    3c54:	318d883a 	add	r6,r6,r6
    3c58:	d80b883a 	mov	r5,sp
    3c5c:	11000404 	addi	r4,r2,16
    3c60:	14000005 	stb	r16,0(r2)
    3c64:	14800045 	stb	r18,1(r2)
    3c68:	1027883a 	mov	r19,r2
    3c6c:	0023cb40 	call	23cb4 <memcpy>
    3c70:	80803fcc 	andi	r2,r16,255
    3c74:	10004c26 	beq	r2,zero,3da8 <kann_new_leaf+0x1d0>
    3c78:	9c800417 	ldw	r18,16(r19)
    3c7c:	14400a26 	beq	r2,r17,3ca8 <kann_new_leaf+0xd0>
    3c80:	98c00517 	ldw	r3,20(r19)
    3c84:	90e5383a 	mul	r18,r18,r3
    3c88:	00c00084 	movi	r3,2
    3c8c:	10c00626 	beq	r2,r3,3ca8 <kann_new_leaf+0xd0>
    3c90:	98c00617 	ldw	r3,24(r19)
    3c94:	90e5383a 	mul	r18,r18,r3
    3c98:	00c000c4 	movi	r3,3
    3c9c:	10c00226 	beq	r2,r3,3ca8 <kann_new_leaf+0xd0>
    3ca0:	98800717 	ldw	r2,28(r19)
    3ca4:	90a5383a 	mul	r18,r18,r2
    3ca8:	01400104 	movi	r5,4
    3cac:	9009883a 	mov	r4,r18
    3cb0:	00211ec0 	call	211ec <calloc>
    3cb4:	98800a15 	stw	r2,40(r19)
    3cb8:	84003fcc 	andi	r16,r16,255
    3cbc:	00c00044 	movi	r3,1
    3cc0:	1c00322e 	bgeu	r3,r16,3d8c <kann_new_leaf+0x1b4>
    3cc4:	9009883a 	mov	r4,r18
    3cc8:	0020d600 	call	20d60 <__floatsidf>
    3ccc:	99000417 	ldw	r4,16(r19)
    3cd0:	1023883a 	mov	r17,r2
    3cd4:	1821883a 	mov	r16,r3
    3cd8:	0020d600 	call	20d60 <__floatsidf>
    3cdc:	100d883a 	mov	r6,r2
    3ce0:	180f883a 	mov	r7,r3
    3ce4:	8809883a 	mov	r4,r17
    3ce8:	800b883a 	mov	r5,r16
    3cec:	001f18c0 	call	1f18c <__divdf3>
    3cf0:	1009883a 	mov	r4,r2
    3cf4:	180b883a 	mov	r5,r3
    3cf8:	001a0f80 	call	1a0f8 <sqrt>
    3cfc:	100d883a 	mov	r6,r2
    3d00:	180f883a 	mov	r7,r3
    3d04:	0009883a 	mov	r4,zero
    3d08:	014ffc34 	movhi	r5,16368
    3d0c:	001f18c0 	call	1f18c <__divdf3>
    3d10:	1029883a 	mov	r20,r2
    3d14:	182b883a 	mov	r21,r3
    3d18:	0480120e 	bge	zero,r18,3d64 <kann_new_leaf+0x18c>
    3d1c:	0023883a 	mov	r17,zero
    3d20:	9c000a17 	ldw	r16,40(r19)
    3d24:	8c45883a 	add	r2,r17,r17
    3d28:	1085883a 	add	r2,r2,r2
    3d2c:	0009883a 	mov	r4,zero
    3d30:	80a1883a 	add	r16,r16,r2
    3d34:	00184840 	call	18484 <kad_drand_normal>
    3d38:	100d883a 	mov	r6,r2
    3d3c:	180f883a 	mov	r7,r3
    3d40:	a009883a 	mov	r4,r20
    3d44:	a80b883a 	mov	r5,r21
    3d48:	001fccc0 	call	1fccc <__muldf3>
    3d4c:	1009883a 	mov	r4,r2
    3d50:	180b883a 	mov	r5,r3
    3d54:	0020f4c0 	call	20f4c <__truncdfsf2>
    3d58:	80800015 	stw	r2,0(r16)
    3d5c:	8c400044 	addi	r17,r17,1
    3d60:	8cbfef1e 	bne	r17,r18,3d20 <kann_new_leaf+0x148>
    3d64:	9805883a 	mov	r2,r19
    3d68:	dfc00a17 	ldw	ra,40(sp)
    3d6c:	dd400917 	ldw	r21,36(sp)
    3d70:	dd000817 	ldw	r20,32(sp)
    3d74:	dcc00717 	ldw	r19,28(sp)
    3d78:	dc800617 	ldw	r18,24(sp)
    3d7c:	dc400517 	ldw	r17,20(sp)
    3d80:	dc000417 	ldw	r16,16(sp)
    3d84:	dec00c04 	addi	sp,sp,48
    3d88:	f800283a 	ret
    3d8c:	04bff50e 	bge	zero,r18,3d64 <kann_new_leaf+0x18c>
    3d90:	0007883a 	mov	r3,zero
    3d94:	15000015 	stw	r20,0(r2)
    3d98:	18c00044 	addi	r3,r3,1
    3d9c:	10800104 	addi	r2,r2,4
    3da0:	1cbffc16 	blt	r3,r18,3d94 <kann_new_leaf+0x1bc>
    3da4:	003fef06 	br	3d64 <kann_new_leaf+0x18c>
    3da8:	01400104 	movi	r5,4
    3dac:	8809883a 	mov	r4,r17
    3db0:	00211ec0 	call	211ec <calloc>
    3db4:	98800a15 	stw	r2,40(r19)
    3db8:	84003fcc 	andi	r16,r16,255
    3dbc:	8c00202e 	bgeu	r17,r16,3e40 <kann_new_leaf+0x268>
    3dc0:	99000417 	ldw	r4,16(r19)
    3dc4:	0020d600 	call	20d60 <__floatsidf>
    3dc8:	100d883a 	mov	r6,r2
    3dcc:	180f883a 	mov	r7,r3
    3dd0:	0009883a 	mov	r4,zero
    3dd4:	014ffc34 	movhi	r5,16368
    3dd8:	001f18c0 	call	1f18c <__divdf3>
    3ddc:	180b883a 	mov	r5,r3
    3de0:	1009883a 	mov	r4,r2
    3de4:	001a0f80 	call	1a0f8 <sqrt>
    3de8:	0009883a 	mov	r4,zero
    3dec:	102b883a 	mov	r21,r2
    3df0:	1829883a 	mov	r20,r3
    3df4:	9c000a17 	ldw	r16,40(r19)
    3df8:	00184840 	call	18484 <kad_drand_normal>
    3dfc:	a80d883a 	mov	r6,r21
    3e00:	a00f883a 	mov	r7,r20
    3e04:	0009883a 	mov	r4,zero
    3e08:	014ffc34 	movhi	r5,16368
    3e0c:	1025883a 	mov	r18,r2
    3e10:	1823883a 	mov	r17,r3
    3e14:	001f18c0 	call	1f18c <__divdf3>
    3e18:	900d883a 	mov	r6,r18
    3e1c:	880f883a 	mov	r7,r17
    3e20:	1009883a 	mov	r4,r2
    3e24:	180b883a 	mov	r5,r3
    3e28:	001fccc0 	call	1fccc <__muldf3>
    3e2c:	1009883a 	mov	r4,r2
    3e30:	180b883a 	mov	r5,r3
    3e34:	0020f4c0 	call	20f4c <__truncdfsf2>
    3e38:	80800015 	stw	r2,0(r16)
    3e3c:	003fc906 	br	3d64 <kann_new_leaf+0x18c>
    3e40:	8825883a 	mov	r18,r17
    3e44:	003fd206 	br	3d90 <kann_new_leaf+0x1b8>

00003e48 <kann_new_scalar>:
    3e48:	000d883a 	mov	r6,zero
    3e4c:	21003fcc 	andi	r4,r4,255
    3e50:	00008841 	jmpi	884 <kann_new_leaf.constprop.5>

00003e54 <kann_new_weight>:
    3e54:	defffe04 	addi	sp,sp,-8
    3e58:	d9400015 	stw	r5,0(sp)
    3e5c:	200f883a 	mov	r7,r4
    3e60:	01800084 	movi	r6,2
    3e64:	000b883a 	mov	r5,zero
    3e68:	01000044 	movi	r4,1
    3e6c:	dfc00115 	stw	ra,4(sp)
    3e70:	00008f80 	call	8f8 <kann_new_leaf.constprop.4>
    3e74:	dfc00117 	ldw	ra,4(sp)
    3e78:	dec00204 	addi	sp,sp,8
    3e7c:	f800283a 	ret

00003e80 <kann_new_vec>:
    3e80:	01800044 	movi	r6,1
    3e84:	200f883a 	mov	r7,r4
    3e88:	3009883a 	mov	r4,r6
    3e8c:	00008f81 	jmpi	8f8 <kann_new_leaf.constprop.4>

00003e90 <kann_new_bias>:
    3e90:	01800044 	movi	r6,1
    3e94:	200f883a 	mov	r7,r4
    3e98:	000b883a 	mov	r5,zero
    3e9c:	3009883a 	mov	r4,r6
    3ea0:	00008f81 	jmpi	8f8 <kann_new_leaf.constprop.4>

00003ea4 <kann_new_weight_conv2d>:
    3ea4:	defffc04 	addi	sp,sp,-16
    3ea8:	d9c00215 	stw	r7,8(sp)
    3eac:	d9800115 	stw	r6,4(sp)
    3eb0:	d9400015 	stw	r5,0(sp)
    3eb4:	200f883a 	mov	r7,r4
    3eb8:	01800104 	movi	r6,4
    3ebc:	000b883a 	mov	r5,zero
    3ec0:	01000044 	movi	r4,1
    3ec4:	dfc00315 	stw	ra,12(sp)
    3ec8:	00008f80 	call	8f8 <kann_new_leaf.constprop.4>
    3ecc:	dfc00317 	ldw	ra,12(sp)
    3ed0:	dec00404 	addi	sp,sp,16
    3ed4:	f800283a 	ret

00003ed8 <kann_new_weight_conv1d>:
    3ed8:	defffd04 	addi	sp,sp,-12
    3edc:	d9800115 	stw	r6,4(sp)
    3ee0:	d9400015 	stw	r5,0(sp)
    3ee4:	200f883a 	mov	r7,r4
    3ee8:	018000c4 	movi	r6,3
    3eec:	000b883a 	mov	r5,zero
    3ef0:	01000044 	movi	r4,1
    3ef4:	dfc00215 	stw	ra,8(sp)
    3ef8:	00008f80 	call	8f8 <kann_new_leaf.constprop.4>
    3efc:	dfc00217 	ldw	ra,8(sp)
    3f00:	dec00304 	addi	sp,sp,12
    3f04:	f800283a 	ret

00003f08 <kann_layer_input>:
    3f08:	deffff04 	addi	sp,sp,-4
    3f0c:	200d883a 	mov	r6,r4
    3f10:	01400044 	movi	r5,1
    3f14:	01000084 	movi	r4,2
    3f18:	dfc00015 	stw	ra,0(sp)
    3f1c:	0011ad00 	call	11ad0 <kad_feed>
    3f20:	10c00917 	ldw	r3,36(r2)
    3f24:	18c00054 	ori	r3,r3,1
    3f28:	10c00915 	stw	r3,36(r2)
    3f2c:	dfc00017 	ldw	ra,0(sp)
    3f30:	dec00104 	addi	sp,sp,4
    3f34:	f800283a 	ret

00003f38 <kann_layer_dense>:
    3f38:	defff804 	addi	sp,sp,-32
    3f3c:	dc800515 	stw	r18,20(sp)
    3f40:	dc000315 	stw	r16,12(sp)
    3f44:	dfc00715 	stw	ra,28(sp)
    3f48:	dcc00615 	stw	r19,24(sp)
    3f4c:	dc400415 	stw	r17,16(sp)
    3f50:	20c00003 	ldbu	r3,0(r4)
    3f54:	00800044 	movi	r2,1
    3f58:	2021883a 	mov	r16,r4
    3f5c:	2825883a 	mov	r18,r5
    3f60:	10c0352e 	bgeu	r2,r3,4038 <kann_layer_dense+0x100>
    3f64:	21000517 	ldw	r4,20(r4)
    3f68:	81400417 	ldw	r5,16(r16)
    3f6c:	00800084 	movi	r2,2
    3f70:	2149383a 	mul	r4,r4,r5
    3f74:	18800626 	beq	r3,r2,3f90 <kann_layer_dense+0x58>
    3f78:	80800617 	ldw	r2,24(r16)
    3f7c:	2089383a 	mul	r4,r4,r2
    3f80:	008000c4 	movi	r2,3
    3f84:	18800226 	beq	r3,r2,3f90 <kann_layer_dense+0x58>
    3f88:	80800717 	ldw	r2,28(r16)
    3f8c:	2089383a 	mul	r4,r4,r2
    3f90:	2144b03a 	or	r2,r4,r5
    3f94:	00c003c4 	movi	r3,15
    3f98:	18802536 	bltu	r3,r2,4030 <kann_layer_dense+0xf8>
    3f9c:	2008913a 	slli	r4,r4,4
    3fa0:	2148b03a 	or	r4,r4,r5
    3fa4:	014000f4 	movhi	r5,3
    3fa8:	29552c04 	addi	r5,r5,21680
    3fac:	2149883a 	add	r4,r4,r5
    3fb0:	20800003 	ldbu	r2,0(r4)
    3fb4:	04400044 	movi	r17,1
    3fb8:	d8800215 	stw	r2,8(sp)
    3fbc:	00800084 	movi	r2,2
    3fc0:	880d883a 	mov	r6,r17
    3fc4:	000f883a 	mov	r7,zero
    3fc8:	000b883a 	mov	r5,zero
    3fcc:	0009883a 	mov	r4,zero
    3fd0:	dc800115 	stw	r18,4(sp)
    3fd4:	d8800015 	stw	r2,0(sp)
    3fd8:	0000b640 	call	b64 <kann_new_leaf2.constprop.10>
    3fdc:	880d883a 	mov	r6,r17
    3fe0:	000f883a 	mov	r7,zero
    3fe4:	dc400015 	stw	r17,0(sp)
    3fe8:	dc800115 	stw	r18,4(sp)
    3fec:	000b883a 	mov	r5,zero
    3ff0:	0009883a 	mov	r4,zero
    3ff4:	1027883a 	mov	r19,r2
    3ff8:	0000b640 	call	b64 <kann_new_leaf2.constprop.10>
    3ffc:	980b883a 	mov	r5,r19
    4000:	8009883a 	mov	r4,r16
    4004:	1023883a 	mov	r17,r2
    4008:	0011f100 	call	11f10 <kad_cmul>
    400c:	880b883a 	mov	r5,r17
    4010:	1009883a 	mov	r4,r2
    4014:	dfc00717 	ldw	ra,28(sp)
    4018:	dcc00617 	ldw	r19,24(sp)
    401c:	dc800517 	ldw	r18,20(sp)
    4020:	dc400417 	ldw	r17,16(sp)
    4024:	dc000317 	ldw	r16,12(sp)
    4028:	dec00804 	addi	sp,sp,32
    402c:	0011be41 	jmpi	11be4 <kad_add>
    4030:	001d1b40 	call	1d1b4 <__divsi3>
    4034:	003fdf06 	br	3fb4 <kann_layer_dense+0x7c>
    4038:	18bfde1e 	bne	r3,r2,3fb4 <kann_layer_dense+0x7c>
    403c:	20800417 	ldw	r2,16(r4)
    4040:	003fdc06 	br	3fb4 <kann_layer_dense+0x7c>

00004044 <kann_layer_dropout>:
    4044:	defffa04 	addi	sp,sp,-24
    4048:	dc000315 	stw	r16,12(sp)
    404c:	04000084 	movi	r16,2
    4050:	280f883a 	mov	r7,r5
    4054:	800d883a 	mov	r6,r16
    4058:	dc400415 	stw	r17,16(sp)
    405c:	000b883a 	mov	r5,zero
    4060:	2023883a 	mov	r17,r4
    4064:	d8000015 	stw	zero,0(sp)
    4068:	0009883a 	mov	r4,zero
    406c:	dfc00515 	stw	ra,20(sp)
    4070:	000079c0 	call	79c <kann_new_leaf2.constprop.11>
    4074:	8809883a 	mov	r4,r17
    4078:	100b883a 	mov	r5,r2
    407c:	dc400115 	stw	r17,4(sp)
    4080:	00142f00 	call	142f0 <kad_dropout>
    4084:	d9400104 	addi	r5,sp,4
    4088:	8009883a 	mov	r4,r16
    408c:	d8800215 	stw	r2,8(sp)
    4090:	00150a00 	call	150a0 <kad_switch>
    4094:	dfc00517 	ldw	ra,20(sp)
    4098:	dc400417 	ldw	r17,16(sp)
    409c:	dc000317 	ldw	r16,12(sp)
    40a0:	dec00604 	addi	sp,sp,24
    40a4:	f800283a 	ret

000040a8 <kann_layer_layernorm>:
    40a8:	defff904 	addi	sp,sp,-28
    40ac:	dc400315 	stw	r17,12(sp)
    40b0:	dc000215 	stw	r16,8(sp)
    40b4:	dfc00615 	stw	ra,24(sp)
    40b8:	dcc00515 	stw	r19,20(sp)
    40bc:	dc800415 	stw	r18,16(sp)
    40c0:	20800003 	ldbu	r2,0(r4)
    40c4:	04400044 	movi	r17,1
    40c8:	2021883a 	mov	r16,r4
    40cc:	8880362e 	bgeu	r17,r2,41a8 <kann_layer_layernorm+0x100>
    40d0:	21000517 	ldw	r4,20(r4)
    40d4:	81400417 	ldw	r5,16(r16)
    40d8:	00c00084 	movi	r3,2
    40dc:	2149383a 	mul	r4,r4,r5
    40e0:	10c00626 	beq	r2,r3,40fc <kann_layer_layernorm+0x54>
    40e4:	80c00617 	ldw	r3,24(r16)
    40e8:	20c9383a 	mul	r4,r4,r3
    40ec:	00c000c4 	movi	r3,3
    40f0:	10c00226 	beq	r2,r3,40fc <kann_layer_layernorm+0x54>
    40f4:	80800717 	ldw	r2,28(r16)
    40f8:	2089383a 	mul	r4,r4,r2
    40fc:	2144b03a 	or	r2,r4,r5
    4100:	00c003c4 	movi	r3,15
    4104:	18802536 	bltu	r3,r2,419c <kann_layer_layernorm+0xf4>
    4108:	2008913a 	slli	r4,r4,4
    410c:	2148b03a 	or	r4,r4,r5
    4110:	014000f4 	movhi	r5,3
    4114:	29552c04 	addi	r5,r5,21680
    4118:	2149883a 	add	r4,r4,r5
    411c:	24400003 	ldbu	r17,0(r4)
    4120:	04800044 	movi	r18,1
    4124:	900d883a 	mov	r6,r18
    4128:	dc400115 	stw	r17,4(sp)
    412c:	01cfe034 	movhi	r7,16256
    4130:	000b883a 	mov	r5,zero
    4134:	0009883a 	mov	r4,zero
    4138:	dc800015 	stw	r18,0(sp)
    413c:	0000b640 	call	b64 <kann_new_leaf2.constprop.10>
    4140:	000f883a 	mov	r7,zero
    4144:	900d883a 	mov	r6,r18
    4148:	000b883a 	mov	r5,zero
    414c:	dc400115 	stw	r17,4(sp)
    4150:	dc800015 	stw	r18,0(sp)
    4154:	0009883a 	mov	r4,zero
    4158:	1027883a 	mov	r19,r2
    415c:	0000b640 	call	b64 <kann_new_leaf2.constprop.10>
    4160:	8009883a 	mov	r4,r16
    4164:	1023883a 	mov	r17,r2
    4168:	0012e7c0 	call	12e7c <kad_stdnorm>
    416c:	980b883a 	mov	r5,r19
    4170:	1009883a 	mov	r4,r2
    4174:	0011e040 	call	11e04 <kad_mul>
    4178:	880b883a 	mov	r5,r17
    417c:	1009883a 	mov	r4,r2
    4180:	dfc00617 	ldw	ra,24(sp)
    4184:	dcc00517 	ldw	r19,20(sp)
    4188:	dc800417 	ldw	r18,16(sp)
    418c:	dc400317 	ldw	r17,12(sp)
    4190:	dc000217 	ldw	r16,8(sp)
    4194:	dec00704 	addi	sp,sp,28
    4198:	0011be41 	jmpi	11be4 <kad_add>
    419c:	001d1b40 	call	1d1b4 <__divsi3>
    41a0:	1023883a 	mov	r17,r2
    41a4:	003fde06 	br	4120 <kann_layer_layernorm+0x78>
    41a8:	147fdd1e 	bne	r2,r17,4120 <kann_layer_layernorm+0x78>
    41ac:	24400417 	ldw	r17,16(r4)
    41b0:	003fdb06 	br	4120 <kann_layer_layernorm+0x78>

000041b4 <kann_layer_rnn>:
    41b4:	defffa04 	addi	sp,sp,-24
    41b8:	dcc00415 	stw	r19,16(sp)
    41bc:	dc800315 	stw	r18,12(sp)
    41c0:	dc400215 	stw	r17,8(sp)
    41c4:	dfc00515 	stw	ra,20(sp)
    41c8:	dc000115 	stw	r16,4(sp)
    41cc:	3080004c 	andi	r2,r6,1
    41d0:	3023883a 	mov	r17,r6
    41d4:	2027883a 	mov	r19,r4
    41d8:	2825883a 	mov	r18,r5
    41dc:	1000171e 	bne	r2,zero,423c <kann_layer_rnn+0x88>
    41e0:	280f883a 	mov	r7,r5
    41e4:	01800044 	movi	r6,1
    41e8:	01400084 	movi	r5,2
    41ec:	0009883a 	mov	r4,zero
    41f0:	0011a440 	call	11a44 <kad_const>
    41f4:	1021883a 	mov	r16,r2
    41f8:	9009883a 	mov	r4,r18
    41fc:	01400104 	movi	r5,4
    4200:	00211ec0 	call	211ec <calloc>
    4204:	80800a15 	stw	r2,40(r16)
    4208:	dc400015 	stw	r17,0(sp)
    420c:	800f883a 	mov	r7,r16
    4210:	980d883a 	mov	r6,r19
    4214:	000b883a 	mov	r5,zero
    4218:	0009883a 	mov	r4,zero
    421c:	0002c180 	call	2c18 <kann_layer_rnn2>
    4220:	dfc00517 	ldw	ra,20(sp)
    4224:	dcc00417 	ldw	r19,16(sp)
    4228:	dc800317 	ldw	r18,12(sp)
    422c:	dc400217 	ldw	r17,8(sp)
    4230:	dc000117 	ldw	r16,4(sp)
    4234:	dec00604 	addi	sp,sp,24
    4238:	f800283a 	ret
    423c:	d9400015 	stw	r5,0(sp)
    4240:	01c00044 	movi	r7,1
    4244:	01800084 	movi	r6,2
    4248:	000b883a 	mov	r5,zero
    424c:	0009883a 	mov	r4,zero
    4250:	0011b500 	call	11b50 <kad_var>
    4254:	1021883a 	mov	r16,r2
    4258:	003fe706 	br	41f8 <kann_layer_rnn+0x44>

0000425c <kann_layer_gru>:
    425c:	defffa04 	addi	sp,sp,-24
    4260:	dcc00415 	stw	r19,16(sp)
    4264:	dc800315 	stw	r18,12(sp)
    4268:	dc400215 	stw	r17,8(sp)
    426c:	dfc00515 	stw	ra,20(sp)
    4270:	dc000115 	stw	r16,4(sp)
    4274:	3080004c 	andi	r2,r6,1
    4278:	3023883a 	mov	r17,r6
    427c:	2027883a 	mov	r19,r4
    4280:	2825883a 	mov	r18,r5
    4284:	1000171e 	bne	r2,zero,42e4 <kann_layer_gru+0x88>
    4288:	280f883a 	mov	r7,r5
    428c:	01800044 	movi	r6,1
    4290:	01400084 	movi	r5,2
    4294:	0009883a 	mov	r4,zero
    4298:	0011a440 	call	11a44 <kad_const>
    429c:	1021883a 	mov	r16,r2
    42a0:	9009883a 	mov	r4,r18
    42a4:	01400104 	movi	r5,4
    42a8:	00211ec0 	call	211ec <calloc>
    42ac:	80800a15 	stw	r2,40(r16)
    42b0:	dc400015 	stw	r17,0(sp)
    42b4:	800f883a 	mov	r7,r16
    42b8:	980d883a 	mov	r6,r19
    42bc:	000b883a 	mov	r5,zero
    42c0:	0009883a 	mov	r4,zero
    42c4:	0002f940 	call	2f94 <kann_layer_gru2>
    42c8:	dfc00517 	ldw	ra,20(sp)
    42cc:	dcc00417 	ldw	r19,16(sp)
    42d0:	dc800317 	ldw	r18,12(sp)
    42d4:	dc400217 	ldw	r17,8(sp)
    42d8:	dc000117 	ldw	r16,4(sp)
    42dc:	dec00604 	addi	sp,sp,24
    42e0:	f800283a 	ret
    42e4:	d9400015 	stw	r5,0(sp)
    42e8:	01c00044 	movi	r7,1
    42ec:	01800084 	movi	r6,2
    42f0:	000b883a 	mov	r5,zero
    42f4:	0009883a 	mov	r4,zero
    42f8:	0011b500 	call	11b50 <kad_var>
    42fc:	1021883a 	mov	r16,r2
    4300:	003fe706 	br	42a0 <kann_layer_gru+0x44>

00004304 <kann_layer_lstm>:
    4304:	deffef04 	addi	sp,sp,-68
    4308:	3080008c 	andi	r2,r6,2
    430c:	dd000b15 	stw	r20,44(sp)
    4310:	dc000715 	stw	r16,28(sp)
    4314:	dfc01015 	stw	ra,64(sp)
    4318:	df000f15 	stw	fp,60(sp)
    431c:	ddc00e15 	stw	r23,56(sp)
    4320:	dd800d15 	stw	r22,52(sp)
    4324:	dd400c15 	stw	r21,48(sp)
    4328:	dcc00a15 	stw	r19,40(sp)
    432c:	dc800915 	stw	r18,36(sp)
    4330:	dc400815 	stw	r17,32(sp)
    4334:	d8800215 	stw	r2,8(sp)
    4338:	2029883a 	mov	r20,r4
    433c:	2821883a 	mov	r16,r5
    4340:	1000ef1e 	bne	r2,zero,4700 <kann_layer_lstm+0x3fc>
    4344:	a0800003 	ldbu	r2,0(r20)
    4348:	04c00074 	movhi	r19,1
    434c:	05400044 	movi	r21,1
    4350:	9cc7c404 	addi	r19,r19,7952
    4354:	a880ef2e 	bgeu	r21,r2,4714 <kann_layer_lstm+0x410>
    4358:	a1000517 	ldw	r4,20(r20)
    435c:	a1400417 	ldw	r5,16(r20)
    4360:	00c00084 	movi	r3,2
    4364:	2149383a 	mul	r4,r4,r5
    4368:	10c00626 	beq	r2,r3,4384 <kann_layer_lstm+0x80>
    436c:	a0c00617 	ldw	r3,24(r20)
    4370:	20c9383a 	mul	r4,r4,r3
    4374:	00c000c4 	movi	r3,3
    4378:	10c00226 	beq	r2,r3,4384 <kann_layer_lstm+0x80>
    437c:	a0800717 	ldw	r2,28(r20)
    4380:	2089383a 	mul	r4,r4,r2
    4384:	2144b03a 	or	r2,r4,r5
    4388:	00c003c4 	movi	r3,15
    438c:	1880f636 	bltu	r3,r2,4768 <kann_layer_lstm+0x464>
    4390:	2008913a 	slli	r4,r4,4
    4394:	2148b03a 	or	r4,r4,r5
    4398:	014000f4 	movhi	r5,3
    439c:	29552c04 	addi	r5,r5,21680
    43a0:	2149883a 	add	r4,r4,r5
    43a4:	25400003 	ldbu	r21,0(r4)
    43a8:	3180004c 	andi	r6,r6,1
    43ac:	3000dd26 	beq	r6,zero,4724 <kann_layer_lstm+0x420>
    43b0:	01c00044 	movi	r7,1
    43b4:	01800084 	movi	r6,2
    43b8:	000b883a 	mov	r5,zero
    43bc:	0009883a 	mov	r4,zero
    43c0:	dc000015 	stw	r16,0(sp)
    43c4:	0011b500 	call	11b50 <kad_var>
    43c8:	01400104 	movi	r5,4
    43cc:	8009883a 	mov	r4,r16
    43d0:	102d883a 	mov	r22,r2
    43d4:	00211ec0 	call	211ec <calloc>
    43d8:	b0800a15 	stw	r2,40(r22)
    43dc:	dc000015 	stw	r16,0(sp)
    43e0:	01c00044 	movi	r7,1
    43e4:	01800084 	movi	r6,2
    43e8:	000b883a 	mov	r5,zero
    43ec:	0009883a 	mov	r4,zero
    43f0:	0011b500 	call	11b50 <kad_var>
    43f4:	102f883a 	mov	r23,r2
    43f8:	8009883a 	mov	r4,r16
    43fc:	01400104 	movi	r5,4
    4400:	00211ec0 	call	211ec <calloc>
    4404:	04400044 	movi	r17,1
    4408:	04800084 	movi	r18,2
    440c:	b8800a15 	stw	r2,40(r23)
    4410:	800f883a 	mov	r7,r16
    4414:	900d883a 	mov	r6,r18
    4418:	000b883a 	mov	r5,zero
    441c:	8809883a 	mov	r4,r17
    4420:	dd400015 	stw	r21,0(sp)
    4424:	00008f80 	call	8f8 <kann_new_leaf.constprop.4>
    4428:	800f883a 	mov	r7,r16
    442c:	000b883a 	mov	r5,zero
    4430:	8809883a 	mov	r4,r17
    4434:	dc000015 	stw	r16,0(sp)
    4438:	900d883a 	mov	r6,r18
    443c:	d8800615 	stw	r2,24(sp)
    4440:	00008f80 	call	8f8 <kann_new_leaf.constprop.4>
    4444:	800f883a 	mov	r7,r16
    4448:	880d883a 	mov	r6,r17
    444c:	000b883a 	mov	r5,zero
    4450:	8809883a 	mov	r4,r17
    4454:	d8800515 	stw	r2,20(sp)
    4458:	00008f80 	call	8f8 <kann_new_leaf.constprop.4>
    445c:	d8c00617 	ldw	r3,24(sp)
    4460:	a009883a 	mov	r4,r20
    4464:	1039883a 	mov	fp,r2
    4468:	180b883a 	mov	r5,r3
    446c:	983ee83a 	callr	r19
    4470:	da000517 	ldw	r8,20(sp)
    4474:	b009883a 	mov	r4,r22
    4478:	d8800615 	stw	r2,24(sp)
    447c:	400b883a 	mov	r5,r8
    4480:	983ee83a 	callr	r19
    4484:	d8c00617 	ldw	r3,24(sp)
    4488:	100b883a 	mov	r5,r2
    448c:	1809883a 	mov	r4,r3
    4490:	0011be40 	call	11be4 <kad_add>
    4494:	e00b883a 	mov	r5,fp
    4498:	1009883a 	mov	r4,r2
    449c:	0011be40 	call	11be4 <kad_add>
    44a0:	1009883a 	mov	r4,r2
    44a4:	00129680 	call	12968 <kad_sigm>
    44a8:	800f883a 	mov	r7,r16
    44ac:	900d883a 	mov	r6,r18
    44b0:	000b883a 	mov	r5,zero
    44b4:	8809883a 	mov	r4,r17
    44b8:	dd400015 	stw	r21,0(sp)
    44bc:	d8800615 	stw	r2,24(sp)
    44c0:	00008f80 	call	8f8 <kann_new_leaf.constprop.4>
    44c4:	800f883a 	mov	r7,r16
    44c8:	000b883a 	mov	r5,zero
    44cc:	8809883a 	mov	r4,r17
    44d0:	dc000015 	stw	r16,0(sp)
    44d4:	900d883a 	mov	r6,r18
    44d8:	d8800415 	stw	r2,16(sp)
    44dc:	00008f80 	call	8f8 <kann_new_leaf.constprop.4>
    44e0:	800f883a 	mov	r7,r16
    44e4:	880d883a 	mov	r6,r17
    44e8:	014fe034 	movhi	r5,16256
    44ec:	8809883a 	mov	r4,r17
    44f0:	d8800515 	stw	r2,20(sp)
    44f4:	00008f80 	call	8f8 <kann_new_leaf.constprop.4>
    44f8:	da400417 	ldw	r9,16(sp)
    44fc:	a009883a 	mov	r4,r20
    4500:	1039883a 	mov	fp,r2
    4504:	480b883a 	mov	r5,r9
    4508:	983ee83a 	callr	r19
    450c:	da000517 	ldw	r8,20(sp)
    4510:	b009883a 	mov	r4,r22
    4514:	d8800315 	stw	r2,12(sp)
    4518:	400b883a 	mov	r5,r8
    451c:	983ee83a 	callr	r19
    4520:	d9800317 	ldw	r6,12(sp)
    4524:	100b883a 	mov	r5,r2
    4528:	3009883a 	mov	r4,r6
    452c:	0011be40 	call	11be4 <kad_add>
    4530:	e00b883a 	mov	r5,fp
    4534:	1009883a 	mov	r4,r2
    4538:	0011be40 	call	11be4 <kad_add>
    453c:	1009883a 	mov	r4,r2
    4540:	00129680 	call	12968 <kad_sigm>
    4544:	800f883a 	mov	r7,r16
    4548:	900d883a 	mov	r6,r18
    454c:	000b883a 	mov	r5,zero
    4550:	8809883a 	mov	r4,r17
    4554:	dd400015 	stw	r21,0(sp)
    4558:	d8800515 	stw	r2,20(sp)
    455c:	00008f80 	call	8f8 <kann_new_leaf.constprop.4>
    4560:	800f883a 	mov	r7,r16
    4564:	000b883a 	mov	r5,zero
    4568:	8809883a 	mov	r4,r17
    456c:	dc000015 	stw	r16,0(sp)
    4570:	900d883a 	mov	r6,r18
    4574:	d8800315 	stw	r2,12(sp)
    4578:	00008f80 	call	8f8 <kann_new_leaf.constprop.4>
    457c:	800f883a 	mov	r7,r16
    4580:	880d883a 	mov	r6,r17
    4584:	000b883a 	mov	r5,zero
    4588:	8809883a 	mov	r4,r17
    458c:	d8800415 	stw	r2,16(sp)
    4590:	00008f80 	call	8f8 <kann_new_leaf.constprop.4>
    4594:	da800317 	ldw	r10,12(sp)
    4598:	a009883a 	mov	r4,r20
    459c:	1039883a 	mov	fp,r2
    45a0:	500b883a 	mov	r5,r10
    45a4:	983ee83a 	callr	r19
    45a8:	da400417 	ldw	r9,16(sp)
    45ac:	b009883a 	mov	r4,r22
    45b0:	d8800315 	stw	r2,12(sp)
    45b4:	480b883a 	mov	r5,r9
    45b8:	983ee83a 	callr	r19
    45bc:	d9800317 	ldw	r6,12(sp)
    45c0:	100b883a 	mov	r5,r2
    45c4:	3009883a 	mov	r4,r6
    45c8:	0011be40 	call	11be4 <kad_add>
    45cc:	e00b883a 	mov	r5,fp
    45d0:	1009883a 	mov	r4,r2
    45d4:	0011be40 	call	11be4 <kad_add>
    45d8:	1009883a 	mov	r4,r2
    45dc:	00129680 	call	12968 <kad_sigm>
    45e0:	800f883a 	mov	r7,r16
    45e4:	900d883a 	mov	r6,r18
    45e8:	000b883a 	mov	r5,zero
    45ec:	8809883a 	mov	r4,r17
    45f0:	dd400015 	stw	r21,0(sp)
    45f4:	1039883a 	mov	fp,r2
    45f8:	00008f80 	call	8f8 <kann_new_leaf.constprop.4>
    45fc:	800f883a 	mov	r7,r16
    4600:	000b883a 	mov	r5,zero
    4604:	8809883a 	mov	r4,r17
    4608:	dc000015 	stw	r16,0(sp)
    460c:	900d883a 	mov	r6,r18
    4610:	d8800415 	stw	r2,16(sp)
    4614:	00008f80 	call	8f8 <kann_new_leaf.constprop.4>
    4618:	800f883a 	mov	r7,r16
    461c:	880d883a 	mov	r6,r17
    4620:	000b883a 	mov	r5,zero
    4624:	8809883a 	mov	r4,r17
    4628:	102b883a 	mov	r21,r2
    462c:	00008f80 	call	8f8 <kann_new_leaf.constprop.4>
    4630:	da400417 	ldw	r9,16(sp)
    4634:	a009883a 	mov	r4,r20
    4638:	1021883a 	mov	r16,r2
    463c:	480b883a 	mov	r5,r9
    4640:	983ee83a 	callr	r19
    4644:	a80b883a 	mov	r5,r21
    4648:	b009883a 	mov	r4,r22
    464c:	1029883a 	mov	r20,r2
    4650:	983ee83a 	callr	r19
    4654:	100b883a 	mov	r5,r2
    4658:	a009883a 	mov	r4,r20
    465c:	0011be40 	call	11be4 <kad_add>
    4660:	800b883a 	mov	r5,r16
    4664:	1009883a 	mov	r4,r2
    4668:	0011be40 	call	11be4 <kad_add>
    466c:	1009883a 	mov	r4,r2
    4670:	0012a6c0 	call	12a6c <kad_tanh>
    4674:	da000517 	ldw	r8,20(sp)
    4678:	b80b883a 	mov	r5,r23
    467c:	1027883a 	mov	r19,r2
    4680:	4009883a 	mov	r4,r8
    4684:	0011e040 	call	11e04 <kad_mul>
    4688:	d8c00617 	ldw	r3,24(sp)
    468c:	9809883a 	mov	r4,r19
    4690:	1021883a 	mov	r16,r2
    4694:	180b883a 	mov	r5,r3
    4698:	0011e040 	call	11e04 <kad_mul>
    469c:	8009883a 	mov	r4,r16
    46a0:	100b883a 	mov	r5,r2
    46a4:	0011be40 	call	11be4 <kad_add>
    46a8:	1021883a 	mov	r16,r2
    46ac:	15c00f15 	stw	r23,60(r2)
    46b0:	d8800217 	ldw	r2,8(sp)
    46b4:	1000311e 	bne	r2,zero,477c <kann_layer_lstm+0x478>
    46b8:	8009883a 	mov	r4,r16
    46bc:	0012a6c0 	call	12a6c <kad_tanh>
    46c0:	e00b883a 	mov	r5,fp
    46c4:	1009883a 	mov	r4,r2
    46c8:	0011e040 	call	11e04 <kad_mul>
    46cc:	15800f15 	stw	r22,60(r2)
    46d0:	dfc01017 	ldw	ra,64(sp)
    46d4:	df000f17 	ldw	fp,60(sp)
    46d8:	ddc00e17 	ldw	r23,56(sp)
    46dc:	dd800d17 	ldw	r22,52(sp)
    46e0:	dd400c17 	ldw	r21,48(sp)
    46e4:	dd000b17 	ldw	r20,44(sp)
    46e8:	dcc00a17 	ldw	r19,40(sp)
    46ec:	dc800917 	ldw	r18,36(sp)
    46f0:	dc400817 	ldw	r17,32(sp)
    46f4:	dc000717 	ldw	r16,28(sp)
    46f8:	dec01104 	addi	sp,sp,68
    46fc:	f800283a 	ret
    4700:	a0800003 	ldbu	r2,0(r20)
    4704:	04c00034 	movhi	r19,0
    4708:	05400044 	movi	r21,1
    470c:	9cc39104 	addi	r19,r19,3652
    4710:	a8bf1136 	bltu	r21,r2,4358 <kann_layer_lstm+0x54>
    4714:	157f241e 	bne	r2,r21,43a8 <kann_layer_lstm+0xa4>
    4718:	3180004c 	andi	r6,r6,1
    471c:	a5400417 	ldw	r21,16(r20)
    4720:	303f231e 	bne	r6,zero,43b0 <kann_layer_lstm+0xac>
    4724:	800f883a 	mov	r7,r16
    4728:	01800044 	movi	r6,1
    472c:	01400084 	movi	r5,2
    4730:	0009883a 	mov	r4,zero
    4734:	0011a440 	call	11a44 <kad_const>
    4738:	01400104 	movi	r5,4
    473c:	8009883a 	mov	r4,r16
    4740:	102d883a 	mov	r22,r2
    4744:	00211ec0 	call	211ec <calloc>
    4748:	b0800a15 	stw	r2,40(r22)
    474c:	800f883a 	mov	r7,r16
    4750:	01800044 	movi	r6,1
    4754:	01400084 	movi	r5,2
    4758:	0009883a 	mov	r4,zero
    475c:	0011a440 	call	11a44 <kad_const>
    4760:	102f883a 	mov	r23,r2
    4764:	003f2406 	br	43f8 <kann_layer_lstm+0xf4>
    4768:	d9800315 	stw	r6,12(sp)
    476c:	001d1b40 	call	1d1b4 <__divsi3>
    4770:	102b883a 	mov	r21,r2
    4774:	d9800317 	ldw	r6,12(sp)
    4778:	003f0b06 	br	43a8 <kann_layer_lstm+0xa4>
    477c:	80800003 	ldbu	r2,0(r16)
    4780:	8880312e 	bgeu	r17,r2,4848 <kann_layer_lstm+0x544>
    4784:	81000517 	ldw	r4,20(r16)
    4788:	81400417 	ldw	r5,16(r16)
    478c:	2149383a 	mul	r4,r4,r5
    4790:	14800626 	beq	r2,r18,47ac <kann_layer_lstm+0x4a8>
    4794:	80c00617 	ldw	r3,24(r16)
    4798:	20c9383a 	mul	r4,r4,r3
    479c:	00c000c4 	movi	r3,3
    47a0:	10c00226 	beq	r2,r3,47ac <kann_layer_lstm+0x4a8>
    47a4:	80800717 	ldw	r2,28(r16)
    47a8:	2089383a 	mul	r4,r4,r2
    47ac:	2144b03a 	or	r2,r4,r5
    47b0:	00c003c4 	movi	r3,15
    47b4:	18802136 	bltu	r3,r2,483c <kann_layer_lstm+0x538>
    47b8:	2008913a 	slli	r4,r4,4
    47bc:	2148b03a 	or	r4,r4,r5
    47c0:	014000f4 	movhi	r5,3
    47c4:	29552c04 	addi	r5,r5,21680
    47c8:	2149883a 	add	r4,r4,r5
    47cc:	24400003 	ldbu	r17,0(r4)
    47d0:	04800044 	movi	r18,1
    47d4:	01cfe034 	movhi	r7,16256
    47d8:	900d883a 	mov	r6,r18
    47dc:	000b883a 	mov	r5,zero
    47e0:	0009883a 	mov	r4,zero
    47e4:	dc400115 	stw	r17,4(sp)
    47e8:	dc800015 	stw	r18,0(sp)
    47ec:	0000b640 	call	b64 <kann_new_leaf2.constprop.10>
    47f0:	000f883a 	mov	r7,zero
    47f4:	900d883a 	mov	r6,r18
    47f8:	000b883a 	mov	r5,zero
    47fc:	dc400115 	stw	r17,4(sp)
    4800:	0009883a 	mov	r4,zero
    4804:	dc800015 	stw	r18,0(sp)
    4808:	1027883a 	mov	r19,r2
    480c:	0000b640 	call	b64 <kann_new_leaf2.constprop.10>
    4810:	8009883a 	mov	r4,r16
    4814:	1023883a 	mov	r17,r2
    4818:	0012e7c0 	call	12e7c <kad_stdnorm>
    481c:	980b883a 	mov	r5,r19
    4820:	1009883a 	mov	r4,r2
    4824:	0011e040 	call	11e04 <kad_mul>
    4828:	880b883a 	mov	r5,r17
    482c:	1009883a 	mov	r4,r2
    4830:	0011be40 	call	11be4 <kad_add>
    4834:	1021883a 	mov	r16,r2
    4838:	003f9f06 	br	46b8 <kann_layer_lstm+0x3b4>
    483c:	001d1b40 	call	1d1b4 <__divsi3>
    4840:	1023883a 	mov	r17,r2
    4844:	003fe206 	br	47d0 <kann_layer_lstm+0x4cc>
    4848:	147fe11e 	bne	r2,r17,47d0 <kann_layer_lstm+0x4cc>
    484c:	84400417 	ldw	r17,16(r16)
    4850:	003fdf06 	br	47d0 <kann_layer_lstm+0x4cc>

00004854 <kann_layer_conv2d>:
    4854:	20800517 	ldw	r2,20(r4)
    4858:	defff704 	addi	sp,sp,-36
    485c:	dd000715 	stw	r20,28(sp)
    4860:	dc400415 	stw	r17,16(sp)
    4864:	dd000a17 	ldw	r20,40(sp)
    4868:	dc400917 	ldw	r17,36(sp)
    486c:	dcc00615 	stw	r19,24(sp)
    4870:	dc800515 	stw	r18,20(sp)
    4874:	dc000315 	stw	r16,12(sp)
    4878:	dc800b17 	ldw	r18,44(sp)
    487c:	2021883a 	mov	r16,r4
    4880:	dcc00c17 	ldw	r19,48(sp)
    4884:	d9c00215 	stw	r7,8(sp)
    4888:	d9800115 	stw	r6,4(sp)
    488c:	280f883a 	mov	r7,r5
    4890:	01800104 	movi	r6,4
    4894:	000b883a 	mov	r5,zero
    4898:	01000044 	movi	r4,1
    489c:	d8800015 	stw	r2,0(sp)
    48a0:	dfc00815 	stw	ra,32(sp)
    48a4:	00008f80 	call	8f8 <kann_new_leaf.constprop.4>
    48a8:	a00f883a 	mov	r7,r20
    48ac:	880d883a 	mov	r6,r17
    48b0:	100b883a 	mov	r5,r2
    48b4:	8009883a 	mov	r4,r16
    48b8:	dcc00a15 	stw	r19,40(sp)
    48bc:	dc800915 	stw	r18,36(sp)
    48c0:	dfc00817 	ldw	ra,32(sp)
    48c4:	dd000717 	ldw	r20,28(sp)
    48c8:	dcc00617 	ldw	r19,24(sp)
    48cc:	dc800517 	ldw	r18,20(sp)
    48d0:	dc400417 	ldw	r17,16(sp)
    48d4:	dc000317 	ldw	r16,12(sp)
    48d8:	dec00904 	addi	sp,sp,36
    48dc:	0012f801 	jmpi	12f80 <kad_conv2d>

000048e0 <kann_layer_conv1d>:
    48e0:	20800517 	ldw	r2,20(r4)
    48e4:	defffa04 	addi	sp,sp,-24
    48e8:	dc800415 	stw	r18,16(sp)
    48ec:	dc800617 	ldw	r18,24(sp)
    48f0:	dc400315 	stw	r17,12(sp)
    48f4:	dc000215 	stw	r16,8(sp)
    48f8:	3823883a 	mov	r17,r7
    48fc:	2021883a 	mov	r16,r4
    4900:	d9800115 	stw	r6,4(sp)
    4904:	280f883a 	mov	r7,r5
    4908:	d8800015 	stw	r2,0(sp)
    490c:	018000c4 	movi	r6,3
    4910:	000b883a 	mov	r5,zero
    4914:	01000044 	movi	r4,1
    4918:	dfc00515 	stw	ra,20(sp)
    491c:	00008f80 	call	8f8 <kann_new_leaf.constprop.4>
    4920:	900f883a 	mov	r7,r18
    4924:	880d883a 	mov	r6,r17
    4928:	100b883a 	mov	r5,r2
    492c:	8009883a 	mov	r4,r16
    4930:	dfc00517 	ldw	ra,20(sp)
    4934:	dc800417 	ldw	r18,16(sp)
    4938:	dc400317 	ldw	r17,12(sp)
    493c:	dc000217 	ldw	r16,8(sp)
    4940:	dec00604 	addi	sp,sp,24
    4944:	00135141 	jmpi	13514 <kad_conv1d>

00004948 <kann_layer_cost>:
    4948:	defff504 	addi	sp,sp,-44
    494c:	dc800515 	stw	r18,20(sp)
    4950:	30bfffc4 	addi	r2,r6,-1
    4954:	3025883a 	mov	r18,r6
    4958:	dfc00a15 	stw	ra,40(sp)
    495c:	dd800915 	stw	r22,36(sp)
    4960:	dd400815 	stw	r21,32(sp)
    4964:	dd000715 	stw	r20,28(sp)
    4968:	dcc00615 	stw	r19,24(sp)
    496c:	dc400415 	stw	r17,16(sp)
    4970:	dc000315 	stw	r16,12(sp)
    4974:	018000c4 	movi	r6,3
    4978:	30807036 	bltu	r6,r2,4b3c <kann_layer_cost+0x1f4>
    497c:	20c00003 	ldbu	r3,0(r4)
    4980:	00800044 	movi	r2,1
    4984:	2023883a 	mov	r17,r4
    4988:	2827883a 	mov	r19,r5
    498c:	10c0542e 	bgeu	r2,r3,4ae0 <kann_layer_cost+0x198>
    4990:	21000517 	ldw	r4,20(r4)
    4994:	89400417 	ldw	r5,16(r17)
    4998:	00800084 	movi	r2,2
    499c:	2149383a 	mul	r4,r4,r5
    49a0:	18800526 	beq	r3,r2,49b8 <kann_layer_cost+0x70>
    49a4:	88800617 	ldw	r2,24(r17)
    49a8:	2089383a 	mul	r4,r4,r2
    49ac:	19800226 	beq	r3,r6,49b8 <kann_layer_cost+0x70>
    49b0:	88800717 	ldw	r2,28(r17)
    49b4:	2089383a 	mul	r4,r4,r2
    49b8:	2144b03a 	or	r2,r4,r5
    49bc:	00c003c4 	movi	r3,15
    49c0:	18804536 	bltu	r3,r2,4ad8 <kann_layer_cost+0x190>
    49c4:	2008913a 	slli	r4,r4,4
    49c8:	2148b03a 	or	r4,r4,r5
    49cc:	014000f4 	movhi	r5,3
    49d0:	29552c04 	addi	r5,r5,21680
    49d4:	2149883a 	add	r4,r4,r5
    49d8:	20800003 	ldbu	r2,0(r4)
    49dc:	04000044 	movi	r16,1
    49e0:	05000084 	movi	r20,2
    49e4:	000f883a 	mov	r7,zero
    49e8:	800d883a 	mov	r6,r16
    49ec:	000b883a 	mov	r5,zero
    49f0:	0009883a 	mov	r4,zero
    49f4:	dcc00115 	stw	r19,4(sp)
    49f8:	d8800215 	stw	r2,8(sp)
    49fc:	dd000015 	stw	r20,0(sp)
    4a00:	0000b640 	call	b64 <kann_new_leaf2.constprop.10>
    4a04:	000f883a 	mov	r7,zero
    4a08:	800d883a 	mov	r6,r16
    4a0c:	dcc00115 	stw	r19,4(sp)
    4a10:	000b883a 	mov	r5,zero
    4a14:	0009883a 	mov	r4,zero
    4a18:	dc000015 	stw	r16,0(sp)
    4a1c:	102d883a 	mov	r22,r2
    4a20:	0000b640 	call	b64 <kann_new_leaf2.constprop.10>
    4a24:	8809883a 	mov	r4,r17
    4a28:	b00b883a 	mov	r5,r22
    4a2c:	102b883a 	mov	r21,r2
    4a30:	0011f100 	call	11f10 <kad_cmul>
    4a34:	a80b883a 	mov	r5,r21
    4a38:	1009883a 	mov	r4,r2
    4a3c:	0011be40 	call	11be4 <kad_add>
    4a40:	980d883a 	mov	r6,r19
    4a44:	800b883a 	mov	r5,r16
    4a48:	a009883a 	mov	r4,r20
    4a4c:	1023883a 	mov	r17,r2
    4a50:	0011ad00 	call	11ad0 <kad_feed>
    4a54:	1027883a 	mov	r19,r2
    4a58:	10800917 	ldw	r2,36(r2)
    4a5c:	10800114 	ori	r2,r2,4
    4a60:	98800915 	stw	r2,36(r19)
    4a64:	00800104 	movi	r2,4
    4a68:	90802026 	beq	r18,r2,4aec <kann_layer_cost+0x1a4>
    4a6c:	94002426 	beq	r18,r16,4b00 <kann_layer_cost+0x1b8>
    4a70:	008000c4 	movi	r2,3
    4a74:	8809883a 	mov	r4,r17
    4a78:	90802926 	beq	r18,r2,4b20 <kann_layer_cost+0x1d8>
    4a7c:	0012d780 	call	12d78 <kad_softmax>
    4a80:	1009883a 	mov	r4,r2
    4a84:	980b883a 	mov	r5,r19
    4a88:	1023883a 	mov	r17,r2
    4a8c:	00121280 	call	12128 <kad_ce_multi>
    4a90:	1009883a 	mov	r4,r2
    4a94:	88c00917 	ldw	r3,36(r17)
    4a98:	2005883a 	mov	r2,r4
    4a9c:	18c00094 	ori	r3,r3,2
    4aa0:	88c00915 	stw	r3,36(r17)
    4aa4:	20c00917 	ldw	r3,36(r4)
    4aa8:	18c00214 	ori	r3,r3,8
    4aac:	20c00915 	stw	r3,36(r4)
    4ab0:	dfc00a17 	ldw	ra,40(sp)
    4ab4:	dd800917 	ldw	r22,36(sp)
    4ab8:	dd400817 	ldw	r21,32(sp)
    4abc:	dd000717 	ldw	r20,28(sp)
    4ac0:	dcc00617 	ldw	r19,24(sp)
    4ac4:	dc800517 	ldw	r18,20(sp)
    4ac8:	dc400417 	ldw	r17,16(sp)
    4acc:	dc000317 	ldw	r16,12(sp)
    4ad0:	dec00b04 	addi	sp,sp,44
    4ad4:	f800283a 	ret
    4ad8:	001d1b40 	call	1d1b4 <__divsi3>
    4adc:	003fbf06 	br	49dc <kann_layer_cost+0x94>
    4ae0:	18bfbe1e 	bne	r3,r2,49dc <kann_layer_cost+0x94>
    4ae4:	20800417 	ldw	r2,16(r4)
    4ae8:	003fbc06 	br	49dc <kann_layer_cost+0x94>
    4aec:	8809883a 	mov	r4,r17
    4af0:	980b883a 	mov	r5,r19
    4af4:	001244c0 	call	1244c <kad_mse>
    4af8:	1009883a 	mov	r4,r2
    4afc:	003fe506 	br	4a94 <kann_layer_cost+0x14c>
    4b00:	8809883a 	mov	r4,r17
    4b04:	00129680 	call	12968 <kad_sigm>
    4b08:	1009883a 	mov	r4,r2
    4b0c:	980b883a 	mov	r5,r19
    4b10:	1023883a 	mov	r17,r2
    4b14:	00122340 	call	12234 <kad_ce_bin>
    4b18:	1009883a 	mov	r4,r2
    4b1c:	003fdd06 	br	4a94 <kann_layer_cost+0x14c>
    4b20:	0012a6c0 	call	12a6c <kad_tanh>
    4b24:	1009883a 	mov	r4,r2
    4b28:	980b883a 	mov	r5,r19
    4b2c:	1023883a 	mov	r17,r2
    4b30:	00123400 	call	12340 <kad_ce_bin_neg>
    4b34:	1009883a 	mov	r4,r2
    4b38:	003fd606 	br	4a94 <kann_layer_cost+0x14c>
    4b3c:	01c000f4 	movhi	r7,3
    4b40:	018000f4 	movhi	r6,3
    4b44:	010000f4 	movhi	r4,3
    4b48:	39d0be04 	addi	r7,r7,17144
    4b4c:	3190ee04 	addi	r6,r6,17336
    4b50:	2110b104 	addi	r4,r4,17092
    4b54:	0140b5c4 	movi	r5,727
    4b58:	00211700 	call	21170 <__assert_func>

00004b5c <kann_shuffle>:
    4b5c:	0100340e 	bge	zero,r4,4c30 <kann_shuffle+0xd4>
    4b60:	defffa04 	addi	sp,sp,-24
    4b64:	dc800215 	stw	r18,8(sp)
    4b68:	dc000015 	stw	r16,0(sp)
    4b6c:	dfc00515 	stw	ra,20(sp)
    4b70:	dd000415 	stw	r20,16(sp)
    4b74:	dcc00315 	stw	r19,12(sp)
    4b78:	dc400115 	stw	r17,4(sp)
    4b7c:	2021883a 	mov	r16,r4
    4b80:	2825883a 	mov	r18,r5
    4b84:	2807883a 	mov	r3,r5
    4b88:	0005883a 	mov	r2,zero
    4b8c:	18800015 	stw	r2,0(r3)
    4b90:	10800044 	addi	r2,r2,1
    4b94:	18c00104 	addi	r3,r3,4
    4b98:	80bffc1e 	bne	r16,r2,4b8c <kann_shuffle+0x30>
    4b9c:	04500034 	movhi	r17,16384
    4ba0:	8c7fffc4 	addi	r17,r17,-1
    4ba4:	8463883a 	add	r17,r16,r17
    4ba8:	8c63883a 	add	r17,r17,r17
    4bac:	8c63883a 	add	r17,r17,r17
    4bb0:	9463883a 	add	r17,r18,r17
    4bb4:	0009883a 	mov	r4,zero
    4bb8:	00183a80 	call	183a8 <kad_drand>
    4bbc:	8009883a 	mov	r4,r16
    4bc0:	1029883a 	mov	r20,r2
    4bc4:	1827883a 	mov	r19,r3
    4bc8:	0020d600 	call	20d60 <__floatsidf>
    4bcc:	a00d883a 	mov	r6,r20
    4bd0:	980f883a 	mov	r7,r19
    4bd4:	1009883a 	mov	r4,r2
    4bd8:	180b883a 	mov	r5,r3
    4bdc:	001fccc0 	call	1fccc <__muldf3>
    4be0:	1009883a 	mov	r4,r2
    4be4:	180b883a 	mov	r5,r3
    4be8:	0020ce00 	call	20ce0 <__fixdfsi>
    4bec:	1085883a 	add	r2,r2,r2
    4bf0:	1085883a 	add	r2,r2,r2
    4bf4:	89000017 	ldw	r4,0(r17)
    4bf8:	9085883a 	add	r2,r18,r2
    4bfc:	10c00017 	ldw	r3,0(r2)
    4c00:	11000015 	stw	r4,0(r2)
    4c04:	843fffc4 	addi	r16,r16,-1
    4c08:	88c00015 	stw	r3,0(r17)
    4c0c:	8c7fff04 	addi	r17,r17,-4
    4c10:	803fe81e 	bne	r16,zero,4bb4 <kann_shuffle+0x58>
    4c14:	dfc00517 	ldw	ra,20(sp)
    4c18:	dd000417 	ldw	r20,16(sp)
    4c1c:	dcc00317 	ldw	r19,12(sp)
    4c20:	dc800217 	ldw	r18,8(sp)
    4c24:	dc400117 	ldw	r17,4(sp)
    4c28:	dc000017 	ldw	r16,0(sp)
    4c2c:	dec00604 	addi	sp,sp,24
    4c30:	f800283a 	ret

00004c34 <kann_RMSprop>:
    4c34:	01004a0e 	bge	zero,r4,4d60 <kann_RMSprop+0x12c>
    4c38:	defff504 	addi	sp,sp,-44
    4c3c:	dd000515 	stw	r20,20(sp)
    4c40:	d9000015 	stw	r4,0(sp)
    4c44:	2829883a 	mov	r20,r5
    4c48:	010fe034 	movhi	r4,16256
    4c4c:	380b883a 	mov	r5,r7
    4c50:	ddc00815 	stw	r23,32(sp)
    4c54:	dd800715 	stw	r22,28(sp)
    4c58:	dcc00415 	stw	r19,16(sp)
    4c5c:	dc800315 	stw	r18,12(sp)
    4c60:	dc400215 	stw	r17,8(sp)
    4c64:	dc000115 	stw	r16,4(sp)
    4c68:	dfc00a15 	stw	ra,40(sp)
    4c6c:	df000915 	stw	fp,36(sp)
    4c70:	dd400615 	stw	r21,24(sp)
    4c74:	382d883a 	mov	r22,r7
    4c78:	3027883a 	mov	r19,r6
    4c7c:	001e2680 	call	1e268 <__subsf3>
    4c80:	102f883a 	mov	r23,r2
    4c84:	dc800b17 	ldw	r18,44(sp)
    4c88:	dc000d17 	ldw	r16,52(sp)
    4c8c:	dc400c17 	ldw	r17,48(sp)
    4c90:	98003426 	beq	r19,zero,4d64 <kann_RMSprop+0x130>
    4c94:	0029883a 	mov	r20,zero
    4c98:	97000017 	ldw	fp,0(r18)
    4c9c:	b80b883a 	mov	r5,r23
    4ca0:	9d400017 	ldw	r21,0(r19)
    4ca4:	e009883a 	mov	r4,fp
    4ca8:	001de6c0 	call	1de6c <__mulsf3>
    4cac:	e00b883a 	mov	r5,fp
    4cb0:	1009883a 	mov	r4,r2
    4cb4:	001de6c0 	call	1de6c <__mulsf3>
    4cb8:	81400017 	ldw	r5,0(r16)
    4cbc:	b009883a 	mov	r4,r22
    4cc0:	1039883a 	mov	fp,r2
    4cc4:	001de6c0 	call	1de6c <__mulsf3>
    4cc8:	100b883a 	mov	r5,r2
    4ccc:	e009883a 	mov	r4,fp
    4cd0:	001d3680 	call	1d368 <__addsf3>
    4cd4:	014d61b4 	movhi	r5,13702
    4cd8:	294def44 	addi	r5,r5,14269
    4cdc:	80800015 	stw	r2,0(r16)
    4ce0:	1009883a 	mov	r4,r2
    4ce4:	001d3680 	call	1d368 <__addsf3>
    4ce8:	1009883a 	mov	r4,r2
    4cec:	001a50c0 	call	1a50c <sqrtf>
    4cf0:	100b883a 	mov	r5,r2
    4cf4:	a809883a 	mov	r4,r21
    4cf8:	001d8300 	call	1d830 <__divsf3>
    4cfc:	91400017 	ldw	r5,0(r18)
    4d00:	1009883a 	mov	r4,r2
    4d04:	a5000044 	addi	r20,r20,1
    4d08:	001de6c0 	call	1de6c <__mulsf3>
    4d0c:	89000017 	ldw	r4,0(r17)
    4d10:	100b883a 	mov	r5,r2
    4d14:	9cc00104 	addi	r19,r19,4
    4d18:	001e2680 	call	1e268 <__subsf3>
    4d1c:	88800015 	stw	r2,0(r17)
    4d20:	d8800017 	ldw	r2,0(sp)
    4d24:	94800104 	addi	r18,r18,4
    4d28:	84000104 	addi	r16,r16,4
    4d2c:	8c400104 	addi	r17,r17,4
    4d30:	153fd91e 	bne	r2,r20,4c98 <kann_RMSprop+0x64>
    4d34:	dfc00a17 	ldw	ra,40(sp)
    4d38:	df000917 	ldw	fp,36(sp)
    4d3c:	ddc00817 	ldw	r23,32(sp)
    4d40:	dd800717 	ldw	r22,28(sp)
    4d44:	dd400617 	ldw	r21,24(sp)
    4d48:	dd000517 	ldw	r20,20(sp)
    4d4c:	dcc00417 	ldw	r19,16(sp)
    4d50:	dc800317 	ldw	r18,12(sp)
    4d54:	dc400217 	ldw	r17,8(sp)
    4d58:	dc000117 	ldw	r16,4(sp)
    4d5c:	dec00b04 	addi	sp,sp,44
    4d60:	f800283a 	ret
    4d64:	81400017 	ldw	r5,0(r16)
    4d68:	97000017 	ldw	fp,0(r18)
    4d6c:	b009883a 	mov	r4,r22
    4d70:	001de6c0 	call	1de6c <__mulsf3>
    4d74:	b80b883a 	mov	r5,r23
    4d78:	e009883a 	mov	r4,fp
    4d7c:	102b883a 	mov	r21,r2
    4d80:	001de6c0 	call	1de6c <__mulsf3>
    4d84:	e00b883a 	mov	r5,fp
    4d88:	1009883a 	mov	r4,r2
    4d8c:	001de6c0 	call	1de6c <__mulsf3>
    4d90:	100b883a 	mov	r5,r2
    4d94:	a809883a 	mov	r4,r21
    4d98:	001d3680 	call	1d368 <__addsf3>
    4d9c:	014d61b4 	movhi	r5,13702
    4da0:	294def44 	addi	r5,r5,14269
    4da4:	80800015 	stw	r2,0(r16)
    4da8:	1009883a 	mov	r4,r2
    4dac:	001d3680 	call	1d368 <__addsf3>
    4db0:	1009883a 	mov	r4,r2
    4db4:	001a50c0 	call	1a50c <sqrtf>
    4db8:	100b883a 	mov	r5,r2
    4dbc:	a009883a 	mov	r4,r20
    4dc0:	001d8300 	call	1d830 <__divsf3>
    4dc4:	91400017 	ldw	r5,0(r18)
    4dc8:	1009883a 	mov	r4,r2
    4dcc:	8c400104 	addi	r17,r17,4
    4dd0:	001de6c0 	call	1de6c <__mulsf3>
    4dd4:	893fff17 	ldw	r4,-4(r17)
    4dd8:	100b883a 	mov	r5,r2
    4ddc:	9cc00044 	addi	r19,r19,1
    4de0:	001e2680 	call	1e268 <__subsf3>
    4de4:	88bfff15 	stw	r2,-4(r17)
    4de8:	d8800017 	ldw	r2,0(sp)
    4dec:	94800104 	addi	r18,r18,4
    4df0:	84000104 	addi	r16,r16,4
    4df4:	14ffdb1e 	bne	r2,r19,4d64 <kann_RMSprop+0x130>
    4df8:	003fce06 	br	4d34 <kann_RMSprop+0x100>

00004dfc <kann_grad_clip>:
    4dfc:	defff804 	addi	sp,sp,-32
    4e00:	dd400515 	stw	r21,20(sp)
    4e04:	dfc00715 	stw	ra,28(sp)
    4e08:	dd800615 	stw	r22,24(sp)
    4e0c:	dd000415 	stw	r20,16(sp)
    4e10:	dcc00315 	stw	r19,12(sp)
    4e14:	dc800215 	stw	r18,8(sp)
    4e18:	dc400115 	stw	r17,4(sp)
    4e1c:	dc000015 	stw	r16,0(sp)
    4e20:	202b883a 	mov	r21,r4
    4e24:	0140470e 	bge	zero,r5,4f44 <kann_grad_clip+0x148>
    4e28:	296d883a 	add	r22,r5,r5
    4e2c:	b5ad883a 	add	r22,r22,r22
    4e30:	2829883a 	mov	r20,r5
    4e34:	3023883a 	mov	r17,r6
    4e38:	3021883a 	mov	r16,r6
    4e3c:	35ad883a 	add	r22,r6,r22
    4e40:	0025883a 	mov	r18,zero
    4e44:	0027883a 	mov	r19,zero
    4e48:	81000017 	ldw	r4,0(r16)
    4e4c:	84000104 	addi	r16,r16,4
    4e50:	200b883a 	mov	r5,r4
    4e54:	001de6c0 	call	1de6c <__mulsf3>
    4e58:	1009883a 	mov	r4,r2
    4e5c:	0020e3c0 	call	20e3c <__extendsfdf2>
    4e60:	9009883a 	mov	r4,r18
    4e64:	980b883a 	mov	r5,r19
    4e68:	100d883a 	mov	r6,r2
    4e6c:	180f883a 	mov	r7,r3
    4e70:	001e8e00 	call	1e8e0 <__adddf3>
    4e74:	1025883a 	mov	r18,r2
    4e78:	1827883a 	mov	r19,r3
    4e7c:	85bff21e 	bne	r16,r22,4e48 <kann_grad_clip+0x4c>
    4e80:	180b883a 	mov	r5,r3
    4e84:	1009883a 	mov	r4,r2
    4e88:	001a0f80 	call	1a0f8 <sqrt>
    4e8c:	a809883a 	mov	r4,r21
    4e90:	1025883a 	mov	r18,r2
    4e94:	1821883a 	mov	r16,r3
    4e98:	0020e3c0 	call	20e3c <__extendsfdf2>
    4e9c:	100d883a 	mov	r6,r2
    4ea0:	180f883a 	mov	r7,r3
    4ea4:	9009883a 	mov	r4,r18
    4ea8:	800b883a 	mov	r5,r16
    4eac:	001fafc0 	call	1fafc <__gedf2>
    4eb0:	00801f0e 	bge	zero,r2,4f30 <kann_grad_clip+0x134>
    4eb4:	900d883a 	mov	r6,r18
    4eb8:	800f883a 	mov	r7,r16
    4ebc:	0009883a 	mov	r4,zero
    4ec0:	014ffc34 	movhi	r5,16368
    4ec4:	001f18c0 	call	1f18c <__divdf3>
    4ec8:	1009883a 	mov	r4,r2
    4ecc:	180b883a 	mov	r5,r3
    4ed0:	0020f4c0 	call	20f4c <__truncdfsf2>
    4ed4:	8821883a 	mov	r16,r17
    4ed8:	1025883a 	mov	r18,r2
    4edc:	0023883a 	mov	r17,zero
    4ee0:	81000017 	ldw	r4,0(r16)
    4ee4:	900b883a 	mov	r5,r18
    4ee8:	8c400044 	addi	r17,r17,1
    4eec:	001de6c0 	call	1de6c <__mulsf3>
    4ef0:	80800015 	stw	r2,0(r16)
    4ef4:	84000104 	addi	r16,r16,4
    4ef8:	8d3ff916 	blt	r17,r20,4ee0 <kann_grad_clip+0xe4>
    4efc:	a80b883a 	mov	r5,r21
    4f00:	9009883a 	mov	r4,r18
    4f04:	001d8300 	call	1d830 <__divsf3>
    4f08:	dfc00717 	ldw	ra,28(sp)
    4f0c:	dd800617 	ldw	r22,24(sp)
    4f10:	dd400517 	ldw	r21,20(sp)
    4f14:	dd000417 	ldw	r20,16(sp)
    4f18:	dcc00317 	ldw	r19,12(sp)
    4f1c:	dc800217 	ldw	r18,8(sp)
    4f20:	dc400117 	ldw	r17,4(sp)
    4f24:	dc000017 	ldw	r16,0(sp)
    4f28:	dec00804 	addi	sp,sp,32
    4f2c:	f800283a 	ret
    4f30:	9009883a 	mov	r4,r18
    4f34:	800b883a 	mov	r5,r16
    4f38:	0020f4c0 	call	20f4c <__truncdfsf2>
    4f3c:	1025883a 	mov	r18,r2
    4f40:	003fee06 	br	4efc <kann_grad_clip+0x100>
    4f44:	000b883a 	mov	r5,zero
    4f48:	001dda40 	call	1dda4 <__lesf2>
    4f4c:	10000a0e 	bge	r2,zero,4f78 <kann_grad_clip+0x17c>
    4f50:	000d883a 	mov	r6,zero
    4f54:	000f883a 	mov	r7,zero
    4f58:	0009883a 	mov	r4,zero
    4f5c:	014ffc34 	movhi	r5,16368
    4f60:	001f18c0 	call	1f18c <__divdf3>
    4f64:	1009883a 	mov	r4,r2
    4f68:	180b883a 	mov	r5,r3
    4f6c:	0020f4c0 	call	20f4c <__truncdfsf2>
    4f70:	1025883a 	mov	r18,r2
    4f74:	003fe106 	br	4efc <kann_grad_clip+0x100>
    4f78:	0025883a 	mov	r18,zero
    4f7c:	003fdf06 	br	4efc <kann_grad_clip+0x100>

00004f80 <kann_train_fnn1>:
    4f80:	deffcb04 	addi	sp,sp,-212
    4f84:	d8803617 	ldw	r2,216(sp)
    4f88:	23400017 	ldw	r13,0(r4)
    4f8c:	dcc02e15 	stw	r19,184(sp)
    4f90:	dc802d15 	stw	r18,180(sp)
    4f94:	dc002b15 	stw	r16,172(sp)
    4f98:	dfc03415 	stw	ra,208(sp)
    4f9c:	df003315 	stw	fp,204(sp)
    4fa0:	ddc03215 	stw	r23,200(sp)
    4fa4:	dd803115 	stw	r22,196(sp)
    4fa8:	dd403015 	stw	r21,192(sp)
    4fac:	dd002f15 	stw	r20,188(sp)
    4fb0:	dc402c15 	stw	r17,176(sp)
    4fb4:	d9401915 	stw	r5,100(sp)
    4fb8:	d9800b15 	stw	r6,44(sp)
    4fbc:	d9c01b15 	stw	r7,108(sp)
    4fc0:	d8800815 	stw	r2,32(sp)
    4fc4:	dc003717 	ldw	r16,220(sp)
    4fc8:	dc803817 	ldw	r18,224(sp)
    4fcc:	dcc03917 	ldw	r19,228(sp)
    4fd0:	0340600e 	bge	zero,r13,5154 <kann_train_fnn1+0x1d4>
    4fd4:	23800117 	ldw	r14,4(r4)
    4fd8:	6b69883a 	add	r20,r13,r13
    4fdc:	02c000f4 	movhi	r11,3
    4fe0:	a52d883a 	add	r22,r20,r20
    4fe4:	2039883a 	mov	fp,r4
    4fe8:	5ad52c04 	addi	r11,r11,21680
    4fec:	7023883a 	mov	r17,r14
    4ff0:	75ad883a 	add	r22,r14,r22
    4ff4:	0005883a 	mov	r2,zero
    4ff8:	002b883a 	mov	r21,zero
    4ffc:	01c00044 	movi	r7,1
    5000:	02800084 	movi	r10,2
    5004:	024003c4 	movi	r9,15
    5008:	05c000c4 	movi	r23,3
    500c:	88c00017 	ldw	r3,0(r17)
    5010:	19000117 	ldw	r4,4(r3)
    5014:	2000181e 	bne	r4,zero,5078 <kann_train_fnn1+0xf8>
    5018:	19000043 	ldbu	r4,1(r3)
    501c:	210000cc 	andi	r4,r4,3
    5020:	2000151e 	bne	r4,zero,5078 <kann_train_fnn1+0xf8>
    5024:	19000917 	ldw	r4,36(r3)
    5028:	2100004c 	andi	r4,r4,1
    502c:	20001226 	beq	r4,zero,5078 <kann_train_fnn1+0xf8>
    5030:	18800003 	ldbu	r2,0(r3)
    5034:	ad400044 	addi	r21,r21,1
    5038:	38806d2e 	bgeu	r7,r2,51f0 <kann_train_fnn1+0x270>
    503c:	19400417 	ldw	r5,16(r3)
    5040:	19000517 	ldw	r4,20(r3)
    5044:	2909383a 	mul	r4,r5,r4
    5048:	12800526 	beq	r2,r10,5060 <kann_train_fnn1+0xe0>
    504c:	19800617 	ldw	r6,24(r3)
    5050:	2189383a 	mul	r4,r4,r6
    5054:	15c00226 	beq	r2,r23,5060 <kann_train_fnn1+0xe0>
    5058:	18800717 	ldw	r2,28(r3)
    505c:	2089383a 	mul	r4,r4,r2
    5060:	2144b03a 	or	r2,r4,r5
    5064:	48805436 	bltu	r9,r2,51b8 <kann_train_fnn1+0x238>
    5068:	2008913a 	slli	r4,r4,4
    506c:	2148b03a 	or	r4,r4,r5
    5070:	22c5883a 	add	r2,r4,r11
    5074:	10800003 	ldbu	r2,0(r2)
    5078:	8c400104 	addi	r17,r17,4
    507c:	8dbfe31e 	bne	r17,r22,500c <kann_train_fnn1+0x8c>
    5080:	00c00044 	movi	r3,1
    5084:	a8c06026 	beq	r21,r3,5208 <kann_train_fnn1+0x288>
    5088:	a82ac03a 	cmpne	r21,r21,zero
    508c:	0550303a 	nor	r8,zero,r21
    5090:	da000515 	stw	r8,20(sp)
    5094:	002d883a 	mov	r22,zero
    5098:	a529883a 	add	r20,r20,r20
    509c:	0007883a 	mov	r3,zero
    50a0:	020000f4 	movhi	r8,3
    50a4:	b005883a 	mov	r2,r22
    50a8:	7023883a 	mov	r17,r14
    50ac:	7529883a 	add	r20,r14,r20
    50b0:	01800044 	movi	r6,1
    50b4:	02800084 	movi	r10,2
    50b8:	024003c4 	movi	r9,15
    50bc:	42152c04 	addi	r8,r8,21680
    50c0:	01c000c4 	movi	r7,3
    50c4:	682f883a 	mov	r23,r13
    50c8:	182b883a 	mov	r21,r3
    50cc:	702d883a 	mov	r22,r14
    50d0:	8ac00017 	ldw	r11,0(r17)
    50d4:	58c00117 	ldw	r3,4(r11)
    50d8:	1800181e 	bne	r3,zero,513c <kann_train_fnn1+0x1bc>
    50dc:	59000043 	ldbu	r4,1(r11)
    50e0:	210000cc 	andi	r4,r4,3
    50e4:	2000151e 	bne	r4,zero,513c <kann_train_fnn1+0x1bc>
    50e8:	58c00917 	ldw	r3,36(r11)
    50ec:	18c0010c 	andi	r3,r3,4
    50f0:	18001226 	beq	r3,zero,513c <kann_train_fnn1+0x1bc>
    50f4:	58800003 	ldbu	r2,0(r11)
    50f8:	ad400044 	addi	r21,r21,1
    50fc:	30803f2e 	bgeu	r6,r2,51fc <kann_train_fnn1+0x27c>
    5100:	59400417 	ldw	r5,16(r11)
    5104:	59000517 	ldw	r4,20(r11)
    5108:	2909383a 	mul	r4,r5,r4
    510c:	12800526 	beq	r2,r10,5124 <kann_train_fnn1+0x1a4>
    5110:	58c00617 	ldw	r3,24(r11)
    5114:	20c9383a 	mul	r4,r4,r3
    5118:	11c00226 	beq	r2,r7,5124 <kann_train_fnn1+0x1a4>
    511c:	58800717 	ldw	r2,28(r11)
    5120:	2089383a 	mul	r4,r4,r2
    5124:	2144b03a 	or	r2,r4,r5
    5128:	48801736 	bltu	r9,r2,5188 <kann_train_fnn1+0x208>
    512c:	2008913a 	slli	r4,r4,4
    5130:	2148b03a 	or	r4,r4,r5
    5134:	2205883a 	add	r2,r4,r8
    5138:	10800003 	ldbu	r2,0(r2)
    513c:	8c400104 	addi	r17,r17,4
    5140:	8d3fe31e 	bne	r17,r20,50d0 <kann_train_fnn1+0x150>
    5144:	b01d883a 	mov	r14,r22
    5148:	102d883a 	mov	r22,r2
    514c:	00800044 	movi	r2,1
    5150:	a8803326 	beq	r21,r2,5220 <kann_train_fnn1+0x2a0>
    5154:	00bfffc4 	movi	r2,-1
    5158:	dfc03417 	ldw	ra,208(sp)
    515c:	df003317 	ldw	fp,204(sp)
    5160:	ddc03217 	ldw	r23,200(sp)
    5164:	dd803117 	ldw	r22,196(sp)
    5168:	dd403017 	ldw	r21,192(sp)
    516c:	dd002f17 	ldw	r20,188(sp)
    5170:	dcc02e17 	ldw	r19,184(sp)
    5174:	dc802d17 	ldw	r18,180(sp)
    5178:	dc402c17 	ldw	r17,176(sp)
    517c:	dc002b17 	ldw	r16,172(sp)
    5180:	dec03504 	addi	sp,sp,212
    5184:	f800283a 	ret
    5188:	d9802515 	stw	r6,148(sp)
    518c:	d9c02815 	stw	r7,160(sp)
    5190:	da002615 	stw	r8,152(sp)
    5194:	da402a15 	stw	r9,168(sp)
    5198:	da802915 	stw	r10,164(sp)
    519c:	001d1b40 	call	1d1b4 <__divsi3>
    51a0:	d9802517 	ldw	r6,148(sp)
    51a4:	d9c02817 	ldw	r7,160(sp)
    51a8:	da002617 	ldw	r8,152(sp)
    51ac:	da402a17 	ldw	r9,168(sp)
    51b0:	da802917 	ldw	r10,164(sp)
    51b4:	003fe106 	br	513c <kann_train_fnn1+0x1bc>
    51b8:	d9c02815 	stw	r7,160(sp)
    51bc:	da402a15 	stw	r9,168(sp)
    51c0:	da802915 	stw	r10,164(sp)
    51c4:	dac02515 	stw	r11,148(sp)
    51c8:	db402615 	stw	r13,152(sp)
    51cc:	db802715 	stw	r14,156(sp)
    51d0:	001d1b40 	call	1d1b4 <__divsi3>
    51d4:	d9c02817 	ldw	r7,160(sp)
    51d8:	da402a17 	ldw	r9,168(sp)
    51dc:	da802917 	ldw	r10,164(sp)
    51e0:	dac02517 	ldw	r11,148(sp)
    51e4:	db402617 	ldw	r13,152(sp)
    51e8:	db802717 	ldw	r14,156(sp)
    51ec:	003fa206 	br	5078 <kann_train_fnn1+0xf8>
    51f0:	11c00726 	beq	r2,r7,5210 <kann_train_fnn1+0x290>
    51f4:	00800044 	movi	r2,1
    51f8:	003f9f06 	br	5078 <kann_train_fnn1+0xf8>
    51fc:	11800626 	beq	r2,r6,5218 <kann_train_fnn1+0x298>
    5200:	00800044 	movi	r2,1
    5204:	003fcd06 	br	513c <kann_train_fnn1+0x1bc>
    5208:	d8800515 	stw	r2,20(sp)
    520c:	003fa106 	br	5094 <kann_train_fnn1+0x114>
    5210:	18800417 	ldw	r2,16(r3)
    5214:	003f9806 	br	5078 <kann_train_fnn1+0xf8>
    5218:	58800417 	ldw	r2,16(r11)
    521c:	003fc706 	br	513c <kann_train_fnn1+0x1bc>
    5220:	da000517 	ldw	r8,20(sp)
    5224:	403fcb16 	blt	r8,zero,5154 <kann_train_fnn1+0x1d4>
    5228:	b03fca16 	blt	r22,zero,5154 <kann_train_fnn1+0x1d4>
    522c:	700b883a 	mov	r5,r14
    5230:	b809883a 	mov	r4,r23
    5234:	00158b00 	call	158b0 <kad_size_var>
    5238:	e1400117 	ldw	r5,4(fp)
    523c:	e1000017 	ldw	r4,0(fp)
    5240:	d8801c15 	stw	r2,112(sp)
    5244:	8423883a 	add	r17,r16,r16
    5248:	00159380 	call	15938 <kad_size_const>
    524c:	d9001c17 	ldw	r4,112(sp)
    5250:	01400104 	movi	r5,4
    5254:	8c63883a 	add	r17,r17,r17
    5258:	d8800715 	stw	r2,28(sp)
    525c:	00211ec0 	call	211ec <calloc>
    5260:	8809883a 	mov	r4,r17
    5264:	d8801815 	stw	r2,96(sp)
    5268:	002339c0 	call	2339c <malloc>
    526c:	8809883a 	mov	r4,r17
    5270:	d8801715 	stw	r2,92(sp)
    5274:	002339c0 	call	2339c <malloc>
    5278:	8809883a 	mov	r4,r17
    527c:	d8800615 	stw	r2,24(sp)
    5280:	002339c0 	call	2339c <malloc>
    5284:	d8801415 	stw	r2,80(sp)
    5288:	0400370e 	bge	zero,r16,5368 <kann_train_fnn1+0x3e8>
    528c:	d8c01717 	ldw	r3,92(sp)
    5290:	0005883a 	mov	r2,zero
    5294:	18800015 	stw	r2,0(r3)
    5298:	10800044 	addi	r2,r2,1
    529c:	18c00104 	addi	r3,r3,4
    52a0:	80bffc1e 	bne	r16,r2,5294 <kann_train_fnn1+0x314>
    52a4:	da001717 	ldw	r8,92(sp)
    52a8:	8c7fff04 	addi	r17,r17,-4
    52ac:	802b883a 	mov	r21,r16
    52b0:	4463883a 	add	r17,r8,r17
    52b4:	4029883a 	mov	r20,r8
    52b8:	dc000a15 	stw	r16,40(sp)
    52bc:	0009883a 	mov	r4,zero
    52c0:	00183a80 	call	183a8 <kad_drand>
    52c4:	a809883a 	mov	r4,r21
    52c8:	1021883a 	mov	r16,r2
    52cc:	182f883a 	mov	r23,r3
    52d0:	0020d600 	call	20d60 <__floatsidf>
    52d4:	800d883a 	mov	r6,r16
    52d8:	b80f883a 	mov	r7,r23
    52dc:	1009883a 	mov	r4,r2
    52e0:	180b883a 	mov	r5,r3
    52e4:	001fccc0 	call	1fccc <__muldf3>
    52e8:	1009883a 	mov	r4,r2
    52ec:	180b883a 	mov	r5,r3
    52f0:	0020ce00 	call	20ce0 <__fixdfsi>
    52f4:	1085883a 	add	r2,r2,r2
    52f8:	1085883a 	add	r2,r2,r2
    52fc:	89000017 	ldw	r4,0(r17)
    5300:	a085883a 	add	r2,r20,r2
    5304:	10c00017 	ldw	r3,0(r2)
    5308:	11000015 	stw	r4,0(r2)
    530c:	ad7fffc4 	addi	r21,r21,-1
    5310:	88c00015 	stw	r3,0(r17)
    5314:	8c7fff04 	addi	r17,r17,-4
    5318:	a83fe81e 	bne	r21,zero,52bc <kann_train_fnn1+0x33c>
    531c:	dc000a17 	ldw	r16,40(sp)
    5320:	d9801717 	ldw	r6,92(sp)
    5324:	d9400617 	ldw	r5,24(sp)
    5328:	d9001417 	ldw	r4,80(sp)
    532c:	0007883a 	mov	r3,zero
    5330:	30800017 	ldw	r2,0(r6)
    5334:	29400104 	addi	r5,r5,4
    5338:	18c00044 	addi	r3,r3,1
    533c:	1085883a 	add	r2,r2,r2
    5340:	1085883a 	add	r2,r2,r2
    5344:	908f883a 	add	r7,r18,r2
    5348:	9885883a 	add	r2,r19,r2
    534c:	39c00017 	ldw	r7,0(r7)
    5350:	10800017 	ldw	r2,0(r2)
    5354:	31800104 	addi	r6,r6,4
    5358:	29ffff15 	stw	r7,-4(r5)
    535c:	20800015 	stw	r2,0(r4)
    5360:	21000104 	addi	r4,r4,4
    5364:	1c3ff216 	blt	r3,r16,5330 <kann_train_fnn1+0x3b0>
    5368:	8009883a 	mov	r4,r16
    536c:	001e7bc0 	call	1e7bc <__floatsisf>
    5370:	d9400817 	ldw	r5,32(sp)
    5374:	1009883a 	mov	r4,r2
    5378:	001de6c0 	call	1de6c <__mulsf3>
    537c:	1009883a 	mov	r4,r2
    5380:	001e74c0 	call	1e74c <__fixsfsi>
    5384:	da001c17 	ldw	r8,112(sp)
    5388:	d8800c15 	stw	r2,48(sp)
    538c:	4205883a 	add	r2,r8,r8
    5390:	1085883a 	add	r2,r2,r2
    5394:	1009883a 	mov	r4,r2
    5398:	d8802015 	stw	r2,128(sp)
    539c:	002339c0 	call	2339c <malloc>
    53a0:	da000717 	ldw	r8,28(sp)
    53a4:	d8802115 	stw	r2,132(sp)
    53a8:	4229883a 	add	r20,r8,r8
    53ac:	a529883a 	add	r20,r20,r20
    53b0:	a009883a 	mov	r4,r20
    53b4:	dd002215 	stw	r20,136(sp)
    53b8:	002339c0 	call	2339c <malloc>
    53bc:	da000b17 	ldw	r8,44(sp)
    53c0:	d8802315 	stw	r2,140(sp)
    53c4:	d8800517 	ldw	r2,20(sp)
    53c8:	4089383a 	mul	r4,r8,r2
    53cc:	da000c17 	ldw	r8,48(sp)
    53d0:	2109883a 	add	r4,r4,r4
    53d4:	8221c83a 	sub	r16,r16,r8
    53d8:	2109883a 	add	r4,r4,r4
    53dc:	dc000a15 	stw	r16,40(sp)
    53e0:	002339c0 	call	2339c <malloc>
    53e4:	da000b17 	ldw	r8,44(sp)
    53e8:	d8801515 	stw	r2,84(sp)
    53ec:	d8800415 	stw	r2,16(sp)
    53f0:	4589383a 	mul	r4,r8,r22
    53f4:	2109883a 	add	r4,r4,r4
    53f8:	2109883a 	add	r4,r4,r4
    53fc:	002339c0 	call	2339c <malloc>
    5400:	e0c00017 	ldw	r3,0(fp)
    5404:	d8801615 	stw	r2,88(sp)
    5408:	d8800315 	stw	r2,12(sp)
    540c:	00c02b0e 	bge	zero,r3,54bc <kann_train_fnn1+0x53c>
    5410:	e0800117 	ldw	r2,4(fp)
    5414:	18c7883a 	add	r3,r3,r3
    5418:	18c7883a 	add	r3,r3,r3
    541c:	10c9883a 	add	r4,r2,r3
    5420:	000f883a 	mov	r7,zero
    5424:	1007883a 	mov	r3,r2
    5428:	19400017 	ldw	r5,0(r3)
    542c:	29800117 	ldw	r6,4(r5)
    5430:	30000d1e 	bne	r6,zero,5468 <kann_train_fnn1+0x4e8>
    5434:	29800043 	ldbu	r6,1(r5)
    5438:	318000cc 	andi	r6,r6,3
    543c:	30000a1e 	bne	r6,zero,5468 <kann_train_fnn1+0x4e8>
    5440:	29800917 	ldw	r6,36(r5)
    5444:	3180004c 	andi	r6,r6,1
    5448:	30000726 	beq	r6,zero,5468 <kann_train_fnn1+0x4e8>
    544c:	39cd883a 	add	r6,r7,r7
    5450:	318d883a 	add	r6,r6,r6
    5454:	da000104 	addi	r8,sp,4
    5458:	418d883a 	add	r6,r8,r6
    545c:	31800317 	ldw	r6,12(r6)
    5460:	39c00044 	addi	r7,r7,1
    5464:	29800a15 	stw	r6,40(r5)
    5468:	18c00104 	addi	r3,r3,4
    546c:	193fee1e 	bne	r3,r4,5428 <kann_train_fnn1+0x4a8>
    5470:	000d883a 	mov	r6,zero
    5474:	10c00017 	ldw	r3,0(r2)
    5478:	19400117 	ldw	r5,4(r3)
    547c:	28000d1e 	bne	r5,zero,54b4 <kann_train_fnn1+0x534>
    5480:	19400043 	ldbu	r5,1(r3)
    5484:	294000cc 	andi	r5,r5,3
    5488:	28000a1e 	bne	r5,zero,54b4 <kann_train_fnn1+0x534>
    548c:	19400917 	ldw	r5,36(r3)
    5490:	2940010c 	andi	r5,r5,4
    5494:	28000726 	beq	r5,zero,54b4 <kann_train_fnn1+0x534>
    5498:	318b883a 	add	r5,r6,r6
    549c:	294b883a 	add	r5,r5,r5
    54a0:	d9c00104 	addi	r7,sp,4
    54a4:	394b883a 	add	r5,r7,r5
    54a8:	29400217 	ldw	r5,8(r5)
    54ac:	31800044 	addi	r6,r6,1
    54b0:	19400a15 	stw	r5,40(r3)
    54b4:	10800104 	addi	r2,r2,4
    54b8:	20bfee1e 	bne	r4,r2,5474 <kann_train_fnn1+0x4f4>
    54bc:	da001b17 	ldw	r8,108(sp)
    54c0:	0202410e 	bge	zero,r8,5dc8 <kann_train_fnn1+0xe48>
    54c4:	da000517 	ldw	r8,20(sp)
    54c8:	00900034 	movhi	r2,16384
