Archive member included to satisfy reference by file (symbol)

/package/eda/altera/altera17.0/nios2eds/bin/gnu/H-x86_64-pc-linux-gnu/bin/../lib/gcc/nios2-elf/5.3.0/../../../../../H-x86_64-pc-linux-gnu/nios2-elf/lib/pg/libm.a(lib_a-sf_cos.o)
                              obj/default/kautodiff.o (cosf)
/package/eda/altera/altera17.0/nios2eds/bin/gnu/H-x86_64-pc-linux-gnu/bin/../lib/gcc/nios2-elf/5.3.0/../../../../../H-x86_64-pc-linux-gnu/nios2-elf/lib/pg/libm.a(lib_a-sf_sin.o)
                              obj/default/kautodiff.o (sinf)
/package/eda/altera/altera17.0/nios2eds/bin/gnu/H-x86_64-pc-linux-gnu/bin/../lib/gcc/nios2-elf/5.3.0/../../../../../H-x86_64-pc-linux-gnu/nios2-elf/lib/pg/libm.a(lib_a-w_log.o)
                              obj/default/kautodiff.o (log)
/package/eda/altera/altera17.0/nios2eds/bin/gnu/H-x86_64-pc-linux-gnu/bin/../lib/gcc/nios2-elf/5.3.0/../../../../../H-x86_64-pc-linux-gnu/nios2-elf/lib/pg/libm.a(lib_a-w_sqrt.o)
                              obj/default/kann.o (sqrt)
/package/eda/altera/altera17.0/nios2eds/bin/gnu/H-x86_64-pc-linux-gnu/bin/../lib/gcc/nios2-elf/5.3.0/../../../../../H-x86_64-pc-linux-gnu/nios2-elf/lib/pg/libm.a(lib_a-wf_exp.o)
                              obj/default/kautodiff.o (expf)
/package/eda/altera/altera17.0/nios2eds/bin/gnu/H-x86_64-pc-linux-gnu/bin/../lib/gcc/nios2-elf/5.3.0/../../../../../H-x86_64-pc-linux-gnu/nios2-elf/lib/pg/libm.a(lib_a-wf_log.o)
                              obj/default/kautodiff.o (logf)
/package/eda/altera/altera17.0/nios2eds/bin/gnu/H-x86_64-pc-linux-gnu/bin/../lib/gcc/nios2-elf/5.3.0/../../../../../H-x86_64-pc-linux-gnu/nios2-elf/lib/pg/libm.a(lib_a-wf_sqrt.o)
                              obj/default/kann.o (sqrtf)
/package/eda/altera/altera17.0/nios2eds/bin/gnu/H-x86_64-pc-linux-gnu/bin/../lib/gcc/nios2-elf/5.3.0/../../../../../H-x86_64-pc-linux-gnu/nios2-elf/lib/pg/libm.a(lib_a-e_log.o)
                              /package/eda/altera/altera17.0/nios2eds/bin/gnu/H-x86_64-pc-linux-gnu/bin/../lib/gcc/nios2-elf/5.3.0/../../../../../H-x86_64-pc-linux-gnu/nios2-elf/lib/pg/libm.a(lib_a-w_log.o) (__ieee754_log)
/package/eda/altera/altera17.0/nios2eds/bin/gnu/H-x86_64-pc-linux-gnu/bin/../lib/gcc/nios2-elf/5.3.0/../../../../../H-x86_64-pc-linux-gnu/nios2-elf/lib/pg/libm.a(lib_a-e_sqrt.o)
                              /package/eda/altera/altera17.0/nios2eds/bin/gnu/H-x86_64-pc-linux-gnu/bin/../lib/gcc/nios2-elf/5.3.0/../../../../../H-x86_64-pc-linux-gnu/nios2-elf/lib/pg/libm.a(lib_a-w_sqrt.o) (__ieee754_sqrt)
/package/eda/altera/altera17.0/nios2eds/bin/gnu/H-x86_64-pc-linux-gnu/bin/../lib/gcc/nios2-elf/5.3.0/../../../../../H-x86_64-pc-linux-gnu/nios2-elf/lib/pg/libm.a(lib_a-ef_exp.o)
                              /package/eda/altera/altera17.0/nios2eds/bin/gnu/H-x86_64-pc-linux-gnu/bin/../lib/gcc/nios2-elf/5.3.0/../../../../../H-x86_64-pc-linux-gnu/nios2-elf/lib/pg/libm.a(lib_a-wf_exp.o) (__ieee754_expf)
/package/eda/altera/altera17.0/nios2eds/bin/gnu/H-x86_64-pc-linux-gnu/bin/../lib/gcc/nios2-elf/5.3.0/../../../../../H-x86_64-pc-linux-gnu/nios2-elf/lib/pg/libm.a(lib_a-ef_log.o)
                              /package/eda/altera/altera17.0/nios2eds/bin/gnu/H-x86_64-pc-linux-gnu/bin/../lib/gcc/nios2-elf/5.3.0/../../../../../H-x86_64-pc-linux-gnu/nios2-elf/lib/pg/libm.a(lib_a-wf_log.o) (__ieee754_logf)
/package/eda/altera/altera17.0/nios2eds/bin/gnu/H-x86_64-pc-linux-gnu/bin/../lib/gcc/nios2-elf/5.3.0/../../../../../H-x86_64-pc-linux-gnu/nios2-elf/lib/pg/libm.a(lib_a-ef_rem_pio2.o)
                              /package/eda/altera/altera17.0/nios2eds/bin/gnu/H-x86_64-pc-linux-gnu/bin/../lib/gcc/nios2-elf/5.3.0/../../../../../H-x86_64-pc-linux-gnu/nios2-elf/lib/pg/libm.a(lib_a-sf_cos.o) (__ieee754_rem_pio2f)
/package/eda/altera/altera17.0/nios2eds/bin/gnu/H-x86_64-pc-linux-gnu/bin/../lib/gcc/nios2-elf/5.3.0/../../../../../H-x86_64-pc-linux-gnu/nios2-elf/lib/pg/libm.a(lib_a-ef_sqrt.o)
                              /package/eda/altera/altera17.0/nios2eds/bin/gnu/H-x86_64-pc-linux-gnu/bin/../lib/gcc/nios2-elf/5.3.0/../../../../../H-x86_64-pc-linux-gnu/nios2-elf/lib/pg/libm.a(lib_a-wf_sqrt.o) (__ieee754_sqrtf)
/package/eda/altera/altera17.0/nios2eds/bin/gnu/H-x86_64-pc-linux-gnu/bin/../lib/gcc/nios2-elf/5.3.0/../../../../../H-x86_64-pc-linux-gnu/nios2-elf/lib/pg/libm.a(lib_a-kf_cos.o)
                              /package/eda/altera/altera17.0/nios2eds/bin/gnu/H-x86_64-pc-linux-gnu/bin/../lib/gcc/nios2-elf/5.3.0/../../../../../H-x86_64-pc-linux-gnu/nios2-elf/lib/pg/libm.a(lib_a-sf_cos.o) (__kernel_cosf)
/package/eda/altera/altera17.0/nios2eds/bin/gnu/H-x86_64-pc-linux-gnu/bin/../lib/gcc/nios2-elf/5.3.0/../../../../../H-x86_64-pc-linux-gnu/nios2-elf/lib/pg/libm.a(lib_a-kf_rem_pio2.o)
                              /package/eda/altera/altera17.0/nios2eds/bin/gnu/H-x86_64-pc-linux-gnu/bin/../lib/gcc/nios2-elf/5.3.0/../../../../../H-x86_64-pc-linux-gnu/nios2-elf/lib/pg/libm.a(lib_a-ef_rem_pio2.o) (__kernel_rem_pio2f)
/package/eda/altera/altera17.0/nios2eds/bin/gnu/H-x86_64-pc-linux-gnu/bin/../lib/gcc/nios2-elf/5.3.0/../../../../../H-x86_64-pc-linux-gnu/nios2-elf/lib/pg/libm.a(lib_a-kf_sin.o)
                              /package/eda/altera/altera17.0/nios2eds/bin/gnu/H-x86_64-pc-linux-gnu/bin/../lib/gcc/nios2-elf/5.3.0/../../../../../H-x86_64-pc-linux-gnu/nios2-elf/lib/pg/libm.a(lib_a-sf_cos.o) (__kernel_sinf)
/package/eda/altera/altera17.0/nios2eds/bin/gnu/H-x86_64-pc-linux-gnu/bin/../lib/gcc/nios2-elf/5.3.0/../../../../../H-x86_64-pc-linux-gnu/nios2-elf/lib/pg/libm.a(lib_a-s_fpclassify.o)
                              /package/eda/altera/altera17.0/nios2eds/bin/gnu/H-x86_64-pc-linux-gnu/bin/../lib/gcc/nios2-elf/5.3.0/../../../../../H-x86_64-pc-linux-gnu/nios2-elf/lib/pg/libm.a(lib_a-w_log.o) (__fpclassifyd)
/package/eda/altera/altera17.0/nios2eds/bin/gnu/H-x86_64-pc-linux-gnu/bin/../lib/gcc/nios2-elf/5.3.0/../../../../../H-x86_64-pc-linux-gnu/nios2-elf/lib/pg/libm.a(lib_a-s_lib_ver.o)
                              /package/eda/altera/altera17.0/nios2eds/bin/gnu/H-x86_64-pc-linux-gnu/bin/../lib/gcc/nios2-elf/5.3.0/../../../../../H-x86_64-pc-linux-gnu/nios2-elf/lib/pg/libm.a(lib_a-w_log.o) (__fdlib_version)
/package/eda/altera/altera17.0/nios2eds/bin/gnu/H-x86_64-pc-linux-gnu/bin/../lib/gcc/nios2-elf/5.3.0/../../../../../H-x86_64-pc-linux-gnu/nios2-elf/lib/pg/libm.a(lib_a-s_matherr.o)
                              /package/eda/altera/altera17.0/nios2eds/bin/gnu/H-x86_64-pc-linux-gnu/bin/../lib/gcc/nios2-elf/5.3.0/../../../../../H-x86_64-pc-linux-gnu/nios2-elf/lib/pg/libm.a(lib_a-w_log.o) (matherr)
/package/eda/altera/altera17.0/nios2eds/bin/gnu/H-x86_64-pc-linux-gnu/bin/../lib/gcc/nios2-elf/5.3.0/../../../../../H-x86_64-pc-linux-gnu/nios2-elf/lib/pg/libm.a(lib_a-s_nan.o)
                              /package/eda/altera/altera17.0/nios2eds/bin/gnu/H-x86_64-pc-linux-gnu/bin/../lib/gcc/nios2-elf/5.3.0/../../../../../H-x86_64-pc-linux-gnu/nios2-elf/lib/pg/libm.a(lib_a-w_log.o) (nan)
/package/eda/altera/altera17.0/nios2eds/bin/gnu/H-x86_64-pc-linux-gnu/bin/../lib/gcc/nios2-elf/5.3.0/../../../../../H-x86_64-pc-linux-gnu/nios2-elf/lib/pg/libm.a(lib_a-sf_fabs.o)
                              /package/eda/altera/altera17.0/nios2eds/bin/gnu/H-x86_64-pc-linux-gnu/bin/../lib/gcc/nios2-elf/5.3.0/../../../../../H-x86_64-pc-linux-gnu/nios2-elf/lib/pg/libm.a(lib_a-ef_rem_pio2.o) (fabsf)
/package/eda/altera/altera17.0/nios2eds/bin/gnu/H-x86_64-pc-linux-gnu/bin/../lib/gcc/nios2-elf/5.3.0/../../../../../H-x86_64-pc-linux-gnu/nios2-elf/lib/pg/libm.a(lib_a-sf_finite.o)
                              /package/eda/altera/altera17.0/nios2eds/bin/gnu/H-x86_64-pc-linux-gnu/bin/../lib/gcc/nios2-elf/5.3.0/../../../../../H-x86_64-pc-linux-gnu/nios2-elf/lib/pg/libm.a(lib_a-wf_exp.o) (finitef)
/package/eda/altera/altera17.0/nios2eds/bin/gnu/H-x86_64-pc-linux-gnu/bin/../lib/gcc/nios2-elf/5.3.0/../../../../../H-x86_64-pc-linux-gnu/nios2-elf/lib/pg/libm.a(lib_a-sf_floor.o)
                              /package/eda/altera/altera17.0/nios2eds/bin/gnu/H-x86_64-pc-linux-gnu/bin/../lib/gcc/nios2-elf/5.3.0/../../../../../H-x86_64-pc-linux-gnu/nios2-elf/lib/pg/libm.a(lib_a-kf_rem_pio2.o) (floorf)
/package/eda/altera/altera17.0/nios2eds/bin/gnu/H-x86_64-pc-linux-gnu/bin/../lib/gcc/nios2-elf/5.3.0/../../../../../H-x86_64-pc-linux-gnu/nios2-elf/lib/pg/libm.a(lib_a-sf_fpclassify.o)
                              /package/eda/altera/altera17.0/nios2eds/bin/gnu/H-x86_64-pc-linux-gnu/bin/../lib/gcc/nios2-elf/5.3.0/../../../../../H-x86_64-pc-linux-gnu/nios2-elf/lib/pg/libm.a(lib_a-wf_log.o) (__fpclassifyf)
/package/eda/altera/altera17.0/nios2eds/bin/gnu/H-x86_64-pc-linux-gnu/bin/../lib/gcc/nios2-elf/5.3.0/../../../../../H-x86_64-pc-linux-gnu/nios2-elf/lib/pg/libm.a(lib_a-sf_scalbn.o)
                              /package/eda/altera/altera17.0/nios2eds/bin/gnu/H-x86_64-pc-linux-gnu/bin/../lib/gcc/nios2-elf/5.3.0/../../../../../H-x86_64-pc-linux-gnu/nios2-elf/lib/pg/libm.a(lib_a-kf_rem_pio2.o) (scalbnf)
/package/eda/altera/altera17.0/nios2eds/bin/gnu/H-x86_64-pc-linux-gnu/bin/../lib/gcc/nios2-elf/5.3.0/../../../../../H-x86_64-pc-linux-gnu/nios2-elf/lib/pg/libm.a(lib_a-sf_copysign.o)
                              /package/eda/altera/altera17.0/nios2eds/bin/gnu/H-x86_64-pc-linux-gnu/bin/../lib/gcc/nios2-elf/5.3.0/../../../../../H-x86_64-pc-linux-gnu/nios2-elf/lib/pg/libm.a(lib_a-sf_scalbn.o) (copysignf)
/package/eda/altera/altera17.0/nios2eds/bin/gnu/H-x86_64-pc-linux-gnu/bin/../lib/gcc/nios2-elf/5.3.0/pg/libgcc.a(_muldi3.o)
                              obj/default/kautodiff.o (__muldi3)
/package/eda/altera/altera17.0/nios2eds/bin/gnu/H-x86_64-pc-linux-gnu/bin/../lib/gcc/nios2-elf/5.3.0/pg/libgcc.a(_fixunssfsi.o)
                              obj/default/mnist-cnn.o (__fixunssfsi)
/package/eda/altera/altera17.0/nios2eds/bin/gnu/H-x86_64-pc-linux-gnu/bin/../lib/gcc/nios2-elf/5.3.0/pg/libgcc.a(lib2-divmod.o)
                              obj/default/kann.o (__divsi3)
/package/eda/altera/altera17.0/nios2eds/bin/gnu/H-x86_64-pc-linux-gnu/bin/../lib/gcc/nios2-elf/5.3.0/pg/libgcc.a(lib2-divtable.o)
                              obj/default/kann.o (__divsi3_table)
/package/eda/altera/altera17.0/nios2eds/bin/gnu/H-x86_64-pc-linux-gnu/bin/../lib/gcc/nios2-elf/5.3.0/pg/libgcc.a(addsf3.o)
                              obj/default/kann.o (__addsf3)
/package/eda/altera/altera17.0/nios2eds/bin/gnu/H-x86_64-pc-linux-gnu/bin/../lib/gcc/nios2-elf/5.3.0/pg/libgcc.a(divsf3.o)
                              obj/default/kann.o (__divsf3)
/package/eda/altera/altera17.0/nios2eds/bin/gnu/H-x86_64-pc-linux-gnu/bin/../lib/gcc/nios2-elf/5.3.0/pg/libgcc.a(eqsf2.o)
                              /package/eda/altera/altera17.0/nios2eds/bin/gnu/H-x86_64-pc-linux-gnu/bin/../lib/gcc/nios2-elf/5.3.0/../../../../../H-x86_64-pc-linux-gnu/nios2-elf/lib/pg/libm.a(lib_a-wf_log.o) (__eqsf2)
/package/eda/altera/altera17.0/nios2eds/bin/gnu/H-x86_64-pc-linux-gnu/bin/../lib/gcc/nios2-elf/5.3.0/pg/libgcc.a(gesf2.o)
                              obj/default/kann.o (__gesf2)
/package/eda/altera/altera17.0/nios2eds/bin/gnu/H-x86_64-pc-linux-gnu/bin/../lib/gcc/nios2-elf/5.3.0/pg/libgcc.a(lesf2.o)
                              obj/default/kann.o (__lesf2)
/package/eda/altera/altera17.0/nios2eds/bin/gnu/H-x86_64-pc-linux-gnu/bin/../lib/gcc/nios2-elf/5.3.0/pg/libgcc.a(mulsf3.o)
                              obj/default/kann.o (__mulsf3)
/package/eda/altera/altera17.0/nios2eds/bin/gnu/H-x86_64-pc-linux-gnu/bin/../lib/gcc/nios2-elf/5.3.0/pg/libgcc.a(subsf3.o)
                              obj/default/kann.o (__subsf3)
/package/eda/altera/altera17.0/nios2eds/bin/gnu/H-x86_64-pc-linux-gnu/bin/../lib/gcc/nios2-elf/5.3.0/pg/libgcc.a(fixsfsi.o)
                              obj/default/kann.o (__fixsfsi)
/package/eda/altera/altera17.0/nios2eds/bin/gnu/H-x86_64-pc-linux-gnu/bin/../lib/gcc/nios2-elf/5.3.0/pg/libgcc.a(floatsisf.o)
                              obj/default/kann.o (__floatsisf)
/package/eda/altera/altera17.0/nios2eds/bin/gnu/H-x86_64-pc-linux-gnu/bin/../lib/gcc/nios2-elf/5.3.0/pg/libgcc.a(adddf3.o)
                              obj/default/kann.o (__adddf3)
/package/eda/altera/altera17.0/nios2eds/bin/gnu/H-x86_64-pc-linux-gnu/bin/../lib/gcc/nios2-elf/5.3.0/pg/libgcc.a(divdf3.o)
                              obj/default/kann.o (__divdf3)
/package/eda/altera/altera17.0/nios2eds/bin/gnu/H-x86_64-pc-linux-gnu/bin/../lib/gcc/nios2-elf/5.3.0/pg/libgcc.a(eqdf2.o)
                              obj/default/kautodiff.o (__eqdf2)
/package/eda/altera/altera17.0/nios2eds/bin/gnu/H-x86_64-pc-linux-gnu/bin/../lib/gcc/nios2-elf/5.3.0/pg/libgcc.a(gedf2.o)
                              obj/default/kautodiff.o (__gedf2)
/package/eda/altera/altera17.0/nios2eds/bin/gnu/H-x86_64-pc-linux-gnu/bin/../lib/gcc/nios2-elf/5.3.0/pg/libgcc.a(ledf2.o)
                              obj/default/kann.o (__ltdf2)
/package/eda/altera/altera17.0/nios2eds/bin/gnu/H-x86_64-pc-linux-gnu/bin/../lib/gcc/nios2-elf/5.3.0/pg/libgcc.a(muldf3.o)
                              obj/default/kann.o (__muldf3)
/package/eda/altera/altera17.0/nios2eds/bin/gnu/H-x86_64-pc-linux-gnu/bin/../lib/gcc/nios2-elf/5.3.0/pg/libgcc.a(subdf3.o)
                              obj/default/kautodiff.o (__subdf3)
/package/eda/altera/altera17.0/nios2eds/bin/gnu/H-x86_64-pc-linux-gnu/bin/../lib/gcc/nios2-elf/5.3.0/pg/libgcc.a(fixdfsi.o)
                              obj/default/kann.o (__fixdfsi)
/package/eda/altera/altera17.0/nios2eds/bin/gnu/H-x86_64-pc-linux-gnu/bin/../lib/gcc/nios2-elf/5.3.0/pg/libgcc.a(floatsidf.o)
                              obj/default/kann.o (__floatsidf)
/package/eda/altera/altera17.0/nios2eds/bin/gnu/H-x86_64-pc-linux-gnu/bin/../lib/gcc/nios2-elf/5.3.0/pg/libgcc.a(extendsfdf2.o)
                              obj/default/kann.o (__extendsfdf2)
/package/eda/altera/altera17.0/nios2eds/bin/gnu/H-x86_64-pc-linux-gnu/bin/../lib/gcc/nios2-elf/5.3.0/pg/libgcc.a(truncdfsf2.o)
                              obj/default/kann.o (__truncdfsf2)
/package/eda/altera/altera17.0/nios2eds/bin/gnu/H-x86_64-pc-linux-gnu/bin/../lib/gcc/nios2-elf/5.3.0/pg/libgcc.a(_clzsi2.o)
                              /package/eda/altera/altera17.0/nios2eds/bin/gnu/H-x86_64-pc-linux-gnu/bin/../lib/gcc/nios2-elf/5.3.0/pg/libgcc.a(addsf3.o) (__clzsi2)
/package/eda/altera/altera17.0/nios2eds/bin/gnu/H-x86_64-pc-linux-gnu/bin/../lib/gcc/nios2-elf/5.3.0/pg/libgcc.a(_clz.o)
                              /package/eda/altera/altera17.0/nios2eds/bin/gnu/H-x86_64-pc-linux-gnu/bin/../lib/gcc/nios2-elf/5.3.0/pg/libgcc.a(_clzsi2.o) (__clz_tab)
/package/eda/altera/altera17.0/nios2eds/bin/gnu/H-x86_64-pc-linux-gnu/bin/../lib/gcc/nios2-elf/5.3.0/../../../../../H-x86_64-pc-linux-gnu/nios2-elf/lib/pg/libc.a(lib_a-abort.o)
                              obj/default/kautodiff.o (abort)
/package/eda/altera/altera17.0/nios2eds/bin/gnu/H-x86_64-pc-linux-gnu/bin/../lib/gcc/nios2-elf/5.3.0/../../../../../H-x86_64-pc-linux-gnu/nios2-elf/lib/pg/libc.a(lib_a-assert.o)
                              obj/default/kann.o (__assert_func)
/package/eda/altera/altera17.0/nios2eds/bin/gnu/H-x86_64-pc-linux-gnu/bin/../lib/gcc/nios2-elf/5.3.0/../../../../../H-x86_64-pc-linux-gnu/nios2-elf/lib/pg/libc.a(lib_a-calloc.o)
                              obj/default/kann.o (calloc)
/package/eda/altera/altera17.0/nios2eds/bin/gnu/H-x86_64-pc-linux-gnu/bin/../lib/gcc/nios2-elf/5.3.0/../../../../../H-x86_64-pc-linux-gnu/nios2-elf/lib/pg/libc.a(lib_a-callocr.o)
                              /package/eda/altera/altera17.0/nios2eds/bin/gnu/H-x86_64-pc-linux-gnu/bin/../lib/gcc/nios2-elf/5.3.0/../../../../../H-x86_64-pc-linux-gnu/nios2-elf/lib/pg/libc.a(lib_a-calloc.o) (_calloc_r)
/package/eda/altera/altera17.0/nios2eds/bin/gnu/H-x86_64-pc-linux-gnu/bin/../lib/gcc/nios2-elf/5.3.0/../../../../../H-x86_64-pc-linux-gnu/nios2-elf/lib/pg/libc.a(lib_a-errno.o)
                              /package/eda/altera/altera17.0/nios2eds/bin/gnu/H-x86_64-pc-linux-gnu/bin/../lib/gcc/nios2-elf/5.3.0/../../../../../H-x86_64-pc-linux-gnu/nios2-elf/lib/pg/libm.a(lib_a-w_log.o) (__errno)
/package/eda/altera/altera17.0/nios2eds/bin/gnu/H-x86_64-pc-linux-gnu/bin/../lib/gcc/nios2-elf/5.3.0/../../../../../H-x86_64-pc-linux-gnu/nios2-elf/lib/pg/libc.a(lib_a-exit.o)
                              obj/default/kann.o (exit)
/package/eda/altera/altera17.0/nios2eds/bin/gnu/H-x86_64-pc-linux-gnu/bin/../lib/gcc/nios2-elf/5.3.0/../../../../../H-x86_64-pc-linux-gnu/nios2-elf/lib/pg/libc.a(lib_a-fclose.o)
                              obj/default/kann.o (fclose)
/package/eda/altera/altera17.0/nios2eds/bin/gnu/H-x86_64-pc-linux-gnu/bin/../lib/gcc/nios2-elf/5.3.0/../../../../../H-x86_64-pc-linux-gnu/nios2-elf/lib/pg/libc.a(lib_a-fflush.o)
                              /package/eda/altera/altera17.0/nios2eds/bin/gnu/H-x86_64-pc-linux-gnu/bin/../lib/gcc/nios2-elf/5.3.0/../../../../../H-x86_64-pc-linux-gnu/nios2-elf/lib/pg/libc.a(lib_a-fclose.o) (__sflush_r)
/package/eda/altera/altera17.0/nios2eds/bin/gnu/H-x86_64-pc-linux-gnu/bin/../lib/gcc/nios2-elf/5.3.0/../../../../../H-x86_64-pc-linux-gnu/nios2-elf/lib/pg/libc.a(lib_a-fgets.o)
                              obj/default/kann_data.o (fgets)
/package/eda/altera/altera17.0/nios2eds/bin/gnu/H-x86_64-pc-linux-gnu/bin/../lib/gcc/nios2-elf/5.3.0/../../../../../H-x86_64-pc-linux-gnu/nios2-elf/lib/pg/libc.a(lib_a-fileno.o)
                              obj/default/kann_data.o (fileno)
/package/eda/altera/altera17.0/nios2eds/bin/gnu/H-x86_64-pc-linux-gnu/bin/../lib/gcc/nios2-elf/5.3.0/../../../../../H-x86_64-pc-linux-gnu/nios2-elf/lib/pg/libc.a(lib_a-findfp.o)
                              /package/eda/altera/altera17.0/nios2eds/bin/gnu/H-x86_64-pc-linux-gnu/bin/../lib/gcc/nios2-elf/5.3.0/../../../../../H-x86_64-pc-linux-gnu/nios2-elf/lib/pg/libc.a(lib_a-fclose.o) (__sinit)
/package/eda/altera/altera17.0/nios2eds/bin/gnu/H-x86_64-pc-linux-gnu/bin/../lib/gcc/nios2-elf/5.3.0/../../../../../H-x86_64-pc-linux-gnu/nios2-elf/lib/pg/libc.a(lib_a-fiprintf.o)
                              /package/eda/altera/altera17.0/nios2eds/bin/gnu/H-x86_64-pc-linux-gnu/bin/../lib/gcc/nios2-elf/5.3.0/../../../../../H-x86_64-pc-linux-gnu/nios2-elf/lib/pg/libc.a(lib_a-assert.o) (fiprintf)
/package/eda/altera/altera17.0/nios2eds/bin/gnu/H-x86_64-pc-linux-gnu/bin/../lib/gcc/nios2-elf/5.3.0/../../../../../H-x86_64-pc-linux-gnu/nios2-elf/lib/pg/libc.a(lib_a-fopen.o)
                              obj/default/kann.o (fopen)
/package/eda/altera/altera17.0/nios2eds/bin/gnu/H-x86_64-pc-linux-gnu/bin/../lib/gcc/nios2-elf/5.3.0/../../../../../H-x86_64-pc-linux-gnu/nios2-elf/lib/pg/libc.a(lib_a-fprintf.o)
                              obj/default/kann.o (fprintf)
/package/eda/altera/altera17.0/nios2eds/bin/gnu/H-x86_64-pc-linux-gnu/bin/../lib/gcc/nios2-elf/5.3.0/../../../../../H-x86_64-pc-linux-gnu/nios2-elf/lib/pg/libc.a(lib_a-fputc.o)
                              obj/default/kann.o (fputc)
/package/eda/altera/altera17.0/nios2eds/bin/gnu/H-x86_64-pc-linux-gnu/bin/../lib/gcc/nios2-elf/5.3.0/../../../../../H-x86_64-pc-linux-gnu/nios2-elf/lib/pg/libc.a(lib_a-fputs.o)
                              obj/default/kautodiff.o (fputs)
/package/eda/altera/altera17.0/nios2eds/bin/gnu/H-x86_64-pc-linux-gnu/bin/../lib/gcc/nios2-elf/5.3.0/../../../../../H-x86_64-pc-linux-gnu/nios2-elf/lib/pg/libc.a(lib_a-fread.o)
                              obj/default/kann.o (fread)
/package/eda/altera/altera17.0/nios2eds/bin/gnu/H-x86_64-pc-linux-gnu/bin/../lib/gcc/nios2-elf/5.3.0/../../../../../H-x86_64-pc-linux-gnu/nios2-elf/lib/pg/libc.a(lib_a-freer.o)
                              /package/eda/altera/altera17.0/nios2eds/bin/gnu/H-x86_64-pc-linux-gnu/bin/../lib/gcc/nios2-elf/5.3.0/../../../../../H-x86_64-pc-linux-gnu/nios2-elf/lib/pg/libc.a(lib_a-fclose.o) (_free_r)
/package/eda/altera/altera17.0/nios2eds/bin/gnu/H-x86_64-pc-linux-gnu/bin/../lib/gcc/nios2-elf/5.3.0/../../../../../H-x86_64-pc-linux-gnu/nios2-elf/lib/pg/libc.a(lib_a-fseek.o)
                              /package/eda/altera/altera17.0/nios2eds/bin/gnu/H-x86_64-pc-linux-gnu/bin/../lib/gcc/nios2-elf/5.3.0/../../../../../H-x86_64-pc-linux-gnu/nios2-elf/lib/pg/libc.a(lib_a-fopen.o) (_fseek_r)
/package/eda/altera/altera17.0/nios2eds/bin/gnu/H-x86_64-pc-linux-gnu/bin/../lib/gcc/nios2-elf/5.3.0/../../../../../H-x86_64-pc-linux-gnu/nios2-elf/lib/pg/libc.a(lib_a-fseeko.o)
                              /package/eda/altera/altera17.0/nios2eds/bin/gnu/H-x86_64-pc-linux-gnu/bin/../lib/gcc/nios2-elf/5.3.0/../../../../../H-x86_64-pc-linux-gnu/nios2-elf/lib/pg/libc.a(lib_a-fseek.o) (_fseeko_r)
/package/eda/altera/altera17.0/nios2eds/bin/gnu/H-x86_64-pc-linux-gnu/bin/../lib/gcc/nios2-elf/5.3.0/../../../../../H-x86_64-pc-linux-gnu/nios2-elf/lib/pg/libc.a(lib_a-fstatr.o)
                              /package/eda/altera/altera17.0/nios2eds/bin/gnu/H-x86_64-pc-linux-gnu/bin/../lib/gcc/nios2-elf/5.3.0/../../../../../H-x86_64-pc-linux-gnu/nios2-elf/lib/pg/libc.a(lib_a-fseeko.o) (_fstat_r)
/package/eda/altera/altera17.0/nios2eds/bin/gnu/H-x86_64-pc-linux-gnu/bin/../lib/gcc/nios2-elf/5.3.0/../../../../../H-x86_64-pc-linux-gnu/nios2-elf/lib/pg/libc.a(lib_a-fvwrite.o)
                              /package/eda/altera/altera17.0/nios2eds/bin/gnu/H-x86_64-pc-linux-gnu/bin/../lib/gcc/nios2-elf/5.3.0/../../../../../H-x86_64-pc-linux-gnu/nios2-elf/lib/pg/libc.a(lib_a-fputs.o) (__sfvwrite_r)
/package/eda/altera/altera17.0/nios2eds/bin/gnu/H-x86_64-pc-linux-gnu/bin/../lib/gcc/nios2-elf/5.3.0/../../../../../H-x86_64-pc-linux-gnu/nios2-elf/lib/pg/libc.a(lib_a-fwalk.o)
                              /package/eda/altera/altera17.0/nios2eds/bin/gnu/H-x86_64-pc-linux-gnu/bin/../lib/gcc/nios2-elf/5.3.0/../../../../../H-x86_64-pc-linux-gnu/nios2-elf/lib/pg/libc.a(lib_a-findfp.o) (_fwalk)
/package/eda/altera/altera17.0/nios2eds/bin/gnu/H-x86_64-pc-linux-gnu/bin/../lib/gcc/nios2-elf/5.3.0/../../../../../H-x86_64-pc-linux-gnu/nios2-elf/lib/pg/libc.a(lib_a-fwrite.o)
                              obj/default/kann.o (fwrite)
/package/eda/altera/altera17.0/nios2eds/bin/gnu/H-x86_64-pc-linux-gnu/bin/../lib/gcc/nios2-elf/5.3.0/../../../../../H-x86_64-pc-linux-gnu/nios2-elf/lib/pg/libc.a(lib_a-impure.o)
                              /package/eda/altera/altera17.0/nios2eds/bin/gnu/H-x86_64-pc-linux-gnu/bin/../lib/gcc/nios2-elf/5.3.0/../../../../../H-x86_64-pc-linux-gnu/nios2-elf/lib/pg/libc.a(lib_a-exit.o) (_global_impure_ptr)
/package/eda/altera/altera17.0/nios2eds/bin/gnu/H-x86_64-pc-linux-gnu/bin/../lib/gcc/nios2-elf/5.3.0/../../../../../H-x86_64-pc-linux-gnu/nios2-elf/lib/pg/libc.a(lib_a-int_errno.o)
                              /package/eda/altera/altera17.0/nios2eds/bin/gnu/H-x86_64-pc-linux-gnu/bin/../lib/gcc/nios2-elf/5.3.0/../../../../../H-x86_64-pc-linux-gnu/nios2-elf/lib/pg/libc.a(lib_a-fstatr.o) (errno)
/package/eda/altera/altera17.0/nios2eds/bin/gnu/H-x86_64-pc-linux-gnu/bin/../lib/gcc/nios2-elf/5.3.0/../../../../../H-x86_64-pc-linux-gnu/nios2-elf/lib/pg/libc.a(lib_a-makebuf.o)
                              /package/eda/altera/altera17.0/nios2eds/bin/gnu/H-x86_64-pc-linux-gnu/bin/../lib/gcc/nios2-elf/5.3.0/../../../../../H-x86_64-pc-linux-gnu/nios2-elf/lib/pg/libc.a(lib_a-fseeko.o) (__smakebuf_r)
/package/eda/altera/altera17.0/nios2eds/bin/gnu/H-x86_64-pc-linux-gnu/bin/../lib/gcc/nios2-elf/5.3.0/../../../../../H-x86_64-pc-linux-gnu/nios2-elf/lib/pg/libc.a(lib_a-malloc.o)
                              obj/default/kann.o (malloc)
/package/eda/altera/altera17.0/nios2eds/bin/gnu/H-x86_64-pc-linux-gnu/bin/../lib/gcc/nios2-elf/5.3.0/../../../../../H-x86_64-pc-linux-gnu/nios2-elf/lib/pg/libc.a(lib_a-mallocr.o)
                              /package/eda/altera/altera17.0/nios2eds/bin/gnu/H-x86_64-pc-linux-gnu/bin/../lib/gcc/nios2-elf/5.3.0/../../../../../H-x86_64-pc-linux-gnu/nios2-elf/lib/pg/libc.a(lib_a-callocr.o) (_malloc_r)
/package/eda/altera/altera17.0/nios2eds/bin/gnu/H-x86_64-pc-linux-gnu/bin/../lib/gcc/nios2-elf/5.3.0/../../../../../H-x86_64-pc-linux-gnu/nios2-elf/lib/pg/libc.a(lib_a-memchr.o)
                              /package/eda/altera/altera17.0/nios2eds/bin/gnu/H-x86_64-pc-linux-gnu/bin/../lib/gcc/nios2-elf/5.3.0/../../../../../H-x86_64-pc-linux-gnu/nios2-elf/lib/pg/libc.a(lib_a-fgets.o) (memchr)
/package/eda/altera/altera17.0/nios2eds/bin/gnu/H-x86_64-pc-linux-gnu/bin/../lib/gcc/nios2-elf/5.3.0/../../../../../H-x86_64-pc-linux-gnu/nios2-elf/lib/pg/libc.a(lib_a-memcpy.o)
                              obj/default/kann.o (memcpy)
/package/eda/altera/altera17.0/nios2eds/bin/gnu/H-x86_64-pc-linux-gnu/bin/../lib/gcc/nios2-elf/5.3.0/../../../../../H-x86_64-pc-linux-gnu/nios2-elf/lib/pg/libc.a(lib_a-memmove.o)
                              /package/eda/altera/altera17.0/nios2eds/bin/gnu/H-x86_64-pc-linux-gnu/bin/../lib/gcc/nios2-elf/5.3.0/../../../../../H-x86_64-pc-linux-gnu/nios2-elf/lib/pg/libc.a(lib_a-fvwrite.o) (memmove)
/package/eda/altera/altera17.0/nios2eds/bin/gnu/H-x86_64-pc-linux-gnu/bin/../lib/gcc/nios2-elf/5.3.0/../../../../../H-x86_64-pc-linux-gnu/nios2-elf/lib/pg/libc.a(lib_a-memset.o)
                              obj/default/kann.o (memset)
/package/eda/altera/altera17.0/nios2eds/bin/gnu/H-x86_64-pc-linux-gnu/bin/../lib/gcc/nios2-elf/5.3.0/../../../../../H-x86_64-pc-linux-gnu/nios2-elf/lib/pg/libc.a(lib_a-openr.o)
                              /package/eda/altera/altera17.0/nios2eds/bin/gnu/H-x86_64-pc-linux-gnu/bin/../lib/gcc/nios2-elf/5.3.0/../../../../../H-x86_64-pc-linux-gnu/nios2-elf/lib/pg/libc.a(lib_a-fopen.o) (_open_r)
/package/eda/altera/altera17.0/nios2eds/bin/gnu/H-x86_64-pc-linux-gnu/bin/../lib/gcc/nios2-elf/5.3.0/../../../../../H-x86_64-pc-linux-gnu/nios2-elf/lib/pg/libc.a(lib_a-printf.o)
                              obj/default/kann.o (printf)
/package/eda/altera/altera17.0/nios2eds/bin/gnu/H-x86_64-pc-linux-gnu/bin/../lib/gcc/nios2-elf/5.3.0/../../../../../H-x86_64-pc-linux-gnu/nios2-elf/lib/pg/libc.a(lib_a-putc.o)
                              /package/eda/altera/altera17.0/nios2eds/bin/gnu/H-x86_64-pc-linux-gnu/bin/../lib/gcc/nios2-elf/5.3.0/../../../../../H-x86_64-pc-linux-gnu/nios2-elf/lib/pg/libc.a(lib_a-fputc.o) (_putc_r)
/package/eda/altera/altera17.0/nios2eds/bin/gnu/H-x86_64-pc-linux-gnu/bin/../lib/gcc/nios2-elf/5.3.0/../../../../../H-x86_64-pc-linux-gnu/nios2-elf/lib/pg/libc.a(lib_a-realloc.o)
                              obj/default/kann.o (realloc)
/package/eda/altera/altera17.0/nios2eds/bin/gnu/H-x86_64-pc-linux-gnu/bin/../lib/gcc/nios2-elf/5.3.0/../../../../../H-x86_64-pc-linux-gnu/nios2-elf/lib/pg/libc.a(lib_a-reallocr.o)
                              /package/eda/altera/altera17.0/nios2eds/bin/gnu/H-x86_64-pc-linux-gnu/bin/../lib/gcc/nios2-elf/5.3.0/../../../../../H-x86_64-pc-linux-gnu/nios2-elf/lib/pg/libc.a(lib_a-fvwrite.o) (_realloc_r)
/package/eda/altera/altera17.0/nios2eds/bin/gnu/H-x86_64-pc-linux-gnu/bin/../lib/gcc/nios2-elf/5.3.0/../../../../../H-x86_64-pc-linux-gnu/nios2-elf/lib/pg/libc.a(lib_a-refill.o)
                              /package/eda/altera/altera17.0/nios2eds/bin/gnu/H-x86_64-pc-linux-gnu/bin/../lib/gcc/nios2-elf/5.3.0/../../../../../H-x86_64-pc-linux-gnu/nios2-elf/lib/pg/libc.a(lib_a-fgets.o) (__srefill_r)
/package/eda/altera/altera17.0/nios2eds/bin/gnu/H-x86_64-pc-linux-gnu/bin/../lib/gcc/nios2-elf/5.3.0/../../../../../H-x86_64-pc-linux-gnu/nios2-elf/lib/pg/libc.a(lib_a-sbrkr.o)
                              /package/eda/altera/altera17.0/nios2eds/bin/gnu/H-x86_64-pc-linux-gnu/bin/../lib/gcc/nios2-elf/5.3.0/../../../../../H-x86_64-pc-linux-gnu/nios2-elf/lib/pg/libc.a(lib_a-freer.o) (_sbrk_r)
/package/eda/altera/altera17.0/nios2eds/bin/gnu/H-x86_64-pc-linux-gnu/bin/../lib/gcc/nios2-elf/5.3.0/../../../../../H-x86_64-pc-linux-gnu/nios2-elf/lib/pg/libc.a(lib_a-signal.o)
                              /package/eda/altera/altera17.0/nios2eds/bin/gnu/H-x86_64-pc-linux-gnu/bin/../lib/gcc/nios2-elf/5.3.0/../../../../../H-x86_64-pc-linux-gnu/nios2-elf/lib/pg/libc.a(lib_a-abort.o) (raise)
/package/eda/altera/altera17.0/nios2eds/bin/gnu/H-x86_64-pc-linux-gnu/bin/../lib/gcc/nios2-elf/5.3.0/../../../../../H-x86_64-pc-linux-gnu/nios2-elf/lib/pg/libc.a(lib_a-signalr.o)
                              /package/eda/altera/altera17.0/nios2eds/bin/gnu/H-x86_64-pc-linux-gnu/bin/../lib/gcc/nios2-elf/5.3.0/../../../../../H-x86_64-pc-linux-gnu/nios2-elf/lib/pg/libc.a(lib_a-signal.o) (_kill_r)
/package/eda/altera/altera17.0/nios2eds/bin/gnu/H-x86_64-pc-linux-gnu/bin/../lib/gcc/nios2-elf/5.3.0/../../../../../H-x86_64-pc-linux-gnu/nios2-elf/lib/pg/libc.a(lib_a-stdio.o)
                              /package/eda/altera/altera17.0/nios2eds/bin/gnu/H-x86_64-pc-linux-gnu/bin/../lib/gcc/nios2-elf/5.3.0/../../../../../H-x86_64-pc-linux-gnu/nios2-elf/lib/pg/libc.a(lib_a-findfp.o) (__sread)
/package/eda/altera/altera17.0/nios2eds/bin/gnu/H-x86_64-pc-linux-gnu/bin/../lib/gcc/nios2-elf/5.3.0/../../../../../H-x86_64-pc-linux-gnu/nios2-elf/lib/pg/libc.a(lib_a-strcmp.o)
                              obj/default/kann.o (strcmp)
/package/eda/altera/altera17.0/nios2eds/bin/gnu/H-x86_64-pc-linux-gnu/bin/../lib/gcc/nios2-elf/5.3.0/../../../../../H-x86_64-pc-linux-gnu/nios2-elf/lib/pg/libc.a(lib_a-strdup.o)
                              obj/default/kann_data.o (strdup)
/package/eda/altera/altera17.0/nios2eds/bin/gnu/H-x86_64-pc-linux-gnu/bin/../lib/gcc/nios2-elf/5.3.0/../../../../../H-x86_64-pc-linux-gnu/nios2-elf/lib/pg/libc.a(lib_a-strdup_r.o)
                              /package/eda/altera/altera17.0/nios2eds/bin/gnu/H-x86_64-pc-linux-gnu/bin/../lib/gcc/nios2-elf/5.3.0/../../../../../H-x86_64-pc-linux-gnu/nios2-elf/lib/pg/libc.a(lib_a-strdup.o) (_strdup_r)
/package/eda/altera/altera17.0/nios2eds/bin/gnu/H-x86_64-pc-linux-gnu/bin/../lib/gcc/nios2-elf/5.3.0/../../../../../H-x86_64-pc-linux-gnu/nios2-elf/lib/pg/libc.a(lib_a-strlen.o)
                              obj/default/kann_data.o (strlen)
/package/eda/altera/altera17.0/nios2eds/bin/gnu/H-x86_64-pc-linux-gnu/bin/../lib/gcc/nios2-elf/5.3.0/../../../../../H-x86_64-pc-linux-gnu/nios2-elf/lib/pg/libc.a(lib_a-strncmp.o)
                              obj/default/kann.o (strncmp)
/package/eda/altera/altera17.0/nios2eds/bin/gnu/H-x86_64-pc-linux-gnu/bin/../lib/gcc/nios2-elf/5.3.0/../../../../../H-x86_64-pc-linux-gnu/nios2-elf/lib/pg/libc.a(lib_a-strtod.o)
                              obj/default/kann_data.o (strtod)
/package/eda/altera/altera17.0/nios2eds/bin/gnu/H-x86_64-pc-linux-gnu/bin/../lib/gcc/nios2-elf/5.3.0/../../../../../H-x86_64-pc-linux-gnu/nios2-elf/lib/pg/libc.a(lib_a-vfiprintfr_1.o)
                              /package/eda/altera/altera17.0/nios2eds/bin/gnu/H-x86_64-pc-linux-gnu/bin/../lib/gcc/nios2-elf/5.3.0/../../../../../H-x86_64-pc-linux-gnu/nios2-elf/lib/pg/libc.a(lib_a-fiprintf.o) (_vfiprintf_r)
/package/eda/altera/altera17.0/nios2eds/bin/gnu/H-x86_64-pc-linux-gnu/bin/../lib/gcc/nios2-elf/5.3.0/../../../../../H-x86_64-pc-linux-gnu/nios2-elf/lib/pg/libc.a(lib_a-vfprintf.o)
                              /package/eda/altera/altera17.0/nios2eds/bin/gnu/H-x86_64-pc-linux-gnu/bin/../lib/gcc/nios2-elf/5.3.0/../../../../../H-x86_64-pc-linux-gnu/nios2-elf/lib/pg/libc.a(lib_a-printf.o) (___vfprintf_internal_r)
/package/eda/altera/altera17.0/nios2eds/bin/gnu/H-x86_64-pc-linux-gnu/bin/../lib/gcc/nios2-elf/5.3.0/../../../../../H-x86_64-pc-linux-gnu/nios2-elf/lib/pg/libc.a(lib_a-wbuf.o)
                              /package/eda/altera/altera17.0/nios2eds/bin/gnu/H-x86_64-pc-linux-gnu/bin/../lib/gcc/nios2-elf/5.3.0/../../../../../H-x86_64-pc-linux-gnu/nios2-elf/lib/pg/libc.a(lib_a-putc.o) (__swbuf_r)
/package/eda/altera/altera17.0/nios2eds/bin/gnu/H-x86_64-pc-linux-gnu/bin/../lib/gcc/nios2-elf/5.3.0/../../../../../H-x86_64-pc-linux-gnu/nios2-elf/lib/pg/libc.a(lib_a-writer.o)
                              /package/eda/altera/altera17.0/nios2eds/bin/gnu/H-x86_64-pc-linux-gnu/bin/../lib/gcc/nios2-elf/5.3.0/../../../../../H-x86_64-pc-linux-gnu/nios2-elf/lib/pg/libc.a(lib_a-stdio.o) (_write_r)
/package/eda/altera/altera17.0/nios2eds/bin/gnu/H-x86_64-pc-linux-gnu/bin/../lib/gcc/nios2-elf/5.3.0/../../../../../H-x86_64-pc-linux-gnu/nios2-elf/lib/pg/libc.a(lib_a-wsetup.o)
                              /package/eda/altera/altera17.0/nios2eds/bin/gnu/H-x86_64-pc-linux-gnu/bin/../lib/gcc/nios2-elf/5.3.0/../../../../../H-x86_64-pc-linux-gnu/nios2-elf/lib/pg/libc.a(lib_a-fvwrite.o) (__swsetup_r)
/package/eda/altera/altera17.0/nios2eds/bin/gnu/H-x86_64-pc-linux-gnu/bin/../lib/gcc/nios2-elf/5.3.0/../../../../../H-x86_64-pc-linux-gnu/nios2-elf/lib/pg/libc.a(closer.o)
                              /package/eda/altera/altera17.0/nios2eds/bin/gnu/H-x86_64-pc-linux-gnu/bin/../lib/gcc/nios2-elf/5.3.0/../../../../../H-x86_64-pc-linux-gnu/nios2-elf/lib/pg/libc.a(lib_a-stdio.o) (_close_r)
/package/eda/altera/altera17.0/nios2eds/bin/gnu/H-x86_64-pc-linux-gnu/bin/../lib/gcc/nios2-elf/5.3.0/../../../../../H-x86_64-pc-linux-gnu/nios2-elf/lib/pg/libc.a(lib_a-__call_atexit.o)
                              /package/eda/altera/altera17.0/nios2eds/bin/gnu/H-x86_64-pc-linux-gnu/bin/../lib/gcc/nios2-elf/5.3.0/../../../../../H-x86_64-pc-linux-gnu/nios2-elf/lib/pg/libc.a(lib_a-exit.o) (__call_exitprocs)
/package/eda/altera/altera17.0/nios2eds/bin/gnu/H-x86_64-pc-linux-gnu/bin/../lib/gcc/nios2-elf/5.3.0/../../../../../H-x86_64-pc-linux-gnu/nios2-elf/lib/pg/libc.a(lib_a-dtoa.o)
                              /package/eda/altera/altera17.0/nios2eds/bin/gnu/H-x86_64-pc-linux-gnu/bin/../lib/gcc/nios2-elf/5.3.0/../../../../../H-x86_64-pc-linux-gnu/nios2-elf/lib/pg/libc.a(lib_a-vfprintf.o) (_dtoa_r)
/package/eda/altera/altera17.0/nios2eds/bin/gnu/H-x86_64-pc-linux-gnu/bin/../lib/gcc/nios2-elf/5.3.0/../../../../../H-x86_64-pc-linux-gnu/nios2-elf/lib/pg/libc.a(lib_a-flags.o)
                              /package/eda/altera/altera17.0/nios2eds/bin/gnu/H-x86_64-pc-linux-gnu/bin/../lib/gcc/nios2-elf/5.3.0/../../../../../H-x86_64-pc-linux-gnu/nios2-elf/lib/pg/libc.a(lib_a-fopen.o) (__sflags)
/package/eda/altera/altera17.0/nios2eds/bin/gnu/H-x86_64-pc-linux-gnu/bin/../lib/gcc/nios2-elf/5.3.0/../../../../../H-x86_64-pc-linux-gnu/nios2-elf/lib/pg/libc.a(lib_a-gdtoa-gethex.o)
                              /package/eda/altera/altera17.0/nios2eds/bin/gnu/H-x86_64-pc-linux-gnu/bin/../lib/gcc/nios2-elf/5.3.0/../../../../../H-x86_64-pc-linux-gnu/nios2-elf/lib/pg/libc.a(lib_a-strtod.o) (__gethex)
/package/eda/altera/altera17.0/nios2eds/bin/gnu/H-x86_64-pc-linux-gnu/bin/../lib/gcc/nios2-elf/5.3.0/../../../../../H-x86_64-pc-linux-gnu/nios2-elf/lib/pg/libc.a(lib_a-gdtoa-hexnan.o)
                              /package/eda/altera/altera17.0/nios2eds/bin/gnu/H-x86_64-pc-linux-gnu/bin/../lib/gcc/nios2-elf/5.3.0/../../../../../H-x86_64-pc-linux-gnu/nios2-elf/lib/pg/libc.a(lib_a-strtod.o) (__hexnan)
/package/eda/altera/altera17.0/nios2eds/bin/gnu/H-x86_64-pc-linux-gnu/bin/../lib/gcc/nios2-elf/5.3.0/../../../../../H-x86_64-pc-linux-gnu/nios2-elf/lib/pg/libc.a(lib_a-isattyr.o)
                              /package/eda/altera/altera17.0/nios2eds/bin/gnu/H-x86_64-pc-linux-gnu/bin/../lib/gcc/nios2-elf/5.3.0/../../../../../H-x86_64-pc-linux-gnu/nios2-elf/lib/pg/libc.a(lib_a-makebuf.o) (_isatty_r)
/package/eda/altera/altera17.0/nios2eds/bin/gnu/H-x86_64-pc-linux-gnu/bin/../lib/gcc/nios2-elf/5.3.0/../../../../../H-x86_64-pc-linux-gnu/nios2-elf/lib/pg/libc.a(lib_a-locale.o)
                              /package/eda/altera/altera17.0/nios2eds/bin/gnu/H-x86_64-pc-linux-gnu/bin/../lib/gcc/nios2-elf/5.3.0/../../../../../H-x86_64-pc-linux-gnu/nios2-elf/lib/pg/libc.a(lib_a-strtod.o) (_localeconv_r)
/package/eda/altera/altera17.0/nios2eds/bin/gnu/H-x86_64-pc-linux-gnu/bin/../lib/gcc/nios2-elf/5.3.0/../../../../../H-x86_64-pc-linux-gnu/nios2-elf/lib/pg/libc.a(lib_a-lseekr.o)
                              /package/eda/altera/altera17.0/nios2eds/bin/gnu/H-x86_64-pc-linux-gnu/bin/../lib/gcc/nios2-elf/5.3.0/../../../../../H-x86_64-pc-linux-gnu/nios2-elf/lib/pg/libc.a(lib_a-stdio.o) (_lseek_r)
/package/eda/altera/altera17.0/nios2eds/bin/gnu/H-x86_64-pc-linux-gnu/bin/../lib/gcc/nios2-elf/5.3.0/../../../../../H-x86_64-pc-linux-gnu/nios2-elf/lib/pg/libc.a(lib_a-mprec.o)
                              /package/eda/altera/altera17.0/nios2eds/bin/gnu/H-x86_64-pc-linux-gnu/bin/../lib/gcc/nios2-elf/5.3.0/../../../../../H-x86_64-pc-linux-gnu/nios2-elf/lib/pg/libc.a(lib_a-strtod.o) (_Balloc)
/package/eda/altera/altera17.0/nios2eds/bin/gnu/H-x86_64-pc-linux-gnu/bin/../lib/gcc/nios2-elf/5.3.0/../../../../../H-x86_64-pc-linux-gnu/nios2-elf/lib/pg/libc.a(lib_a-readr.o)
                              /package/eda/altera/altera17.0/nios2eds/bin/gnu/H-x86_64-pc-linux-gnu/bin/../lib/gcc/nios2-elf/5.3.0/../../../../../H-x86_64-pc-linux-gnu/nios2-elf/lib/pg/libc.a(lib_a-stdio.o) (_read_r)
/package/eda/altera/altera17.0/nios2eds/bin/gnu/H-x86_64-pc-linux-gnu/bin/../lib/gcc/nios2-elf/5.3.0/../../../../../H-x86_64-pc-linux-gnu/nios2-elf/lib/pg/libc.a(lib_a-vfiprintf.o)
                              /package/eda/altera/altera17.0/nios2eds/bin/gnu/H-x86_64-pc-linux-gnu/bin/../lib/gcc/nios2-elf/5.3.0/../../../../../H-x86_64-pc-linux-gnu/nios2-elf/lib/pg/libc.a(lib_a-vfprintf.o) (__sprint_r)
/package/eda/altera/altera17.0/nios2eds/bin/gnu/H-x86_64-pc-linux-gnu/bin/../lib/gcc/nios2-elf/5.3.0/../../../../../H-x86_64-pc-linux-gnu/nios2-elf/lib/pg/libc.a(lib_a-fputwc.o)
                              /package/eda/altera/altera17.0/nios2eds/bin/gnu/H-x86_64-pc-linux-gnu/bin/../lib/gcc/nios2-elf/5.3.0/../../../../../H-x86_64-pc-linux-gnu/nios2-elf/lib/pg/libc.a(lib_a-vfiprintf.o) (_fputwc_r)
/package/eda/altera/altera17.0/nios2eds/bin/gnu/H-x86_64-pc-linux-gnu/bin/../lib/gcc/nios2-elf/5.3.0/../../../../../H-x86_64-pc-linux-gnu/nios2-elf/lib/pg/libc.a(lib_a-wcrtomb.o)
                              /package/eda/altera/altera17.0/nios2eds/bin/gnu/H-x86_64-pc-linux-gnu/bin/../lib/gcc/nios2-elf/5.3.0/../../../../../H-x86_64-pc-linux-gnu/nios2-elf/lib/pg/libc.a(lib_a-fputwc.o) (_wcrtomb_r)
/package/eda/altera/altera17.0/nios2eds/bin/gnu/H-x86_64-pc-linux-gnu/bin/../lib/gcc/nios2-elf/5.3.0/../../../../../H-x86_64-pc-linux-gnu/nios2-elf/lib/pg/libc.a(lib_a-wctomb_r.o)
                              /package/eda/altera/altera17.0/nios2eds/bin/gnu/H-x86_64-pc-linux-gnu/bin/../lib/gcc/nios2-elf/5.3.0/../../../../../H-x86_64-pc-linux-gnu/nios2-elf/lib/pg/libc.a(lib_a-wcrtomb.o) (__wctomb)
/package/eda/altera/altera17.0/nios2eds/bin/gnu/H-x86_64-pc-linux-gnu/bin/../lib/gcc/nios2-elf/5.3.0/pg/libgcc.a(_fixunsdfsi.o)
                              /package/eda/altera/altera17.0/nios2eds/bin/gnu/H-x86_64-pc-linux-gnu/bin/../lib/gcc/nios2-elf/5.3.0/../../../../../H-x86_64-pc-linux-gnu/nios2-elf/lib/pg/libc.a(lib_a-strtod.o) (__fixunsdfsi)
/package/eda/altera/altera17.0/nios2eds/bin/gnu/H-x86_64-pc-linux-gnu/bin/../lib/gcc/nios2-elf/5.3.0/pg/libgcc.a(_udivdi3.o)
                              /package/eda/altera/altera17.0/nios2eds/bin/gnu/H-x86_64-pc-linux-gnu/bin/../lib/gcc/nios2-elf/5.3.0/../../../../../H-x86_64-pc-linux-gnu/nios2-elf/lib/pg/libc.a(lib_a-vfprintf.o) (__udivdi3)
/package/eda/altera/altera17.0/nios2eds/bin/gnu/H-x86_64-pc-linux-gnu/bin/../lib/gcc/nios2-elf/5.3.0/pg/libgcc.a(_umoddi3.o)
                              /package/eda/altera/altera17.0/nios2eds/bin/gnu/H-x86_64-pc-linux-gnu/bin/../lib/gcc/nios2-elf/5.3.0/../../../../../H-x86_64-pc-linux-gnu/nios2-elf/lib/pg/libc.a(lib_a-vfprintf.o) (__umoddi3)
/package/eda/altera/altera17.0/nios2eds/bin/gnu/H-x86_64-pc-linux-gnu/bin/../lib/gcc/nios2-elf/5.3.0/pg/libgcc.a(floatunsidf.o)
                              /package/eda/altera/altera17.0/nios2eds/bin/gnu/H-x86_64-pc-linux-gnu/bin/../lib/gcc/nios2-elf/5.3.0/../../../../../H-x86_64-pc-linux-gnu/nios2-elf/lib/pg/libc.a(lib_a-strtod.o) (__floatunsidf)
../MNIST_CNN_Software_bsp//libhal_bsp.a(alt_close.o)
                              /package/eda/altera/altera17.0/nios2eds/bin/gnu/H-x86_64-pc-linux-gnu/bin/../lib/gcc/nios2-elf/5.3.0/../../../../../H-x86_64-pc-linux-gnu/nios2-elf/lib/pg/libc.a(closer.o) (close)
../MNIST_CNN_Software_bsp//libhal_bsp.a(alt_dev.o)
                              ../MNIST_CNN_Software_bsp//libhal_bsp.a(alt_close.o) (alt_fd_list)
../MNIST_CNN_Software_bsp//libhal_bsp.a(alt_errno.o)
                              ../MNIST_CNN_Software_bsp//libhal_bsp.a(alt_close.o) (alt_errno)
../MNIST_CNN_Software_bsp//libhal_bsp.a(alt_exit.o)
                              /package/eda/altera/altera17.0/nios2eds/bin/gnu/H-x86_64-pc-linux-gnu/bin/../lib/gcc/nios2-elf/5.3.0/../../../../../H-x86_64-pc-linux-gnu/nios2-elf/lib/pg/libc.a(lib_a-abort.o) (_exit)
../MNIST_CNN_Software_bsp//libhal_bsp.a(alt_fstat.o)
                              /package/eda/altera/altera17.0/nios2eds/bin/gnu/H-x86_64-pc-linux-gnu/bin/../lib/gcc/nios2-elf/5.3.0/../../../../../H-x86_64-pc-linux-gnu/nios2-elf/lib/pg/libc.a(lib_a-fstatr.o) (fstat)
../MNIST_CNN_Software_bsp//libhal_bsp.a(alt_getpid.o)
                              /package/eda/altera/altera17.0/nios2eds/bin/gnu/H-x86_64-pc-linux-gnu/bin/../lib/gcc/nios2-elf/5.3.0/../../../../../H-x86_64-pc-linux-gnu/nios2-elf/lib/pg/libc.a(lib_a-signalr.o) (getpid)
../MNIST_CNN_Software_bsp//libhal_bsp.a(alt_gmon.o)
                              ../MNIST_CNN_Software_bsp//libhal_bsp.a(alt_exit.o) (alt_gmon_data)
../MNIST_CNN_Software_bsp//libhal_bsp.a(alt_isatty.o)
                              /package/eda/altera/altera17.0/nios2eds/bin/gnu/H-x86_64-pc-linux-gnu/bin/../lib/gcc/nios2-elf/5.3.0/../../../../../H-x86_64-pc-linux-gnu/nios2-elf/lib/pg/libc.a(lib_a-isattyr.o) (isatty)
../MNIST_CNN_Software_bsp//libhal_bsp.a(alt_kill.o)
                              /package/eda/altera/altera17.0/nios2eds/bin/gnu/H-x86_64-pc-linux-gnu/bin/../lib/gcc/nios2-elf/5.3.0/../../../../../H-x86_64-pc-linux-gnu/nios2-elf/lib/pg/libc.a(lib_a-signalr.o) (kill)
../MNIST_CNN_Software_bsp//libhal_bsp.a(alt_load.o)
                              ../MNIST_CNN_Software_bsp//obj/HAL/src/crt0.o (alt_load)
../MNIST_CNN_Software_bsp//libhal_bsp.a(alt_lseek.o)
                              /package/eda/altera/altera17.0/nios2eds/bin/gnu/H-x86_64-pc-linux-gnu/bin/../lib/gcc/nios2-elf/5.3.0/../../../../../H-x86_64-pc-linux-gnu/nios2-elf/lib/pg/libc.a(lib_a-lseekr.o) (lseek)
../MNIST_CNN_Software_bsp//libhal_bsp.a(alt_main.o)
                              ../MNIST_CNN_Software_bsp//obj/HAL/src/crt0.o (alt_main)
../MNIST_CNN_Software_bsp//libhal_bsp.a(alt_malloc_lock.o)
                              /package/eda/altera/altera17.0/nios2eds/bin/gnu/H-x86_64-pc-linux-gnu/bin/../lib/gcc/nios2-elf/5.3.0/../../../../../H-x86_64-pc-linux-gnu/nios2-elf/lib/pg/libc.a(lib_a-freer.o) (__malloc_lock)
../MNIST_CNN_Software_bsp//libhal_bsp.a(alt_mcount.o)
                              obj/default/kann.o (_mcount)
../MNIST_CNN_Software_bsp//libhal_bsp.a(alt_open.o)
                              /package/eda/altera/altera17.0/nios2eds/bin/gnu/H-x86_64-pc-linux-gnu/bin/../lib/gcc/nios2-elf/5.3.0/../../../../../H-x86_64-pc-linux-gnu/nios2-elf/lib/pg/libc.a(lib_a-openr.o) (open)
../MNIST_CNN_Software_bsp//libhal_bsp.a(alt_read.o)
                              /package/eda/altera/altera17.0/nios2eds/bin/gnu/H-x86_64-pc-linux-gnu/bin/../lib/gcc/nios2-elf/5.3.0/../../../../../H-x86_64-pc-linux-gnu/nios2-elf/lib/pg/libc.a(lib_a-readr.o) (read)
../MNIST_CNN_Software_bsp//libhal_bsp.a(alt_release_fd.o)
                              ../MNIST_CNN_Software_bsp//libhal_bsp.a(alt_close.o) (alt_release_fd)
../MNIST_CNN_Software_bsp//libhal_bsp.a(alt_sbrk.o)
                              /package/eda/altera/altera17.0/nios2eds/bin/gnu/H-x86_64-pc-linux-gnu/bin/../lib/gcc/nios2-elf/5.3.0/../../../../../H-x86_64-pc-linux-gnu/nios2-elf/lib/pg/libc.a(lib_a-sbrkr.o) (sbrk)
../MNIST_CNN_Software_bsp//libhal_bsp.a(alt_tick.o)
                              ../MNIST_CNN_Software_bsp//libhal_bsp.a(alt_gmon.o) (_alt_tick_rate)
../MNIST_CNN_Software_bsp//libhal_bsp.a(alt_write.o)
                              /package/eda/altera/altera17.0/nios2eds/bin/gnu/H-x86_64-pc-linux-gnu/bin/../lib/gcc/nios2-elf/5.3.0/../../../../../H-x86_64-pc-linux-gnu/nios2-elf/lib/pg/libc.a(lib_a-writer.o) (write)
../MNIST_CNN_Software_bsp//libhal_bsp.a(alt_sys_init.o)
                              ../MNIST_CNN_Software_bsp//libhal_bsp.a(alt_main.o) (alt_irq_init)
../MNIST_CNN_Software_bsp//libhal_bsp.a(altera_avalon_cfi_flash.o)
                              ../MNIST_CNN_Software_bsp//libhal_bsp.a(alt_sys_init.o) (alt_flash_cfi_init)
../MNIST_CNN_Software_bsp//libhal_bsp.a(altera_avalon_cfi_flash_table.o)
                              ../MNIST_CNN_Software_bsp//libhal_bsp.a(altera_avalon_cfi_flash.o) (alt_set_flash_width_func)
../MNIST_CNN_Software_bsp//libhal_bsp.a(altera_avalon_jtag_uart_fd.o)
                              ../MNIST_CNN_Software_bsp//libhal_bsp.a(alt_sys_init.o) (altera_avalon_jtag_uart_read_fd)
../MNIST_CNN_Software_bsp//libhal_bsp.a(altera_avalon_jtag_uart_init.o)
                              ../MNIST_CNN_Software_bsp//libhal_bsp.a(alt_sys_init.o) (altera_avalon_jtag_uart_init)
../MNIST_CNN_Software_bsp//libhal_bsp.a(altera_avalon_jtag_uart_ioctl.o)
                              ../MNIST_CNN_Software_bsp//libhal_bsp.a(altera_avalon_jtag_uart_fd.o) (altera_avalon_jtag_uart_ioctl)
../MNIST_CNN_Software_bsp//libhal_bsp.a(altera_avalon_jtag_uart_read.o)
                              ../MNIST_CNN_Software_bsp//libhal_bsp.a(altera_avalon_jtag_uart_fd.o) (altera_avalon_jtag_uart_read)
../MNIST_CNN_Software_bsp//libhal_bsp.a(altera_avalon_jtag_uart_write.o)
                              ../MNIST_CNN_Software_bsp//libhal_bsp.a(altera_avalon_jtag_uart_fd.o) (altera_avalon_jtag_uart_write)
../MNIST_CNN_Software_bsp//libhal_bsp.a(altera_avalon_timer_sc.o)
                              ../MNIST_CNN_Software_bsp//libhal_bsp.a(alt_sys_init.o) (alt_avalon_timer_sc_init)
../MNIST_CNN_Software_bsp//libhal_bsp.a(altera_ro_zipfs.o)
                              ../MNIST_CNN_Software_bsp//libhal_bsp.a(alt_sys_init.o) (alt_ro_zipfs_open)
../MNIST_CNN_Software_bsp//libhal_bsp.a(altera_up_avalon_video_character_buffer_with_dma.o)
                              ../MNIST_CNN_Software_bsp//libhal_bsp.a(alt_sys_init.o) (alt_up_char_buffer_init)
../MNIST_CNN_Software_bsp//libhal_bsp.a(altera_up_avalon_video_pixel_buffer_dma.o)
                              obj/default/mnist-cnn.o (alt_up_pixel_buffer_dma_open_dev)
../MNIST_CNN_Software_bsp//libhal_bsp.a(alt_alarm_start.o)
                              ../MNIST_CNN_Software_bsp//libhal_bsp.a(alt_gmon.o) (alt_alarm_start)
../MNIST_CNN_Software_bsp//libhal_bsp.a(alt_dcache_flush.o)
                              ../MNIST_CNN_Software_bsp//libhal_bsp.a(altera_avalon_cfi_flash.o) (alt_dcache_flush)
../MNIST_CNN_Software_bsp//libhal_bsp.a(alt_dcache_flush_all.o)
                              ../MNIST_CNN_Software_bsp//libhal_bsp.a(alt_load.o) (alt_dcache_flush_all)
../MNIST_CNN_Software_bsp//libhal_bsp.a(alt_dev_llist_insert.o)
                              ../MNIST_CNN_Software_bsp//libhal_bsp.a(alt_sys_init.o) (alt_dev_llist_insert)
../MNIST_CNN_Software_bsp//libhal_bsp.a(alt_do_ctors.o)
                              ../MNIST_CNN_Software_bsp//libhal_bsp.a(alt_main.o) (_do_ctors)
../MNIST_CNN_Software_bsp//libhal_bsp.a(alt_do_dtors.o)
                              ../MNIST_CNN_Software_bsp//libhal_bsp.a(alt_main.o) (_do_dtors)
../MNIST_CNN_Software_bsp//libhal_bsp.a(alt_find_dev.o)
                              ../MNIST_CNN_Software_bsp//libhal_bsp.a(alt_open.o) (alt_find_dev)
../MNIST_CNN_Software_bsp//libhal_bsp.a(alt_find_file.o)
                              ../MNIST_CNN_Software_bsp//libhal_bsp.a(alt_open.o) (alt_find_file)
../MNIST_CNN_Software_bsp//libhal_bsp.a(alt_flash_dev.o)
                              ../MNIST_CNN_Software_bsp//libhal_bsp.a(altera_avalon_cfi_flash.o) (alt_flash_dev_list)
../MNIST_CNN_Software_bsp//libhal_bsp.a(alt_fs_reg.o)
                              ../MNIST_CNN_Software_bsp//libhal_bsp.a(alt_sys_init.o) (alt_fs_reg)
../MNIST_CNN_Software_bsp//libhal_bsp.a(alt_get_fd.o)
                              ../MNIST_CNN_Software_bsp//libhal_bsp.a(alt_open.o) (alt_get_fd)
../MNIST_CNN_Software_bsp//libhal_bsp.a(alt_icache_flush_all.o)
                              ../MNIST_CNN_Software_bsp//libhal_bsp.a(alt_load.o) (alt_icache_flush_all)
../MNIST_CNN_Software_bsp//libhal_bsp.a(alt_iic.o)
                              ../MNIST_CNN_Software_bsp//libhal_bsp.a(altera_avalon_jtag_uart_init.o) (alt_ic_isr_register)
../MNIST_CNN_Software_bsp//libhal_bsp.a(alt_iic_isr_register.o)
                              ../MNIST_CNN_Software_bsp//libhal_bsp.a(alt_iic.o) (alt_iic_isr_register)
../MNIST_CNN_Software_bsp//libhal_bsp.a(alt_io_redirect.o)
                              ../MNIST_CNN_Software_bsp//libhal_bsp.a(alt_main.o) (alt_io_redirect)
../MNIST_CNN_Software_bsp//libhal_bsp.a(alt_irq_entry.o)
                              ../MNIST_CNN_Software_bsp//libhal_bsp.a(alt_iic_isr_register.o) (alt_irq_entry)
../MNIST_CNN_Software_bsp//libhal_bsp.a(alt_irq_handler.o)
                              ../MNIST_CNN_Software_bsp//libhal_bsp.a(alt_iic_isr_register.o) (alt_irq_handler)
../MNIST_CNN_Software_bsp//libhal_bsp.a(alt_irq_vars.o)
                              ../MNIST_CNN_Software_bsp//libhal_bsp.a(alt_iic.o) (alt_irq_active)
../MNIST_CNN_Software_bsp//libhal_bsp.a(altera_nios2_qsys_irq.o)
                              ../MNIST_CNN_Software_bsp//libhal_bsp.a(alt_sys_init.o) (altera_nios2_qsys_irq_init)
../MNIST_CNN_Software_bsp//libhal_bsp.a(altera_avalon_cfi_flash_amd.o)
                              ../MNIST_CNN_Software_bsp//libhal_bsp.a(altera_avalon_cfi_flash_table.o) (alt_program_amd)
../MNIST_CNN_Software_bsp//libhal_bsp.a(altera_avalon_cfi_flash_intel.o)
                              ../MNIST_CNN_Software_bsp//libhal_bsp.a(altera_avalon_cfi_flash_table.o) (alt_program_intel)
../MNIST_CNN_Software_bsp//libhal_bsp.a(alt_exception_entry.o)
                              ../MNIST_CNN_Software_bsp//libhal_bsp.a(alt_irq_entry.o) (alt_exception)
../MNIST_CNN_Software_bsp//libhal_bsp.a(alt_icache_flush.o)
                              ../MNIST_CNN_Software_bsp//libhal_bsp.a(alt_icache_flush_all.o) (alt_icache_flush)
../MNIST_CNN_Software_bsp//libhal_bsp.a(alt_usleep.o)
                              ../MNIST_CNN_Software_bsp//libhal_bsp.a(altera_avalon_cfi_flash_amd.o) (usleep)
../MNIST_CNN_Software_bsp//libhal_bsp.a(alt_busy_sleep.o)
                              ../MNIST_CNN_Software_bsp//libhal_bsp.a(alt_usleep.o) (alt_busy_sleep)
/package/eda/altera/altera17.0/nios2eds/bin/gnu/H-x86_64-pc-linux-gnu/bin/../lib/gcc/nios2-elf/5.3.0/../../../../../H-x86_64-pc-linux-gnu/nios2-elf/lib/pg/libc.a(lib_a-atexit.o)
                              ../MNIST_CNN_Software_bsp//libhal_bsp.a(alt_main.o) (atexit)
/package/eda/altera/altera17.0/nios2eds/bin/gnu/H-x86_64-pc-linux-gnu/bin/../lib/gcc/nios2-elf/5.3.0/../../../../../H-x86_64-pc-linux-gnu/nios2-elf/lib/pg/libc.a(lib_a-memcmp.o)
                              ../MNIST_CNN_Software_bsp//libhal_bsp.a(altera_avalon_cfi_flash.o) (memcmp)
/package/eda/altera/altera17.0/nios2eds/bin/gnu/H-x86_64-pc-linux-gnu/bin/../lib/gcc/nios2-elf/5.3.0/../../../../../H-x86_64-pc-linux-gnu/nios2-elf/lib/pg/libc.a(lib_a-__atexit.o)
                              /package/eda/altera/altera17.0/nios2eds/bin/gnu/H-x86_64-pc-linux-gnu/bin/../lib/gcc/nios2-elf/5.3.0/../../../../../H-x86_64-pc-linux-gnu/nios2-elf/lib/pg/libc.a(lib_a-atexit.o) (__register_exitproc)

Allocating common symbols
Common symbol       size              file

alt_irq             0x100             ../MNIST_CNN_Software_bsp//libhal_bsp.a(alt_irq_handler.o)
errno               0x4               /package/eda/altera/altera17.0/nios2eds/bin/gnu/H-x86_64-pc-linux-gnu/bin/../lib/gcc/nios2-elf/5.3.0/../../../../../H-x86_64-pc-linux-gnu/nios2-elf/lib/pg/libc.a(lib_a-int_errno.o)
__mcount_fn_head    0x100             ../MNIST_CNN_Software_bsp//libhal_bsp.a(alt_gmon.o)

Memory Configuration

Name             Origin             Length             Attributes
reset            0x0000000008000000 0x0000000000000020
new_sdram_controller_0 0x0000000008000020 0x0000000007ffffe0
generic_tristate_controller_0 0x0000000010000000 0x0000000000800000
*default*        0x0000000000000000 0xffffffffffffffff

Linker script and memory map

LOAD ../MNIST_CNN_Software_bsp//obj/HAL/src/crt0.o
LOAD obj/default/kann.o
LOAD obj/default/kann_data.o
LOAD obj/default/kautodiff.o
LOAD obj/default/mnist-cnn.o
LOAD /package/eda/altera/altera17.0/nios2eds/bin/gnu/H-x86_64-pc-linux-gnu/bin/../lib/gcc/nios2-elf/5.3.0/../../../../../H-x86_64-pc-linux-gnu/nios2-elf/lib/pg/libstdc++.a
LOAD /package/eda/altera/altera17.0/nios2eds/bin/gnu/H-x86_64-pc-linux-gnu/bin/../lib/gcc/nios2-elf/5.3.0/../../../../../H-x86_64-pc-linux-gnu/nios2-elf/lib/pg/libm.a
LOAD /package/eda/altera/altera17.0/nios2eds/bin/gnu/H-x86_64-pc-linux-gnu/bin/../lib/gcc/nios2-elf/5.3.0/pg/libgcc.a
START GROUP
LOAD /package/eda/altera/altera17.0/nios2eds/bin/gnu/H-x86_64-pc-linux-gnu/bin/../lib/gcc/nios2-elf/5.3.0/../../../../../H-x86_64-pc-linux-gnu/nios2-elf/lib/pg/libc.a
LOAD /package/eda/altera/altera17.0/nios2eds/bin/gnu/H-x86_64-pc-linux-gnu/bin/../lib/gcc/nios2-elf/5.3.0/pg/libgcc.a
LOAD ../MNIST_CNN_Software_bsp//libhal_bsp.a
LOAD /package/eda/altera/altera17.0/nios2eds/bin/gnu/H-x86_64-pc-linux-gnu/bin/../lib/gcc/nios2-elf/5.3.0/../../../../../H-x86_64-pc-linux-gnu/nios2-elf/lib/pg/libm.a
END GROUP
LOAD /package/eda/altera/altera17.0/nios2eds/bin/gnu/H-x86_64-pc-linux-gnu/bin/../lib/gcc/nios2-elf/5.3.0/pg/libgcc.a
                0x0000000008000000                __alt_mem_new_sdram_controller_0 = 0x8000000
                0x0000000010000000                __alt_mem_generic_tristate_controller_0 = 0x10000000

.entry          0x0000000008000000       0x20
 *(.entry)
 .entry         0x0000000008000000       0x20 ../MNIST_CNN_Software_bsp//obj/HAL/src/crt0.o
                0x0000000008000000                __reset

.exceptions     0x0000000008000020      0x13c
                0x0000000008000020                PROVIDE (__ram_exceptions_start, ABSOLUTE (.))
                0x0000000008000020                . = ALIGN (0x20)
 *(.irq)
 *(.exceptions.entry.label)
 .exceptions.entry.label
                0x0000000008000020        0x0 ../MNIST_CNN_Software_bsp//libhal_bsp.a(alt_irq_entry.o)
                0x0000000008000020                alt_irq_entry
 .exceptions.entry.label
                0x0000000008000020        0x0 ../MNIST_CNN_Software_bsp//libhal_bsp.a(alt_exception_entry.o)
                0x0000000008000020                alt_exception
 *(.exceptions.entry.user)
 *(.exceptions.entry.ecc_fatal)
 *(.exceptions.entry)
 .exceptions.entry
                0x0000000008000020       0x54 ../MNIST_CNN_Software_bsp//libhal_bsp.a(alt_exception_entry.o)
 *(.exceptions.irqtest.user)
 *(.exceptions.irqtest)
 .exceptions.irqtest
                0x0000000008000074       0x10 ../MNIST_CNN_Software_bsp//libhal_bsp.a(alt_irq_entry.o)
 *(.exceptions.irqhandler.user)
 *(.exceptions.irqhandler)
 .exceptions.irqhandler
                0x0000000008000084        0x4 ../MNIST_CNN_Software_bsp//libhal_bsp.a(alt_irq_entry.o)
 *(.exceptions.irqreturn.user)
 *(.exceptions.irqreturn)
 .exceptions.irqreturn
                0x0000000008000088        0x4 ../MNIST_CNN_Software_bsp//libhal_bsp.a(alt_irq_entry.o)
 *(.exceptions.notirq.label)
 .exceptions.notirq.label
                0x000000000800008c        0x0 ../MNIST_CNN_Software_bsp//libhal_bsp.a(alt_irq_entry.o)
 *(.exceptions.notirq.user)
 *(.exceptions.notirq)
 .exceptions.notirq
                0x000000000800008c        0x8 ../MNIST_CNN_Software_bsp//libhal_bsp.a(alt_exception_entry.o)
 *(.exceptions.soft.user)
 *(.exceptions.soft)
 *(.exceptions.unknown.user)
 *(.exceptions.unknown)
 .exceptions.unknown
                0x0000000008000094        0x4 ../MNIST_CNN_Software_bsp//libhal_bsp.a(alt_exception_entry.o)
 *(.exceptions.exit.label)
 .exceptions.exit.label
                0x0000000008000098        0x0 ../MNIST_CNN_Software_bsp//libhal_bsp.a(alt_irq_entry.o)
 .exceptions.exit.label
                0x0000000008000098        0x0 ../MNIST_CNN_Software_bsp//libhal_bsp.a(alt_exception_entry.o)
 *(.exceptions.exit.user)
 *(.exceptions.exit)
 .exceptions.exit
                0x0000000008000098       0x54 ../MNIST_CNN_Software_bsp//libhal_bsp.a(alt_exception_entry.o)
 *(.exceptions)
 .exceptions    0x00000000080000ec       0x70 ../MNIST_CNN_Software_bsp//libhal_bsp.a(alt_irq_handler.o)
                0x00000000080000ec                alt_irq_handler
                0x000000000800015c                PROVIDE (__ram_exceptions_end, ABSOLUTE (.))
                0x0000000008000020                PROVIDE (__flash_exceptions_start, LOADADDR (.exceptions))

.text           0x000000000800015c    0x35068
                0x000000000800015c                PROVIDE (stext, ABSOLUTE (.))
 *(.interp)
 *(.hash)
 *(.dynsym)
 *(.dynstr)
 *(.gnu.version)
 *(.gnu.version_d)
 *(.gnu.version_r)
 *(.rel.init)
 *(.rela.init)
 *(.rel.text .rel.text.* .rel.gnu.linkonce.t.*)
 *(.rela.text .rela.text.* .rela.gnu.linkonce.t.*)
 *(.rel.fini)
 *(.rela.fini)
 *(.rel.rodata .rel.rodata.* .rel.gnu.linkonce.r.*)
 *(.rela.rodata .rela.rodata.* .rela.gnu.linkonce.r.*)
 *(.rel.data .rel.data.* .rel.gnu.linkonce.d.*)
 *(.rela.data .rela.data.* .rela.gnu.linkonce.d.*)
 *(.rel.tdata .rel.tdata.* .rel.gnu.linkonce.td.*)
 *(.rela.tdata .rela.tdata.* .rela.gnu.linkonce.td.*)
 *(.rel.tbss .rel.tbss.* .rel.gnu.linkonce.tb.*)
 *(.rela.tbss .rela.tbss.* .rela.gnu.linkonce.tb.*)
 *(.rel.ctors)
 *(.rela.ctors)
 *(.rel.dtors)
 *(.rela.dtors)
 *(.rel.got)
 *(.rela.got)
 *(.rel.sdata .rel.sdata.* .rel.gnu.linkonce.s.*)
 *(.rela.sdata .rela.sdata.* .rela.gnu.linkonce.s.*)
 *(.rel.sbss .rel.sbss.* .rel.gnu.linkonce.sb.*)
 *(.rela.sbss .rela.sbss.* .rela.gnu.linkonce.sb.*)
 *(.rel.sdata2 .rel.sdata2.* .rel.gnu.linkonce.s2.*)
 *(.rela.sdata2 .rela.sdata2.* .rela.gnu.linkonce.s2.*)
 *(.rel.sbss2 .rel.sbss2.* .rel.gnu.linkonce.sb2.*)
 *(.rela.sbss2 .rela.sbss2.* .rela.gnu.linkonce.sb2.*)
 *(.rel.bss .rel.bss.* .rel.gnu.linkonce.b.*)
 *(.rela.bss .rela.bss.* .rela.gnu.linkonce.b.*)
 *(.rel.plt)
 *(.rela.plt)
 *(.rel.dyn)
 *(.init)
 *(.plt)
 *(.text .stub .text.* .gnu.linkonce.t.*)
 .text          0x000000000800015c       0x4c ../MNIST_CNN_Software_bsp//obj/HAL/src/crt0.o
                0x000000000800015c                _start
 .text          0x00000000080001a8     0x65c4 obj/default/kann.o
                0x0000000008000fb4                kann_new
                0x0000000008001184                kann_clone
                0x0000000008001210                kann_unroll_array
                0x00000000080012a0                kann_unroll
                0x000000000800138c                kann_delete_unrolled
                0x00000000080013d0                kann_delete
                0x0000000008001430                kann_find
                0x000000000800153c                kann_feed_bind
                0x00000000080016a8                kann_feed_dim
                0x0000000008001a70                kann_eval
                0x0000000008001bc0                kann_rnn_start
                0x0000000008001d20                kann_rnn_end
                0x0000000008001f00                kann_mt
                0x0000000008001f10                kann_cost
                0x0000000008002028                kann_class_error
                0x0000000008002040                kann_switch
                0x00000000080020a0                kann_save_fp
                0x000000000800216c                kann_save
                0x0000000008002264                kann_load_fp
                0x0000000008002498                kann_load
                0x0000000008002534                kann_new_leaf_array
                0x00000000080027e8                kann_new_leaf2
                0x0000000008002ad8                kann_layer_dense2
                0x0000000008002c08                kann_layer_dropout2
                0x0000000008002c6c                kann_layer_layernorm2
                0x0000000008002d9c                kann_layer_rnn2
                0x0000000008003124                kann_layer_gru2
                0x0000000008003d74                kann_new_leaf
                0x0000000008003ff0                kann_new_scalar
                0x0000000008004008                kann_new_weight
                0x0000000008004040                kann_new_vec
                0x000000000800405c                kann_new_bias
                0x000000000800407c                kann_new_weight_conv2d
                0x00000000080040bc                kann_new_weight_conv1d
                0x00000000080040f8                kann_layer_input
                0x0000000008004134                kann_layer_dense
                0x000000000800424c                kann_layer_dropout
                0x00000000080042bc                kann_layer_layernorm
                0x00000000080043d4                kann_layer_rnn
                0x0000000008004488                kann_layer_gru
                0x000000000800453c                kann_layer_lstm
                0x0000000008004a98                kann_layer_conv2d
                0x0000000008004b30                kann_layer_conv1d
                0x0000000008004ba4                kann_layer_cost
                0x0000000008004dc4                kann_shuffle
                0x0000000008004ea8                kann_RMSprop
                0x000000000800507c                kann_grad_clip
                0x000000000800520c                kann_train_fnn1
                0x0000000008006068                kann_cost_fnn1
                0x0000000008006648                kann_apply1
 .text          0x000000000800676c      0x5d0 obj/default/kann_data.o
                0x000000000800676c                kann_data_read
                0x0000000008006c54                kann_data_free
 .text          0x0000000008006d3c    0x12ed8 obj/default/kautodiff.o
                0x0000000008006d3c                kad_op_mse
                0x00000000080071f0                kad_op_max2d
                0x0000000008007718                kad_op_max1d
                0x0000000008007b44                kad_op_avg1d
                0x0000000008008110                kad_op_reduce_sum
                0x0000000008008520                kad_op_reduce_mean
                0x00000000080089a0                kad_op_square
                0x0000000008008b0c                kad_op_relu
                0x0000000008008c98                kad_op_max
                0x0000000008008f24                kad_op_mul
                0x00000000080092bc                kad_op_add
                0x000000000800959c                kad_op_sub
                0x000000000800987c                kad_op_1minus
                0x00000000080099c0                kad_op_slice
                0x0000000008009cf0                kad_op_concat
                0x000000000800a158                kad_op_reshape
                0x000000000800abc4                kad_op_reverse
                0x000000000800af50                kad_op_avg
                0x000000000800b210                kad_op_stack
                0x000000000800b474                kad_op_select
                0x000000000800b664                kad_op_conv1d
                0x000000000800cab8                kad_op_ce_bin
                0x000000000800cf0c                kad_op_ce_bin_neg
                0x000000000800d3cc                kad_op_ce_multi
                0x000000000800d894                kad_op_stdnorm
                0x000000000800de5c                kad_op_exp
                0x000000000800dfd0                kad_op_sigm
                0x000000000800e17c                kad_op_tanh
                0x000000000800e378                kad_op_softmax
                0x000000000800e6c4                kad_op_log
                0x000000000800e830                kad_op_sin
                0x000000000800e994                kad_op_cmul
                0x000000000800f03c                kad_op_matmul
                0x000000000800f728                kad_op_dropout
                0x000000000800fbd8                kad_op_conv2d
                0x0000000008011d50                kad_const
                0x0000000008011de8                kad_feed
                0x0000000008011e74                kad_var
                0x0000000008011f14                kad_add
                0x0000000008012034                kad_sub
                0x000000000801214c                kad_mul
                0x0000000008012264                kad_cmul
                0x000000000801237c                kad_matmul
                0x0000000008012494                kad_ce_multi
                0x00000000080125ac                kad_ce_bin
                0x00000000080126c4                kad_ce_bin_neg
                0x00000000080127dc                kad_mse
                0x00000000080128f4                kad_log
                0x0000000008012a04                kad_exp
                0x0000000008012b14                kad_sin
                0x0000000008012c24                kad_square
                0x0000000008012d34                kad_sigm
                0x0000000008012e44                kad_tanh
                0x0000000008012f54                kad_relu
                0x0000000008013064                kad_1minus
                0x0000000008013174                kad_softmax
                0x0000000008013284                kad_stdnorm
                0x0000000008013394                kad_conv2d
                0x000000000801367c                kad_max2d
                0x0000000008013940                kad_conv1d
                0x0000000008013b5c                kad_max1d
                0x0000000008013d64                kad_avg1d
                0x0000000008013f6c                kad_avg
                0x00000000080140cc                kad_max
                0x000000000801422c                kad_stack
                0x000000000801438c                kad_select
                0x0000000008014508                kad_reduce_sum
                0x0000000008014648                kad_reduce_mean
                0x0000000008014788                kad_dropout
                0x0000000008014acc                kad_sample_normal
                0x0000000008014e08                kad_slice
                0x0000000008014f78                kad_concat_array
                0x00000000080150e4                kad_concat
                0x00000000080152d4                kad_reshape
                0x000000000801544c                kad_reverse
                0x000000000801558c                kad_switch
                0x00000000080156f4                kad_sync_dim
                0x0000000008015890                kad_compile_array
                0x0000000008015c88                kad_compile
                0x0000000008015d28                kad_delete
                0x0000000008015dd8                kad_size_var
                0x0000000008015e6c                kad_size_const
                0x0000000008015f00                kad_eval_marked
                0x000000000801607c                kad_eval_at
                0x0000000008016258                kad_grad
                0x00000000080164e0                kad_save
                0x00000000080166e8                kad_load
                0x0000000008016a4c                kad_clone
                0x0000000008016f78                kad_n_pivots
                0x0000000008016fd4                kad_unroll
                0x0000000008018014                kad_vec_mul_sum
                0x000000000801809c                kad_saxpy
                0x0000000008018120                kad_sgemm_simple
                0x000000000801852c                kad_srand
                0x00000000080186a8                kad_rng
                0x00000000080188fc                kad_rand
                0x00000000080189cc                kad_drand
                0x0000000008018ab4                kad_drand_normal
                0x0000000008018de0                kad_op_sample_normal
                0x0000000008018ffc                kad_trap_fe
                0x000000000801900c                kad_print_graph
                0x000000000801928c                kad_check_grad
 .text.unlikely
                0x0000000008019c14      0x210 obj/default/kautodiff.o
 .text          0x0000000008019e24        0x0 obj/default/mnist-cnn.o
 .text.startup  0x0000000008019e24      0x674 obj/default/mnist-cnn.o
                0x0000000008019e24                main
 .text          0x000000000801a498        0x0 /package/eda/altera/altera17.0/nios2eds/bin/gnu/H-x86_64-pc-linux-gnu/bin/../lib/gcc/nios2-elf/5.3.0/../../../../../H-x86_64-pc-linux-gnu/nios2-elf/lib/pg/libm.a(lib_a-sf_cos.o)
 .text.cosf     0x000000000801a498       0xbc /package/eda/altera/altera17.0/nios2eds/bin/gnu/H-x86_64-pc-linux-gnu/bin/../lib/gcc/nios2-elf/5.3.0/../../../../../H-x86_64-pc-linux-gnu/nios2-elf/lib/pg/libm.a(lib_a-sf_cos.o)
                0x000000000801a498                cosf
 .text          0x000000000801a554        0x0 /package/eda/altera/altera17.0/nios2eds/bin/gnu/H-x86_64-pc-linux-gnu/bin/../lib/gcc/nios2-elf/5.3.0/../../../../../H-x86_64-pc-linux-gnu/nios2-elf/lib/pg/libm.a(lib_a-sf_sin.o)
 .text.sinf     0x000000000801a554       0xbc /package/eda/altera/altera17.0/nios2eds/bin/gnu/H-x86_64-pc-linux-gnu/bin/../lib/gcc/nios2-elf/5.3.0/../../../../../H-x86_64-pc-linux-gnu/nios2-elf/lib/pg/libm.a(lib_a-sf_sin.o)
                0x000000000801a554                sinf
 .text          0x000000000801a610        0x0 /package/eda/altera/altera17.0/nios2eds/bin/gnu/H-x86_64-pc-linux-gnu/bin/../lib/gcc/nios2-elf/5.3.0/../../../../../H-x86_64-pc-linux-gnu/nios2-elf/lib/pg/libm.a(lib_a-w_log.o)
 .text.log      0x000000000801a610      0x1a8 /package/eda/altera/altera17.0/nios2eds/bin/gnu/H-x86_64-pc-linux-gnu/bin/../lib/gcc/nios2-elf/5.3.0/../../../../../H-x86_64-pc-linux-gnu/nios2-elf/lib/pg/libm.a(lib_a-w_log.o)
                0x000000000801a610                log
 .text          0x000000000801a7b8        0x0 /package/eda/altera/altera17.0/nios2eds/bin/gnu/H-x86_64-pc-linux-gnu/bin/../lib/gcc/nios2-elf/5.3.0/../../../../../H-x86_64-pc-linux-gnu/nios2-elf/lib/pg/libm.a(lib_a-w_sqrt.o)
 .text.sqrt     0x000000000801a7b8      0x13c /package/eda/altera/altera17.0/nios2eds/bin/gnu/H-x86_64-pc-linux-gnu/bin/../lib/gcc/nios2-elf/5.3.0/../../../../../H-x86_64-pc-linux-gnu/nios2-elf/lib/pg/libm.a(lib_a-w_sqrt.o)
                0x000000000801a7b8                sqrt
 .text          0x000000000801a8f4        0x0 /package/eda/altera/altera17.0/nios2eds/bin/gnu/H-x86_64-pc-linux-gnu/bin/../lib/gcc/nios2-elf/5.3.0/../../../../../H-x86_64-pc-linux-gnu/nios2-elf/lib/pg/libm.a(lib_a-wf_exp.o)
 .text.expf     0x000000000801a8f4      0x178 /package/eda/altera/altera17.0/nios2eds/bin/gnu/H-x86_64-pc-linux-gnu/bin/../lib/gcc/nios2-elf/5.3.0/../../../../../H-x86_64-pc-linux-gnu/nios2-elf/lib/pg/libm.a(lib_a-wf_exp.o)
                0x000000000801a8f4                expf
 .text          0x000000000801aa6c        0x0 /package/eda/altera/altera17.0/nios2eds/bin/gnu/H-x86_64-pc-linux-gnu/bin/../lib/gcc/nios2-elf/5.3.0/../../../../../H-x86_64-pc-linux-gnu/nios2-elf/lib/pg/libm.a(lib_a-wf_log.o)
 .text.logf     0x000000000801aa6c      0x184 /package/eda/altera/altera17.0/nios2eds/bin/gnu/H-x86_64-pc-linux-gnu/bin/../lib/gcc/nios2-elf/5.3.0/../../../../../H-x86_64-pc-linux-gnu/nios2-elf/lib/pg/libm.a(lib_a-wf_log.o)
                0x000000000801aa6c                logf
 .text          0x000000000801abf0        0x0 /package/eda/altera/altera17.0/nios2eds/bin/gnu/H-x86_64-pc-linux-gnu/bin/../lib/gcc/nios2-elf/5.3.0/../../../../../H-x86_64-pc-linux-gnu/nios2-elf/lib/pg/libm.a(lib_a-wf_sqrt.o)
 .text.sqrtf    0x000000000801abf0      0x120 /package/eda/altera/altera17.0/nios2eds/bin/gnu/H-x86_64-pc-linux-gnu/bin/../lib/gcc/nios2-elf/5.3.0/../../../../../H-x86_64-pc-linux-gnu/nios2-elf/lib/pg/libm.a(lib_a-wf_sqrt.o)
                0x000000000801abf0                sqrtf
 .text          0x000000000801ad10        0x0 /package/eda/altera/altera17.0/nios2eds/bin/gnu/H-x86_64-pc-linux-gnu/bin/../lib/gcc/nios2-elf/5.3.0/../../../../../H-x86_64-pc-linux-gnu/nios2-elf/lib/pg/libm.a(lib_a-e_log.o)
 .text.__ieee754_log
                0x000000000801ad10      0x728 /package/eda/altera/altera17.0/nios2eds/bin/gnu/H-x86_64-pc-linux-gnu/bin/../lib/gcc/nios2-elf/5.3.0/../../../../../H-x86_64-pc-linux-gnu/nios2-elf/lib/pg/libm.a(lib_a-e_log.o)
                0x000000000801ad10                __ieee754_log
 .text          0x000000000801b438        0x0 /package/eda/altera/altera17.0/nios2eds/bin/gnu/H-x86_64-pc-linux-gnu/bin/../lib/gcc/nios2-elf/5.3.0/../../../../../H-x86_64-pc-linux-gnu/nios2-elf/lib/pg/libm.a(lib_a-e_sqrt.o)
 .text.__ieee754_sqrt
                0x000000000801b438      0x294 /package/eda/altera/altera17.0/nios2eds/bin/gnu/H-x86_64-pc-linux-gnu/bin/../lib/gcc/nios2-elf/5.3.0/../../../../../H-x86_64-pc-linux-gnu/nios2-elf/lib/pg/libm.a(lib_a-e_sqrt.o)
                0x000000000801b438                __ieee754_sqrt
 .text          0x000000000801b6cc        0x0 /package/eda/altera/altera17.0/nios2eds/bin/gnu/H-x86_64-pc-linux-gnu/bin/../lib/gcc/nios2-elf/5.3.0/../../../../../H-x86_64-pc-linux-gnu/nios2-elf/lib/pg/libm.a(lib_a-ef_exp.o)
 .text.__ieee754_expf
                0x000000000801b6cc      0x33c /package/eda/altera/altera17.0/nios2eds/bin/gnu/H-x86_64-pc-linux-gnu/bin/../lib/gcc/nios2-elf/5.3.0/../../../../../H-x86_64-pc-linux-gnu/nios2-elf/lib/pg/libm.a(lib_a-ef_exp.o)
                0x000000000801b6cc                __ieee754_expf
 .text          0x000000000801ba08        0x0 /package/eda/altera/altera17.0/nios2eds/bin/gnu/H-x86_64-pc-linux-gnu/bin/../lib/gcc/nios2-elf/5.3.0/../../../../../H-x86_64-pc-linux-gnu/nios2-elf/lib/pg/libm.a(lib_a-ef_log.o)
 .text.__ieee754_logf
                0x000000000801ba08      0x4a4 /package/eda/altera/altera17.0/nios2eds/bin/gnu/H-x86_64-pc-linux-gnu/bin/../lib/gcc/nios2-elf/5.3.0/../../../../../H-x86_64-pc-linux-gnu/nios2-elf/lib/pg/libm.a(lib_a-ef_log.o)
                0x000000000801ba08                __ieee754_logf
 .text          0x000000000801beac        0x0 /package/eda/altera/altera17.0/nios2eds/bin/gnu/H-x86_64-pc-linux-gnu/bin/../lib/gcc/nios2-elf/5.3.0/../../../../../H-x86_64-pc-linux-gnu/nios2-elf/lib/pg/libm.a(lib_a-ef_rem_pio2.o)
 .text.__ieee754_rem_pio2f
                0x000000000801beac      0x530 /package/eda/altera/altera17.0/nios2eds/bin/gnu/H-x86_64-pc-linux-gnu/bin/../lib/gcc/nios2-elf/5.3.0/../../../../../H-x86_64-pc-linux-gnu/nios2-elf/lib/pg/libm.a(lib_a-ef_rem_pio2.o)
                0x000000000801beac                __ieee754_rem_pio2f
 .text          0x000000000801c3dc        0x0 /package/eda/altera/altera17.0/nios2eds/bin/gnu/H-x86_64-pc-linux-gnu/bin/../lib/gcc/nios2-elf/5.3.0/../../../../../H-x86_64-pc-linux-gnu/nios2-elf/lib/pg/libm.a(lib_a-ef_sqrt.o)
 .text.__ieee754_sqrtf
                0x000000000801c3dc      0x160 /package/eda/altera/altera17.0/nios2eds/bin/gnu/H-x86_64-pc-linux-gnu/bin/../lib/gcc/nios2-elf/5.3.0/../../../../../H-x86_64-pc-linux-gnu/nios2-elf/lib/pg/libm.a(lib_a-ef_sqrt.o)
                0x000000000801c3dc                __ieee754_sqrtf
 .text          0x000000000801c53c        0x0 /package/eda/altera/altera17.0/nios2eds/bin/gnu/H-x86_64-pc-linux-gnu/bin/../lib/gcc/nios2-elf/5.3.0/../../../../../H-x86_64-pc-linux-gnu/nios2-elf/lib/pg/libm.a(lib_a-kf_cos.o)
 .text.__kernel_cosf
                0x000000000801c53c      0x2d8 /package/eda/altera/altera17.0/nios2eds/bin/gnu/H-x86_64-pc-linux-gnu/bin/../lib/gcc/nios2-elf/5.3.0/../../../../../H-x86_64-pc-linux-gnu/nios2-elf/lib/pg/libm.a(lib_a-kf_cos.o)
                0x000000000801c53c                __kernel_cosf
 .text          0x000000000801c814        0x0 /package/eda/altera/altera17.0/nios2eds/bin/gnu/H-x86_64-pc-linux-gnu/bin/../lib/gcc/nios2-elf/5.3.0/../../../../../H-x86_64-pc-linux-gnu/nios2-elf/lib/pg/libm.a(lib_a-kf_rem_pio2.o)
 .text.__kernel_rem_pio2f
                0x000000000801c814      0xb10 /package/eda/altera/altera17.0/nios2eds/bin/gnu/H-x86_64-pc-linux-gnu/bin/../lib/gcc/nios2-elf/5.3.0/../../../../../H-x86_64-pc-linux-gnu/nios2-elf/lib/pg/libm.a(lib_a-kf_rem_pio2.o)
                0x000000000801c814                __kernel_rem_pio2f
 .text          0x000000000801d324        0x0 /package/eda/altera/altera17.0/nios2eds/bin/gnu/H-x86_64-pc-linux-gnu/bin/../lib/gcc/nios2-elf/5.3.0/../../../../../H-x86_64-pc-linux-gnu/nios2-elf/lib/pg/libm.a(lib_a-kf_sin.o)
 .text.__kernel_sinf
                0x000000000801d324      0x1c4 /package/eda/altera/altera17.0/nios2eds/bin/gnu/H-x86_64-pc-linux-gnu/bin/../lib/gcc/nios2-elf/5.3.0/../../../../../H-x86_64-pc-linux-gnu/nios2-elf/lib/pg/libm.a(lib_a-kf_sin.o)
                0x000000000801d324                __kernel_sinf
 .text          0x000000000801d4e8        0x0 /package/eda/altera/altera17.0/nios2eds/bin/gnu/H-x86_64-pc-linux-gnu/bin/../lib/gcc/nios2-elf/5.3.0/../../../../../H-x86_64-pc-linux-gnu/nios2-elf/lib/pg/libm.a(lib_a-s_fpclassify.o)
 .text.__fpclassifyd
                0x000000000801d4e8       0x80 /package/eda/altera/altera17.0/nios2eds/bin/gnu/H-x86_64-pc-linux-gnu/bin/../lib/gcc/nios2-elf/5.3.0/../../../../../H-x86_64-pc-linux-gnu/nios2-elf/lib/pg/libm.a(lib_a-s_fpclassify.o)
                0x000000000801d4e8                __fpclassifyd
 .text          0x000000000801d568        0x0 /package/eda/altera/altera17.0/nios2eds/bin/gnu/H-x86_64-pc-linux-gnu/bin/../lib/gcc/nios2-elf/5.3.0/../../../../../H-x86_64-pc-linux-gnu/nios2-elf/lib/pg/libm.a(lib_a-s_lib_ver.o)
 .text          0x000000000801d568        0x0 /package/eda/altera/altera17.0/nios2eds/bin/gnu/H-x86_64-pc-linux-gnu/bin/../lib/gcc/nios2-elf/5.3.0/../../../../../H-x86_64-pc-linux-gnu/nios2-elf/lib/pg/libm.a(lib_a-s_matherr.o)
 .text.matherr  0x000000000801d568       0x14 /package/eda/altera/altera17.0/nios2eds/bin/gnu/H-x86_64-pc-linux-gnu/bin/../lib/gcc/nios2-elf/5.3.0/../../../../../H-x86_64-pc-linux-gnu/nios2-elf/lib/pg/libm.a(lib_a-s_matherr.o)
                0x000000000801d568                matherr
 .text          0x000000000801d57c        0x0 /package/eda/altera/altera17.0/nios2eds/bin/gnu/H-x86_64-pc-linux-gnu/bin/../lib/gcc/nios2-elf/5.3.0/../../../../../H-x86_64-pc-linux-gnu/nios2-elf/lib/pg/libm.a(lib_a-s_nan.o)
 .text.nan      0x000000000801d57c       0x18 /package/eda/altera/altera17.0/nios2eds/bin/gnu/H-x86_64-pc-linux-gnu/bin/../lib/gcc/nios2-elf/5.3.0/../../../../../H-x86_64-pc-linux-gnu/nios2-elf/lib/pg/libm.a(lib_a-s_nan.o)
                0x000000000801d57c                nan
 .text          0x000000000801d594        0x0 /package/eda/altera/altera17.0/nios2eds/bin/gnu/H-x86_64-pc-linux-gnu/bin/../lib/gcc/nios2-elf/5.3.0/../../../../../H-x86_64-pc-linux-gnu/nios2-elf/lib/pg/libm.a(lib_a-sf_fabs.o)
 .text.fabsf    0x000000000801d594       0x1c /package/eda/altera/altera17.0/nios2eds/bin/gnu/H-x86_64-pc-linux-gnu/bin/../lib/gcc/nios2-elf/5.3.0/../../../../../H-x86_64-pc-linux-gnu/nios2-elf/lib/pg/libm.a(lib_a-sf_fabs.o)
                0x000000000801d594                fabsf
 .text          0x000000000801d5b0        0x0 /package/eda/altera/altera17.0/nios2eds/bin/gnu/H-x86_64-pc-linux-gnu/bin/../lib/gcc/nios2-elf/5.3.0/../../../../../H-x86_64-pc-linux-gnu/nios2-elf/lib/pg/libm.a(lib_a-sf_finite.o)
 .text.finitef  0x000000000801d5b0       0x24 /package/eda/altera/altera17.0/nios2eds/bin/gnu/H-x86_64-pc-linux-gnu/bin/../lib/gcc/nios2-elf/5.3.0/../../../../../H-x86_64-pc-linux-gnu/nios2-elf/lib/pg/libm.a(lib_a-sf_finite.o)
                0x000000000801d5b0                finitef
 .text          0x000000000801d5d4        0x0 /package/eda/altera/altera17.0/nios2eds/bin/gnu/H-x86_64-pc-linux-gnu/bin/../lib/gcc/nios2-elf/5.3.0/../../../../../H-x86_64-pc-linux-gnu/nios2-elf/lib/pg/libm.a(lib_a-sf_floor.o)
 .text.floorf   0x000000000801d5d4      0x110 /package/eda/altera/altera17.0/nios2eds/bin/gnu/H-x86_64-pc-linux-gnu/bin/../lib/gcc/nios2-elf/5.3.0/../../../../../H-x86_64-pc-linux-gnu/nios2-elf/lib/pg/libm.a(lib_a-sf_floor.o)
                0x000000000801d5d4                floorf
 .text          0x000000000801d6e4        0x0 /package/eda/altera/altera17.0/nios2eds/bin/gnu/H-x86_64-pc-linux-gnu/bin/../lib/gcc/nios2-elf/5.3.0/../../../../../H-x86_64-pc-linux-gnu/nios2-elf/lib/pg/libm.a(lib_a-sf_fpclassify.o)
 .text.__fpclassifyf
                0x000000000801d6e4       0x64 /package/eda/altera/altera17.0/nios2eds/bin/gnu/H-x86_64-pc-linux-gnu/bin/../lib/gcc/nios2-elf/5.3.0/../../../../../H-x86_64-pc-linux-gnu/nios2-elf/lib/pg/libm.a(lib_a-sf_fpclassify.o)
                0x000000000801d6e4                __fpclassifyf
 .text          0x000000000801d748        0x0 /package/eda/altera/altera17.0/nios2eds/bin/gnu/H-x86_64-pc-linux-gnu/bin/../lib/gcc/nios2-elf/5.3.0/../../../../../H-x86_64-pc-linux-gnu/nios2-elf/lib/pg/libm.a(lib_a-sf_scalbn.o)
 .text.scalbnf  0x000000000801d748      0x150 /package/eda/altera/altera17.0/nios2eds/bin/gnu/H-x86_64-pc-linux-gnu/bin/../lib/gcc/nios2-elf/5.3.0/../../../../../H-x86_64-pc-linux-gnu/nios2-elf/lib/pg/libm.a(lib_a-sf_scalbn.o)
                0x000000000801d748                scalbnf
 .text          0x000000000801d898        0x0 /package/eda/altera/altera17.0/nios2eds/bin/gnu/H-x86_64-pc-linux-gnu/bin/../lib/gcc/nios2-elf/5.3.0/../../../../../H-x86_64-pc-linux-gnu/nios2-elf/lib/pg/libm.a(lib_a-sf_copysign.o)
 .text.copysignf
                0x000000000801d898       0x24 /package/eda/altera/altera17.0/nios2eds/bin/gnu/H-x86_64-pc-linux-gnu/bin/../lib/gcc/nios2-elf/5.3.0/../../../../../H-x86_64-pc-linux-gnu/nios2-elf/lib/pg/libm.a(lib_a-sf_copysign.o)
                0x000000000801d898                copysignf
 .text          0x000000000801d8bc       0x6c /package/eda/altera/altera17.0/nios2eds/bin/gnu/H-x86_64-pc-linux-gnu/bin/../lib/gcc/nios2-elf/5.3.0/pg/libgcc.a(_muldi3.o)
                0x000000000801d8bc                __muldi3
 .text          0x000000000801d928       0x6c /package/eda/altera/altera17.0/nios2eds/bin/gnu/H-x86_64-pc-linux-gnu/bin/../lib/gcc/nios2-elf/5.3.0/pg/libgcc.a(_fixunssfsi.o)
                0x000000000801d928                __fixunssfsi
 .text          0x000000000801d994      0x1e0 /package/eda/altera/altera17.0/nios2eds/bin/gnu/H-x86_64-pc-linux-gnu/bin/../lib/gcc/nios2-elf/5.3.0/pg/libgcc.a(lib2-divmod.o)
                0x000000000801d994                __divsi3
                0x000000000801da24                __modsi3
                0x000000000801daa4                __udivsi3
                0x000000000801db14                __umodsi3
 .text          0x000000000801db74        0x0 /package/eda/altera/altera17.0/nios2eds/bin/gnu/H-x86_64-pc-linux-gnu/bin/../lib/gcc/nios2-elf/5.3.0/pg/libgcc.a(lib2-divtable.o)
 .text          0x000000000801db74      0x4d4 /package/eda/altera/altera17.0/nios2eds/bin/gnu/H-x86_64-pc-linux-gnu/bin/../lib/gcc/nios2-elf/5.3.0/pg/libgcc.a(addsf3.o)
                0x000000000801db74                __addsf3
 .text          0x000000000801e048      0x44c /package/eda/altera/altera17.0/nios2eds/bin/gnu/H-x86_64-pc-linux-gnu/bin/../lib/gcc/nios2-elf/5.3.0/pg/libgcc.a(divsf3.o)
                0x000000000801e048                __divsf3
 .text          0x000000000801e494       0x80 /package/eda/altera/altera17.0/nios2eds/bin/gnu/H-x86_64-pc-linux-gnu/bin/../lib/gcc/nios2-elf/5.3.0/pg/libgcc.a(eqsf2.o)
                0x000000000801e494                __nesf2
                0x000000000801e494                __eqsf2
 .text          0x000000000801e514       0xc4 /package/eda/altera/altera17.0/nios2eds/bin/gnu/H-x86_64-pc-linux-gnu/bin/../lib/gcc/nios2-elf/5.3.0/pg/libgcc.a(gesf2.o)
                0x000000000801e514                __gtsf2
                0x000000000801e514                __gesf2
 .text          0x000000000801e5d8       0xe0 /package/eda/altera/altera17.0/nios2eds/bin/gnu/H-x86_64-pc-linux-gnu/bin/../lib/gcc/nios2-elf/5.3.0/pg/libgcc.a(lesf2.o)
                0x000000000801e5d8                __lesf2
                0x000000000801e5d8                __ltsf2
 .text          0x000000000801e6b8      0x408 /package/eda/altera/altera17.0/nios2eds/bin/gnu/H-x86_64-pc-linux-gnu/bin/../lib/gcc/nios2-elf/5.3.0/pg/libgcc.a(mulsf3.o)
                0x000000000801e6b8                __mulsf3
 .text          0x000000000801eac0      0x4f0 /package/eda/altera/altera17.0/nios2eds/bin/gnu/H-x86_64-pc-linux-gnu/bin/../lib/gcc/nios2-elf/5.3.0/pg/libgcc.a(subsf3.o)
                0x000000000801eac0                __subsf3
 .text          0x000000000801efb0       0x7c /package/eda/altera/altera17.0/nios2eds/bin/gnu/H-x86_64-pc-linux-gnu/bin/../lib/gcc/nios2-elf/5.3.0/pg/libgcc.a(fixsfsi.o)
                0x000000000801efb0                __fixsfsi
 .text          0x000000000801f02c      0x130 /package/eda/altera/altera17.0/nios2eds/bin/gnu/H-x86_64-pc-linux-gnu/bin/../lib/gcc/nios2-elf/5.3.0/pg/libgcc.a(floatsisf.o)
                0x000000000801f02c                __floatsisf
 .text          0x000000000801f15c      0x8b8 /package/eda/altera/altera17.0/nios2eds/bin/gnu/H-x86_64-pc-linux-gnu/bin/../lib/gcc/nios2-elf/5.3.0/pg/libgcc.a(adddf3.o)
                0x000000000801f15c                __adddf3
 .text          0x000000000801fa14      0x8f4 /package/eda/altera/altera17.0/nios2eds/bin/gnu/H-x86_64-pc-linux-gnu/bin/../lib/gcc/nios2-elf/5.3.0/pg/libgcc.a(divdf3.o)
                0x000000000801fa14                __divdf3
 .text          0x0000000008020308       0x90 /package/eda/altera/altera17.0/nios2eds/bin/gnu/H-x86_64-pc-linux-gnu/bin/../lib/gcc/nios2-elf/5.3.0/pg/libgcc.a(eqdf2.o)
                0x0000000008020308                __eqdf2
                0x0000000008020308                __nedf2
 .text          0x0000000008020398       0xe4 /package/eda/altera/altera17.0/nios2eds/bin/gnu/H-x86_64-pc-linux-gnu/bin/../lib/gcc/nios2-elf/5.3.0/pg/libgcc.a(gedf2.o)
                0x0000000008020398                __gtdf2
                0x0000000008020398                __gedf2
 .text          0x000000000802047c       0xf8 /package/eda/altera/altera17.0/nios2eds/bin/gnu/H-x86_64-pc-linux-gnu/bin/../lib/gcc/nios2-elf/5.3.0/pg/libgcc.a(ledf2.o)
                0x000000000802047c                __ltdf2
                0x000000000802047c                __ledf2
 .text          0x0000000008020574      0x724 /package/eda/altera/altera17.0/nios2eds/bin/gnu/H-x86_64-pc-linux-gnu/bin/../lib/gcc/nios2-elf/5.3.0/pg/libgcc.a(muldf3.o)
                0x0000000008020574                __muldf3
 .text          0x0000000008020c98      0x908 /package/eda/altera/altera17.0/nios2eds/bin/gnu/H-x86_64-pc-linux-gnu/bin/../lib/gcc/nios2-elf/5.3.0/pg/libgcc.a(subdf3.o)
                0x0000000008020c98                __subdf3
 .text          0x00000000080215a0       0x8c /package/eda/altera/altera17.0/nios2eds/bin/gnu/H-x86_64-pc-linux-gnu/bin/../lib/gcc/nios2-elf/5.3.0/pg/libgcc.a(fixdfsi.o)
                0x00000000080215a0                __fixdfsi
 .text          0x000000000802162c       0xe8 /package/eda/altera/altera17.0/nios2eds/bin/gnu/H-x86_64-pc-linux-gnu/bin/../lib/gcc/nios2-elf/5.3.0/pg/libgcc.a(floatsidf.o)
                0x000000000802162c                __floatsidf
 .text          0x0000000008021714      0x11c /package/eda/altera/altera17.0/nios2eds/bin/gnu/H-x86_64-pc-linux-gnu/bin/../lib/gcc/nios2-elf/5.3.0/pg/libgcc.a(extendsfdf2.o)
                0x0000000008021714                __extendsfdf2
 .text          0x0000000008021830      0x1b4 /package/eda/altera/altera17.0/nios2eds/bin/gnu/H-x86_64-pc-linux-gnu/bin/../lib/gcc/nios2-elf/5.3.0/pg/libgcc.a(truncdfsf2.o)
                0x0000000008021830                __truncdfsf2
 .text          0x00000000080219e4       0x70 /package/eda/altera/altera17.0/nios2eds/bin/gnu/H-x86_64-pc-linux-gnu/bin/../lib/gcc/nios2-elf/5.3.0/pg/libgcc.a(_clzsi2.o)
                0x00000000080219e4                __clzsi2
 .text          0x0000000008021a54        0x0 /package/eda/altera/altera17.0/nios2eds/bin/gnu/H-x86_64-pc-linux-gnu/bin/../lib/gcc/nios2-elf/5.3.0/pg/libgcc.a(_clz.o)
 .text          0x0000000008021a54        0x0 /package/eda/altera/altera17.0/nios2eds/bin/gnu/H-x86_64-pc-linux-gnu/bin/../lib/gcc/nios2-elf/5.3.0/../../../../../H-x86_64-pc-linux-gnu/nios2-elf/lib/pg/libc.a(lib_a-abort.o)
 .text.abort    0x0000000008021a54       0x24 /package/eda/altera/altera17.0/nios2eds/bin/gnu/H-x86_64-pc-linux-gnu/bin/../lib/gcc/nios2-elf/5.3.0/../../../../../H-x86_64-pc-linux-gnu/nios2-elf/lib/pg/libc.a(lib_a-abort.o)
                0x0000000008021a54                abort
 .text          0x0000000008021a78        0x0 /package/eda/altera/altera17.0/nios2eds/bin/gnu/H-x86_64-pc-linux-gnu/bin/../lib/gcc/nios2-elf/5.3.0/../../../../../H-x86_64-pc-linux-gnu/nios2-elf/lib/pg/libc.a(lib_a-assert.o)
 .text.__assert_func
                0x0000000008021a78       0x74 /package/eda/altera/altera17.0/nios2eds/bin/gnu/H-x86_64-pc-linux-gnu/bin/../lib/gcc/nios2-elf/5.3.0/../../../../../H-x86_64-pc-linux-gnu/nios2-elf/lib/pg/libc.a(lib_a-assert.o)
                0x0000000008021a78                __assert_func
 .text.__assert
                0x0000000008021aec       0x20 /package/eda/altera/altera17.0/nios2eds/bin/gnu/H-x86_64-pc-linux-gnu/bin/../lib/gcc/nios2-elf/5.3.0/../../../../../H-x86_64-pc-linux-gnu/nios2-elf/lib/pg/libc.a(lib_a-assert.o)
                0x0000000008021aec                __assert
 .text          0x0000000008021b0c        0x0 /package/eda/altera/altera17.0/nios2eds/bin/gnu/H-x86_64-pc-linux-gnu/bin/../lib/gcc/nios2-elf/5.3.0/../../../../../H-x86_64-pc-linux-gnu/nios2-elf/lib/pg/libc.a(lib_a-calloc.o)
 .text.calloc   0x0000000008021b0c       0x24 /package/eda/altera/altera17.0/nios2eds/bin/gnu/H-x86_64-pc-linux-gnu/bin/../lib/gcc/nios2-elf/5.3.0/../../../../../H-x86_64-pc-linux-gnu/nios2-elf/lib/pg/libc.a(lib_a-calloc.o)
                0x0000000008021b0c                calloc
 .text          0x0000000008021b30        0x0 /package/eda/altera/altera17.0/nios2eds/bin/gnu/H-x86_64-pc-linux-gnu/bin/../lib/gcc/nios2-elf/5.3.0/../../../../../H-x86_64-pc-linux-gnu/nios2-elf/lib/pg/libc.a(lib_a-callocr.o)
 .text._calloc_r
                0x0000000008021b30       0xd0 /package/eda/altera/altera17.0/nios2eds/bin/gnu/H-x86_64-pc-linux-gnu/bin/../lib/gcc/nios2-elf/5.3.0/../../../../../H-x86_64-pc-linux-gnu/nios2-elf/lib/pg/libc.a(lib_a-callocr.o)
                0x0000000008021b30                _calloc_r
 .text          0x0000000008021c00        0x0 /package/eda/altera/altera17.0/nios2eds/bin/gnu/H-x86_64-pc-linux-gnu/bin/../lib/gcc/nios2-elf/5.3.0/../../../../../H-x86_64-pc-linux-gnu/nios2-elf/lib/pg/libc.a(lib_a-errno.o)
 .text.__errno  0x0000000008021c00       0x1c /package/eda/altera/altera17.0/nios2eds/bin/gnu/H-x86_64-pc-linux-gnu/bin/../lib/gcc/nios2-elf/5.3.0/../../../../../H-x86_64-pc-linux-gnu/nios2-elf/lib/pg/libc.a(lib_a-errno.o)
                0x0000000008021c00                __errno
 .text          0x0000000008021c1c        0x0 /package/eda/altera/altera17.0/nios2eds/bin/gnu/H-x86_64-pc-linux-gnu/bin/../lib/gcc/nios2-elf/5.3.0/../../../../../H-x86_64-pc-linux-gnu/nios2-elf/lib/pg/libc.a(lib_a-exit.o)
 .text.exit     0x0000000008021c1c       0x44 /package/eda/altera/altera17.0/nios2eds/bin/gnu/H-x86_64-pc-linux-gnu/bin/../lib/gcc/nios2-elf/5.3.0/../../../../../H-x86_64-pc-linux-gnu/nios2-elf/lib/pg/libc.a(lib_a-exit.o)
                0x0000000008021c1c                exit
 .text          0x0000000008021c60        0x0 /package/eda/altera/altera17.0/nios2eds/bin/gnu/H-x86_64-pc-linux-gnu/bin/../lib/gcc/nios2-elf/5.3.0/../../../../../H-x86_64-pc-linux-gnu/nios2-elf/lib/pg/libc.a(lib_a-fclose.o)
 .text._fclose_r
                0x0000000008021c60       0xfc /package/eda/altera/altera17.0/nios2eds/bin/gnu/H-x86_64-pc-linux-gnu/bin/../lib/gcc/nios2-elf/5.3.0/../../../../../H-x86_64-pc-linux-gnu/nios2-elf/lib/pg/libc.a(lib_a-fclose.o)
                0x0000000008021c60                _fclose_r
 .text.fclose   0x0000000008021d5c       0x20 /package/eda/altera/altera17.0/nios2eds/bin/gnu/H-x86_64-pc-linux-gnu/bin/../lib/gcc/nios2-elf/5.3.0/../../../../../H-x86_64-pc-linux-gnu/nios2-elf/lib/pg/libc.a(lib_a-fclose.o)
                0x0000000008021d5c                fclose
 .text          0x0000000008021d7c        0x0 /package/eda/altera/altera17.0/nios2eds/bin/gnu/H-x86_64-pc-linux-gnu/bin/../lib/gcc/nios2-elf/5.3.0/../../../../../H-x86_64-pc-linux-gnu/nios2-elf/lib/pg/libc.a(lib_a-fflush.o)
 .text.__sflush_r
                0x0000000008021d7c      0x228 /package/eda/altera/altera17.0/nios2eds/bin/gnu/H-x86_64-pc-linux-gnu/bin/../lib/gcc/nios2-elf/5.3.0/../../../../../H-x86_64-pc-linux-gnu/nios2-elf/lib/pg/libc.a(lib_a-fflush.o)
                0x0000000008021d7c                __sflush_r
 .text._fflush_r
                0x0000000008021fa4       0x68 /package/eda/altera/altera17.0/nios2eds/bin/gnu/H-x86_64-pc-linux-gnu/bin/../lib/gcc/nios2-elf/5.3.0/../../../../../H-x86_64-pc-linux-gnu/nios2-elf/lib/pg/libc.a(lib_a-fflush.o)
                0x0000000008021fa4                _fflush_r
 .text.fflush   0x000000000802200c       0x3c /package/eda/altera/altera17.0/nios2eds/bin/gnu/H-x86_64-pc-linux-gnu/bin/../lib/gcc/nios2-elf/5.3.0/../../../../../H-x86_64-pc-linux-gnu/nios2-elf/lib/pg/libc.a(lib_a-fflush.o)
                0x000000000802200c                fflush
 .text          0x0000000008022048        0x0 /package/eda/altera/altera17.0/nios2eds/bin/gnu/H-x86_64-pc-linux-gnu/bin/../lib/gcc/nios2-elf/5.3.0/../../../../../H-x86_64-pc-linux-gnu/nios2-elf/lib/pg/libc.a(lib_a-fgets.o)
 .text._fgets_r
                0x0000000008022048      0x150 /package/eda/altera/altera17.0/nios2eds/bin/gnu/H-x86_64-pc-linux-gnu/bin/../lib/gcc/nios2-elf/5.3.0/../../../../../H-x86_64-pc-linux-gnu/nios2-elf/lib/pg/libc.a(lib_a-fgets.o)
                0x0000000008022048                _fgets_r
 .text.fgets    0x0000000008022198       0x28 /package/eda/altera/altera17.0/nios2eds/bin/gnu/H-x86_64-pc-linux-gnu/bin/../lib/gcc/nios2-elf/5.3.0/../../../../../H-x86_64-pc-linux-gnu/nios2-elf/lib/pg/libc.a(lib_a-fgets.o)
                0x0000000008022198                fgets
 .text          0x00000000080221c0        0x0 /package/eda/altera/altera17.0/nios2eds/bin/gnu/H-x86_64-pc-linux-gnu/bin/../lib/gcc/nios2-elf/5.3.0/../../../../../H-x86_64-pc-linux-gnu/nios2-elf/lib/pg/libc.a(lib_a-fileno.o)
 .text.fileno   0x00000000080221c0       0x74 /package/eda/altera/altera17.0/nios2eds/bin/gnu/H-x86_64-pc-linux-gnu/bin/../lib/gcc/nios2-elf/5.3.0/../../../../../H-x86_64-pc-linux-gnu/nios2-elf/lib/pg/libc.a(lib_a-fileno.o)
                0x00000000080221c0                fileno
 .text          0x0000000008022234        0x0 /package/eda/altera/altera17.0/nios2eds/bin/gnu/H-x86_64-pc-linux-gnu/bin/../lib/gcc/nios2-elf/5.3.0/../../../../../H-x86_64-pc-linux-gnu/nios2-elf/lib/pg/libc.a(lib_a-findfp.o)
 .text.__fp_unlock
                0x0000000008022234       0x14 /package/eda/altera/altera17.0/nios2eds/bin/gnu/H-x86_64-pc-linux-gnu/bin/../lib/gcc/nios2-elf/5.3.0/../../../../../H-x86_64-pc-linux-gnu/nios2-elf/lib/pg/libc.a(lib_a-findfp.o)
 .text._cleanup_r
                0x0000000008022248       0x18 /package/eda/altera/altera17.0/nios2eds/bin/gnu/H-x86_64-pc-linux-gnu/bin/../lib/gcc/nios2-elf/5.3.0/../../../../../H-x86_64-pc-linux-gnu/nios2-elf/lib/pg/libc.a(lib_a-findfp.o)
                0x0000000008022248                _cleanup_r
 .text.__sinit.part.1
                0x0000000008022260      0x1a8 /package/eda/altera/altera17.0/nios2eds/bin/gnu/H-x86_64-pc-linux-gnu/bin/../lib/gcc/nios2-elf/5.3.0/../../../../../H-x86_64-pc-linux-gnu/nios2-elf/lib/pg/libc.a(lib_a-findfp.o)
 .text.__fp_lock
                0x0000000008022408       0x14 /package/eda/altera/altera17.0/nios2eds/bin/gnu/H-x86_64-pc-linux-gnu/bin/../lib/gcc/nios2-elf/5.3.0/../../../../../H-x86_64-pc-linux-gnu/nios2-elf/lib/pg/libc.a(lib_a-findfp.o)
 .text.__sfmoreglue
                0x000000000802241c       0x74 /package/eda/altera/altera17.0/nios2eds/bin/gnu/H-x86_64-pc-linux-gnu/bin/../lib/gcc/nios2-elf/5.3.0/../../../../../H-x86_64-pc-linux-gnu/nios2-elf/lib/pg/libc.a(lib_a-findfp.o)
                0x000000000802241c                __sfmoreglue
 .text.__sfp    0x0000000008022490      0x124 /package/eda/altera/altera17.0/nios2eds/bin/gnu/H-x86_64-pc-linux-gnu/bin/../lib/gcc/nios2-elf/5.3.0/../../../../../H-x86_64-pc-linux-gnu/nios2-elf/lib/pg/libc.a(lib_a-findfp.o)
                0x0000000008022490                __sfp
 .text._cleanup
                0x00000000080225b4       0x24 /package/eda/altera/altera17.0/nios2eds/bin/gnu/H-x86_64-pc-linux-gnu/bin/../lib/gcc/nios2-elf/5.3.0/../../../../../H-x86_64-pc-linux-gnu/nios2-elf/lib/pg/libc.a(lib_a-findfp.o)
                0x00000000080225b4                _cleanup
 .text.__sinit  0x00000000080225d8       0x1c /package/eda/altera/altera17.0/nios2eds/bin/gnu/H-x86_64-pc-linux-gnu/bin/../lib/gcc/nios2-elf/5.3.0/../../../../../H-x86_64-pc-linux-gnu/nios2-elf/lib/pg/libc.a(lib_a-findfp.o)
                0x00000000080225d8                __sinit
 .text.__sfp_lock_acquire
                0x00000000080225f4       0x10 /package/eda/altera/altera17.0/nios2eds/bin/gnu/H-x86_64-pc-linux-gnu/bin/../lib/gcc/nios2-elf/5.3.0/../../../../../H-x86_64-pc-linux-gnu/nios2-elf/lib/pg/libc.a(lib_a-findfp.o)
                0x00000000080225f4                __sfp_lock_acquire
 .text.__sfp_lock_release
                0x0000000008022604       0x10 /package/eda/altera/altera17.0/nios2eds/bin/gnu/H-x86_64-pc-linux-gnu/bin/../lib/gcc/nios2-elf/5.3.0/../../../../../H-x86_64-pc-linux-gnu/nios2-elf/lib/pg/libc.a(lib_a-findfp.o)
                0x0000000008022604                __sfp_lock_release
 .text.__sinit_lock_acquire
                0x0000000008022614       0x10 /package/eda/altera/altera17.0/nios2eds/bin/gnu/H-x86_64-pc-linux-gnu/bin/../lib/gcc/nios2-elf/5.3.0/../../../../../H-x86_64-pc-linux-gnu/nios2-elf/lib/pg/libc.a(lib_a-findfp.o)
                0x0000000008022614                __sinit_lock_acquire
 .text.__sinit_lock_release
                0x0000000008022624       0x10 /package/eda/altera/altera17.0/nios2eds/bin/gnu/H-x86_64-pc-linux-gnu/bin/../lib/gcc/nios2-elf/5.3.0/../../../../../H-x86_64-pc-linux-gnu/nios2-elf/lib/pg/libc.a(lib_a-findfp.o)
                0x0000000008022624                __sinit_lock_release
 .text.__fp_lock_all
                0x0000000008022634       0x24 /package/eda/altera/altera17.0/nios2eds/bin/gnu/H-x86_64-pc-linux-gnu/bin/../lib/gcc/nios2-elf/5.3.0/../../../../../H-x86_64-pc-linux-gnu/nios2-elf/lib/pg/libc.a(lib_a-findfp.o)
                0x0000000008022634                __fp_lock_all
 .text.__fp_unlock_all
                0x0000000008022658       0x24 /package/eda/altera/altera17.0/nios2eds/bin/gnu/H-x86_64-pc-linux-gnu/bin/../lib/gcc/nios2-elf/5.3.0/../../../../../H-x86_64-pc-linux-gnu/nios2-elf/lib/pg/libc.a(lib_a-findfp.o)
                0x0000000008022658                __fp_unlock_all
 .text          0x000000000802267c        0x0 /package/eda/altera/altera17.0/nios2eds/bin/gnu/H-x86_64-pc-linux-gnu/bin/../lib/gcc/nios2-elf/5.3.0/../../../../../H-x86_64-pc-linux-gnu/nios2-elf/lib/pg/libc.a(lib_a-fiprintf.o)
 .text._fiprintf_r
                0x000000000802267c       0x2c /package/eda/altera/altera17.0/nios2eds/bin/gnu/H-x86_64-pc-linux-gnu/bin/../lib/gcc/nios2-elf/5.3.0/../../../../../H-x86_64-pc-linux-gnu/nios2-elf/lib/pg/libc.a(lib_a-fiprintf.o)
                0x000000000802267c                _fiprintf_r
 .text.fiprintf
                0x00000000080226a8       0x48 /package/eda/altera/altera17.0/nios2eds/bin/gnu/H-x86_64-pc-linux-gnu/bin/../lib/gcc/nios2-elf/5.3.0/../../../../../H-x86_64-pc-linux-gnu/nios2-elf/lib/pg/libc.a(lib_a-fiprintf.o)
                0x00000000080226a8                fiprintf
 .text          0x00000000080226f0        0x0 /package/eda/altera/altera17.0/nios2eds/bin/gnu/H-x86_64-pc-linux-gnu/bin/../lib/gcc/nios2-elf/5.3.0/../../../../../H-x86_64-pc-linux-gnu/nios2-elf/lib/pg/libc.a(lib_a-fopen.o)
 .text._fopen_r
                0x00000000080226f0      0x100 /package/eda/altera/altera17.0/nios2eds/bin/gnu/H-x86_64-pc-linux-gnu/bin/../lib/gcc/nios2-elf/5.3.0/../../../../../H-x86_64-pc-linux-gnu/nios2-elf/lib/pg/libc.a(lib_a-fopen.o)
                0x00000000080226f0                _fopen_r
 .text.fopen    0x00000000080227f0       0x24 /package/eda/altera/altera17.0/nios2eds/bin/gnu/H-x86_64-pc-linux-gnu/bin/../lib/gcc/nios2-elf/5.3.0/../../../../../H-x86_64-pc-linux-gnu/nios2-elf/lib/pg/libc.a(lib_a-fopen.o)
                0x00000000080227f0                fopen
 .text          0x0000000008022814        0x0 /package/eda/altera/altera17.0/nios2eds/bin/gnu/H-x86_64-pc-linux-gnu/bin/../lib/gcc/nios2-elf/5.3.0/../../../../../H-x86_64-pc-linux-gnu/nios2-elf/lib/pg/libc.a(lib_a-fprintf.o)
 .text._fprintf_r
                0x0000000008022814       0x34 /package/eda/altera/altera17.0/nios2eds/bin/gnu/H-x86_64-pc-linux-gnu/bin/../lib/gcc/nios2-elf/5.3.0/../../../../../H-x86_64-pc-linux-gnu/nios2-elf/lib/pg/libc.a(lib_a-fprintf.o)
                0x0000000008022814                _fprintf_r
 .text.fprintf  0x0000000008022848       0x30 /package/eda/altera/altera17.0/nios2eds/bin/gnu/H-x86_64-pc-linux-gnu/bin/../lib/gcc/nios2-elf/5.3.0/../../../../../H-x86_64-pc-linux-gnu/nios2-elf/lib/pg/libc.a(lib_a-fprintf.o)
                0x0000000008022848                fprintf
 .text          0x0000000008022878        0x0 /package/eda/altera/altera17.0/nios2eds/bin/gnu/H-x86_64-pc-linux-gnu/bin/../lib/gcc/nios2-elf/5.3.0/../../../../../H-x86_64-pc-linux-gnu/nios2-elf/lib/pg/libc.a(lib_a-fputc.o)
 .text._fputc_r
                0x0000000008022878       0x50 /package/eda/altera/altera17.0/nios2eds/bin/gnu/H-x86_64-pc-linux-gnu/bin/../lib/gcc/nios2-elf/5.3.0/../../../../../H-x86_64-pc-linux-gnu/nios2-elf/lib/pg/libc.a(lib_a-fputc.o)
                0x0000000008022878                _fputc_r
 .text.fputc    0x00000000080228c8       0x68 /package/eda/altera/altera17.0/nios2eds/bin/gnu/H-x86_64-pc-linux-gnu/bin/../lib/gcc/nios2-elf/5.3.0/../../../../../H-x86_64-pc-linux-gnu/nios2-elf/lib/pg/libc.a(lib_a-fputc.o)
                0x00000000080228c8                fputc
 .text          0x0000000008022930        0x0 /package/eda/altera/altera17.0/nios2eds/bin/gnu/H-x86_64-pc-linux-gnu/bin/../lib/gcc/nios2-elf/5.3.0/../../../../../H-x86_64-pc-linux-gnu/nios2-elf/lib/pg/libc.a(lib_a-fputs.o)
 .text._fputs_r
                0x0000000008022930       0xa8 /package/eda/altera/altera17.0/nios2eds/bin/gnu/H-x86_64-pc-linux-gnu/bin/../lib/gcc/nios2-elf/5.3.0/../../../../../H-x86_64-pc-linux-gnu/nios2-elf/lib/pg/libc.a(lib_a-fputs.o)
                0x0000000008022930                _fputs_r
 .text.fputs    0x00000000080229d8       0x24 /package/eda/altera/altera17.0/nios2eds/bin/gnu/H-x86_64-pc-linux-gnu/bin/../lib/gcc/nios2-elf/5.3.0/../../../../../H-x86_64-pc-linux-gnu/nios2-elf/lib/pg/libc.a(lib_a-fputs.o)
                0x00000000080229d8                fputs
 .text          0x00000000080229fc        0x0 /package/eda/altera/altera17.0/nios2eds/bin/gnu/H-x86_64-pc-linux-gnu/bin/../lib/gcc/nios2-elf/5.3.0/../../../../../H-x86_64-pc-linux-gnu/nios2-elf/lib/pg/libc.a(lib_a-fread.o)
 .text._fread_r
                0x00000000080229fc      0x238 /package/eda/altera/altera17.0/nios2eds/bin/gnu/H-x86_64-pc-linux-gnu/bin/../lib/gcc/nios2-elf/5.3.0/../../../../../H-x86_64-pc-linux-gnu/nios2-elf/lib/pg/libc.a(lib_a-fread.o)
                0x00000000080229fc                _fread_r
 .text.fread    0x0000000008022c34       0x40 /package/eda/altera/altera17.0/nios2eds/bin/gnu/H-x86_64-pc-linux-gnu/bin/../lib/gcc/nios2-elf/5.3.0/../../../../../H-x86_64-pc-linux-gnu/nios2-elf/lib/pg/libc.a(lib_a-fread.o)
                0x0000000008022c34                fread
 .text          0x0000000008022c74        0x0 /package/eda/altera/altera17.0/nios2eds/bin/gnu/H-x86_64-pc-linux-gnu/bin/../lib/gcc/nios2-elf/5.3.0/../../../../../H-x86_64-pc-linux-gnu/nios2-elf/lib/pg/libc.a(lib_a-freer.o)
 .text._malloc_trim_r
                0x0000000008022c74      0x130 /package/eda/altera/altera17.0/nios2eds/bin/gnu/H-x86_64-pc-linux-gnu/bin/../lib/gcc/nios2-elf/5.3.0/../../../../../H-x86_64-pc-linux-gnu/nios2-elf/lib/pg/libc.a(lib_a-freer.o)
                0x0000000008022c74                _malloc_trim_r
 .text._free_r  0x0000000008022da4      0x31c /package/eda/altera/altera17.0/nios2eds/bin/gnu/H-x86_64-pc-linux-gnu/bin/../lib/gcc/nios2-elf/5.3.0/../../../../../H-x86_64-pc-linux-gnu/nios2-elf/lib/pg/libc.a(lib_a-freer.o)
                0x0000000008022da4                _free_r
 .text          0x00000000080230c0        0x0 /package/eda/altera/altera17.0/nios2eds/bin/gnu/H-x86_64-pc-linux-gnu/bin/../lib/gcc/nios2-elf/5.3.0/../../../../../H-x86_64-pc-linux-gnu/nios2-elf/lib/pg/libc.a(lib_a-fseek.o)
 .text._fseek_r
                0x00000000080230c0       0x10 /package/eda/altera/altera17.0/nios2eds/bin/gnu/H-x86_64-pc-linux-gnu/bin/../lib/gcc/nios2-elf/5.3.0/../../../../../H-x86_64-pc-linux-gnu/nios2-elf/lib/pg/libc.a(lib_a-fseek.o)
                0x00000000080230c0                _fseek_r
 .text.fseek    0x00000000080230d0       0x28 /package/eda/altera/altera17.0/nios2eds/bin/gnu/H-x86_64-pc-linux-gnu/bin/../lib/gcc/nios2-elf/5.3.0/../../../../../H-x86_64-pc-linux-gnu/nios2-elf/lib/pg/libc.a(lib_a-fseek.o)
                0x00000000080230d0                fseek
 .text          0x00000000080230f8        0x0 /package/eda/altera/altera17.0/nios2eds/bin/gnu/H-x86_64-pc-linux-gnu/bin/../lib/gcc/nios2-elf/5.3.0/../../../../../H-x86_64-pc-linux-gnu/nios2-elf/lib/pg/libc.a(lib_a-fseeko.o)
 .text._fseeko_r
                0x00000000080230f8      0x450 /package/eda/altera/altera17.0/nios2eds/bin/gnu/H-x86_64-pc-linux-gnu/bin/../lib/gcc/nios2-elf/5.3.0/../../../../../H-x86_64-pc-linux-gnu/nios2-elf/lib/pg/libc.a(lib_a-fseeko.o)
                0x00000000080230f8                _fseeko_r
 .text.fseeko   0x0000000008023548       0x28 /package/eda/altera/altera17.0/nios2eds/bin/gnu/H-x86_64-pc-linux-gnu/bin/../lib/gcc/nios2-elf/5.3.0/../../../../../H-x86_64-pc-linux-gnu/nios2-elf/lib/pg/libc.a(lib_a-fseeko.o)
                0x0000000008023548                fseeko
 .text          0x0000000008023570        0x0 /package/eda/altera/altera17.0/nios2eds/bin/gnu/H-x86_64-pc-linux-gnu/bin/../lib/gcc/nios2-elf/5.3.0/../../../../../H-x86_64-pc-linux-gnu/nios2-elf/lib/pg/libc.a(lib_a-fstatr.o)
 .text._fstat_r
                0x0000000008023570       0x68 /package/eda/altera/altera17.0/nios2eds/bin/gnu/H-x86_64-pc-linux-gnu/bin/../lib/gcc/nios2-elf/5.3.0/../../../../../H-x86_64-pc-linux-gnu/nios2-elf/lib/pg/libc.a(lib_a-fstatr.o)
                0x0000000008023570                _fstat_r
 .text          0x00000000080235d8        0x0 /package/eda/altera/altera17.0/nios2eds/bin/gnu/H-x86_64-pc-linux-gnu/bin/../lib/gcc/nios2-elf/5.3.0/../../../../../H-x86_64-pc-linux-gnu/nios2-elf/lib/pg/libc.a(lib_a-fvwrite.o)
 .text.__sfvwrite_r
                0x00000000080235d8      0x4c8 /package/eda/altera/altera17.0/nios2eds/bin/gnu/H-x86_64-pc-linux-gnu/bin/../lib/gcc/nios2-elf/5.3.0/../../../../../H-x86_64-pc-linux-gnu/nios2-elf/lib/pg/libc.a(lib_a-fvwrite.o)
                0x00000000080235d8                __sfvwrite_r
 .text          0x0000000008023aa0        0x0 /package/eda/altera/altera17.0/nios2eds/bin/gnu/H-x86_64-pc-linux-gnu/bin/../lib/gcc/nios2-elf/5.3.0/../../../../../H-x86_64-pc-linux-gnu/nios2-elf/lib/pg/libc.a(lib_a-fwalk.o)
 .text._fwalk   0x0000000008023aa0       0xd0 /package/eda/altera/altera17.0/nios2eds/bin/gnu/H-x86_64-pc-linux-gnu/bin/../lib/gcc/nios2-elf/5.3.0/../../../../../H-x86_64-pc-linux-gnu/nios2-elf/lib/pg/libc.a(lib_a-fwalk.o)
                0x0000000008023aa0                _fwalk
 .text._fwalk_reent
                0x0000000008023b70       0xd0 /package/eda/altera/altera17.0/nios2eds/bin/gnu/H-x86_64-pc-linux-gnu/bin/../lib/gcc/nios2-elf/5.3.0/../../../../../H-x86_64-pc-linux-gnu/nios2-elf/lib/pg/libc.a(lib_a-fwalk.o)
                0x0000000008023b70                _fwalk_reent
 .text          0x0000000008023c40        0x0 /package/eda/altera/altera17.0/nios2eds/bin/gnu/H-x86_64-pc-linux-gnu/bin/../lib/gcc/nios2-elf/5.3.0/../../../../../H-x86_64-pc-linux-gnu/nios2-elf/lib/pg/libc.a(lib_a-fwrite.o)
 .text._fwrite_r
                0x0000000008023c40       0xd8 /package/eda/altera/altera17.0/nios2eds/bin/gnu/H-x86_64-pc-linux-gnu/bin/../lib/gcc/nios2-elf/5.3.0/../../../../../H-x86_64-pc-linux-gnu/nios2-elf/lib/pg/libc.a(lib_a-fwrite.o)
                0x0000000008023c40                _fwrite_r
 .text.fwrite   0x0000000008023d18       0x40 /package/eda/altera/altera17.0/nios2eds/bin/gnu/H-x86_64-pc-linux-gnu/bin/../lib/gcc/nios2-elf/5.3.0/../../../../../H-x86_64-pc-linux-gnu/nios2-elf/lib/pg/libc.a(lib_a-fwrite.o)
                0x0000000008023d18                fwrite
 .text          0x0000000008023d58        0x0 /package/eda/altera/altera17.0/nios2eds/bin/gnu/H-x86_64-pc-linux-gnu/bin/../lib/gcc/nios2-elf/5.3.0/../../../../../H-x86_64-pc-linux-gnu/nios2-elf/lib/pg/libc.a(lib_a-impure.o)
 .text          0x0000000008023d58        0x0 /package/eda/altera/altera17.0/nios2eds/bin/gnu/H-x86_64-pc-linux-gnu/bin/../lib/gcc/nios2-elf/5.3.0/../../../../../H-x86_64-pc-linux-gnu/nios2-elf/lib/pg/libc.a(lib_a-int_errno.o)
 .text          0x0000000008023d58        0x0 /package/eda/altera/altera17.0/nios2eds/bin/gnu/H-x86_64-pc-linux-gnu/bin/../lib/gcc/nios2-elf/5.3.0/../../../../../H-x86_64-pc-linux-gnu/nios2-elf/lib/pg/libc.a(lib_a-makebuf.o)
 .text.__smakebuf_r
                0x0000000008023d58      0x1c8 /package/eda/altera/altera17.0/nios2eds/bin/gnu/H-x86_64-pc-linux-gnu/bin/../lib/gcc/nios2-elf/5.3.0/../../../../../H-x86_64-pc-linux-gnu/nios2-elf/lib/pg/libc.a(lib_a-makebuf.o)
                0x0000000008023d58                __smakebuf_r
 .text          0x0000000008023f20        0x0 /package/eda/altera/altera17.0/nios2eds/bin/gnu/H-x86_64-pc-linux-gnu/bin/../lib/gcc/nios2-elf/5.3.0/../../../../../H-x86_64-pc-linux-gnu/nios2-elf/lib/pg/libc.a(lib_a-malloc.o)
 .text.malloc   0x0000000008023f20       0x20 /package/eda/altera/altera17.0/nios2eds/bin/gnu/H-x86_64-pc-linux-gnu/bin/../lib/gcc/nios2-elf/5.3.0/../../../../../H-x86_64-pc-linux-gnu/nios2-elf/lib/pg/libc.a(lib_a-malloc.o)
                0x0000000008023f20                malloc
 .text.free     0x0000000008023f40       0x20 /package/eda/altera/altera17.0/nios2eds/bin/gnu/H-x86_64-pc-linux-gnu/bin/../lib/gcc/nios2-elf/5.3.0/../../../../../H-x86_64-pc-linux-gnu/nios2-elf/lib/pg/libc.a(lib_a-malloc.o)
                0x0000000008023f40                free
 .text          0x0000000008023f60        0x0 /package/eda/altera/altera17.0/nios2eds/bin/gnu/H-x86_64-pc-linux-gnu/bin/../lib/gcc/nios2-elf/5.3.0/../../../../../H-x86_64-pc-linux-gnu/nios2-elf/lib/pg/libc.a(lib_a-mallocr.o)
 .text._malloc_r
                0x0000000008023f60      0x818 /package/eda/altera/altera17.0/nios2eds/bin/gnu/H-x86_64-pc-linux-gnu/bin/../lib/gcc/nios2-elf/5.3.0/../../../../../H-x86_64-pc-linux-gnu/nios2-elf/lib/pg/libc.a(lib_a-mallocr.o)
                0x0000000008023f60                _malloc_r
 .text          0x0000000008024778        0x0 /package/eda/altera/altera17.0/nios2eds/bin/gnu/H-x86_64-pc-linux-gnu/bin/../lib/gcc/nios2-elf/5.3.0/../../../../../H-x86_64-pc-linux-gnu/nios2-elf/lib/pg/libc.a(lib_a-memchr.o)
 .text.memchr   0x0000000008024778       0xf0 /package/eda/altera/altera17.0/nios2eds/bin/gnu/H-x86_64-pc-linux-gnu/bin/../lib/gcc/nios2-elf/5.3.0/../../../../../H-x86_64-pc-linux-gnu/nios2-elf/lib/pg/libc.a(lib_a-memchr.o)
                0x0000000008024778                memchr
 .text          0x0000000008024868        0x0 /package/eda/altera/altera17.0/nios2eds/bin/gnu/H-x86_64-pc-linux-gnu/bin/../lib/gcc/nios2-elf/5.3.0/../../../../../H-x86_64-pc-linux-gnu/nios2-elf/lib/pg/libc.a(lib_a-memcpy.o)
 .text.memcpy   0x0000000008024868      0x154 /package/eda/altera/altera17.0/nios2eds/bin/gnu/H-x86_64-pc-linux-gnu/bin/../lib/gcc/nios2-elf/5.3.0/../../../../../H-x86_64-pc-linux-gnu/nios2-elf/lib/pg/libc.a(lib_a-memcpy.o)
                0x0000000008024868                memcpy
 .text          0x00000000080249bc        0x0 /package/eda/altera/altera17.0/nios2eds/bin/gnu/H-x86_64-pc-linux-gnu/bin/../lib/gcc/nios2-elf/5.3.0/../../../../../H-x86_64-pc-linux-gnu/nios2-elf/lib/pg/libc.a(lib_a-memmove.o)
 .text.memmove  0x00000000080249bc      0x164 /package/eda/altera/altera17.0/nios2eds/bin/gnu/H-x86_64-pc-linux-gnu/bin/../lib/gcc/nios2-elf/5.3.0/../../../../../H-x86_64-pc-linux-gnu/nios2-elf/lib/pg/libc.a(lib_a-memmove.o)
                0x00000000080249bc                memmove
 .text          0x0000000008024b20        0x0 /package/eda/altera/altera17.0/nios2eds/bin/gnu/H-x86_64-pc-linux-gnu/bin/../lib/gcc/nios2-elf/5.3.0/../../../../../H-x86_64-pc-linux-gnu/nios2-elf/lib/pg/libc.a(lib_a-memset.o)
 .text.memset   0x0000000008024b20      0x130 /package/eda/altera/altera17.0/nios2eds/bin/gnu/H-x86_64-pc-linux-gnu/bin/../lib/gcc/nios2-elf/5.3.0/../../../../../H-x86_64-pc-linux-gnu/nios2-elf/lib/pg/libc.a(lib_a-memset.o)
                0x0000000008024b20                memset
 .text          0x0000000008024c50        0x0 /package/eda/altera/altera17.0/nios2eds/bin/gnu/H-x86_64-pc-linux-gnu/bin/../lib/gcc/nios2-elf/5.3.0/../../../../../H-x86_64-pc-linux-gnu/nios2-elf/lib/pg/libc.a(lib_a-openr.o)
 .text._open_r  0x0000000008024c50       0x6c /package/eda/altera/altera17.0/nios2eds/bin/gnu/H-x86_64-pc-linux-gnu/bin/../lib/gcc/nios2-elf/5.3.0/../../../../../H-x86_64-pc-linux-gnu/nios2-elf/lib/pg/libc.a(lib_a-openr.o)
                0x0000000008024c50                _open_r
 .text          0x0000000008024cbc        0x0 /package/eda/altera/altera17.0/nios2eds/bin/gnu/H-x86_64-pc-linux-gnu/bin/../lib/gcc/nios2-elf/5.3.0/../../../../../H-x86_64-pc-linux-gnu/nios2-elf/lib/pg/libc.a(lib_a-printf.o)
 .text._printf_r
                0x0000000008024cbc       0x3c /package/eda/altera/altera17.0/nios2eds/bin/gnu/H-x86_64-pc-linux-gnu/bin/../lib/gcc/nios2-elf/5.3.0/../../../../../H-x86_64-pc-linux-gnu/nios2-elf/lib/pg/libc.a(lib_a-printf.o)
                0x0000000008024cbc                _printf_r
 .text.printf   0x0000000008024cf8       0x48 /package/eda/altera/altera17.0/nios2eds/bin/gnu/H-x86_64-pc-linux-gnu/bin/../lib/gcc/nios2-elf/5.3.0/../../../../../H-x86_64-pc-linux-gnu/nios2-elf/lib/pg/libc.a(lib_a-printf.o)
                0x0000000008024cf8                printf
 .text          0x0000000008024d40        0x0 /package/eda/altera/altera17.0/nios2eds/bin/gnu/H-x86_64-pc-linux-gnu/bin/../lib/gcc/nios2-elf/5.3.0/../../../../../H-x86_64-pc-linux-gnu/nios2-elf/lib/pg/libc.a(lib_a-putc.o)
 .text._putc_r  0x0000000008024d40       0xac /package/eda/altera/altera17.0/nios2eds/bin/gnu/H-x86_64-pc-linux-gnu/bin/../lib/gcc/nios2-elf/5.3.0/../../../../../H-x86_64-pc-linux-gnu/nios2-elf/lib/pg/libc.a(lib_a-putc.o)
                0x0000000008024d40                _putc_r
 .text.putc     0x0000000008024dec       0xd4 /package/eda/altera/altera17.0/nios2eds/bin/gnu/H-x86_64-pc-linux-gnu/bin/../lib/gcc/nios2-elf/5.3.0/../../../../../H-x86_64-pc-linux-gnu/nios2-elf/lib/pg/libc.a(lib_a-putc.o)
                0x0000000008024dec                putc
 .text          0x0000000008024ec0        0x0 /package/eda/altera/altera17.0/nios2eds/bin/gnu/H-x86_64-pc-linux-gnu/bin/../lib/gcc/nios2-elf/5.3.0/../../../../../H-x86_64-pc-linux-gnu/nios2-elf/lib/pg/libc.a(lib_a-realloc.o)
 .text.realloc  0x0000000008024ec0       0x24 /package/eda/altera/altera17.0/nios2eds/bin/gnu/H-x86_64-pc-linux-gnu/bin/../lib/gcc/nios2-elf/5.3.0/../../../../../H-x86_64-pc-linux-gnu/nios2-elf/lib/pg/libc.a(lib_a-realloc.o)
                0x0000000008024ec0                realloc
 .text          0x0000000008024ee4        0x0 /package/eda/altera/altera17.0/nios2eds/bin/gnu/H-x86_64-pc-linux-gnu/bin/../lib/gcc/nios2-elf/5.3.0/../../../../../H-x86_64-pc-linux-gnu/nios2-elf/lib/pg/libc.a(lib_a-reallocr.o)
 .text._realloc_r
                0x0000000008024ee4      0x570 /package/eda/altera/altera17.0/nios2eds/bin/gnu/H-x86_64-pc-linux-gnu/bin/../lib/gcc/nios2-elf/5.3.0/../../../../../H-x86_64-pc-linux-gnu/nios2-elf/lib/pg/libc.a(lib_a-reallocr.o)
                0x0000000008024ee4                _realloc_r
 .text          0x0000000008025454        0x0 /package/eda/altera/altera17.0/nios2eds/bin/gnu/H-x86_64-pc-linux-gnu/bin/../lib/gcc/nios2-elf/5.3.0/../../../../../H-x86_64-pc-linux-gnu/nios2-elf/lib/pg/libc.a(lib_a-refill.o)
 .text.lflush   0x0000000008025454       0x28 /package/eda/altera/altera17.0/nios2eds/bin/gnu/H-x86_64-pc-linux-gnu/bin/../lib/gcc/nios2-elf/5.3.0/../../../../../H-x86_64-pc-linux-gnu/nios2-elf/lib/pg/libc.a(lib_a-refill.o)
 .text.__srefill_r
                0x000000000802547c      0x1e0 /package/eda/altera/altera17.0/nios2eds/bin/gnu/H-x86_64-pc-linux-gnu/bin/../lib/gcc/nios2-elf/5.3.0/../../../../../H-x86_64-pc-linux-gnu/nios2-elf/lib/pg/libc.a(lib_a-refill.o)
                0x000000000802547c                __srefill_r
 .text          0x000000000802565c        0x0 /package/eda/altera/altera17.0/nios2eds/bin/gnu/H-x86_64-pc-linux-gnu/bin/../lib/gcc/nios2-elf/5.3.0/../../../../../H-x86_64-pc-linux-gnu/nios2-elf/lib/pg/libc.a(lib_a-sbrkr.o)
 .text._sbrk_r  0x000000000802565c       0x60 /package/eda/altera/altera17.0/nios2eds/bin/gnu/H-x86_64-pc-linux-gnu/bin/../lib/gcc/nios2-elf/5.3.0/../../../../../H-x86_64-pc-linux-gnu/nios2-elf/lib/pg/libc.a(lib_a-sbrkr.o)
                0x000000000802565c                _sbrk_r
 .text          0x00000000080256bc        0x0 /package/eda/altera/altera17.0/nios2eds/bin/gnu/H-x86_64-pc-linux-gnu/bin/../lib/gcc/nios2-elf/5.3.0/../../../../../H-x86_64-pc-linux-gnu/nios2-elf/lib/pg/libc.a(lib_a-signal.o)
 .text._init_signal_r
                0x00000000080256bc       0x78 /package/eda/altera/altera17.0/nios2eds/bin/gnu/H-x86_64-pc-linux-gnu/bin/../lib/gcc/nios2-elf/5.3.0/../../../../../H-x86_64-pc-linux-gnu/nios2-elf/lib/pg/libc.a(lib_a-signal.o)
                0x00000000080256bc                _init_signal_r
 .text._signal_r
                0x0000000008025734       0x90 /package/eda/altera/altera17.0/nios2eds/bin/gnu/H-x86_64-pc-linux-gnu/bin/../lib/gcc/nios2-elf/5.3.0/../../../../../H-x86_64-pc-linux-gnu/nios2-elf/lib/pg/libc.a(lib_a-signal.o)
                0x0000000008025734                _signal_r
 .text._raise_r
                0x00000000080257c4       0xc8 /package/eda/altera/altera17.0/nios2eds/bin/gnu/H-x86_64-pc-linux-gnu/bin/../lib/gcc/nios2-elf/5.3.0/../../../../../H-x86_64-pc-linux-gnu/nios2-elf/lib/pg/libc.a(lib_a-signal.o)
                0x00000000080257c4                _raise_r
 .text.__sigtramp_r
                0x000000000802588c       0xb4 /package/eda/altera/altera17.0/nios2eds/bin/gnu/H-x86_64-pc-linux-gnu/bin/../lib/gcc/nios2-elf/5.3.0/../../../../../H-x86_64-pc-linux-gnu/nios2-elf/lib/pg/libc.a(lib_a-signal.o)
                0x000000000802588c                __sigtramp_r
 .text.raise    0x0000000008025940       0x20 /package/eda/altera/altera17.0/nios2eds/bin/gnu/H-x86_64-pc-linux-gnu/bin/../lib/gcc/nios2-elf/5.3.0/../../../../../H-x86_64-pc-linux-gnu/nios2-elf/lib/pg/libc.a(lib_a-signal.o)
                0x0000000008025940                raise
 .text.signal   0x0000000008025960       0x24 /package/eda/altera/altera17.0/nios2eds/bin/gnu/H-x86_64-pc-linux-gnu/bin/../lib/gcc/nios2-elf/5.3.0/../../../../../H-x86_64-pc-linux-gnu/nios2-elf/lib/pg/libc.a(lib_a-signal.o)
                0x0000000008025960                signal
 .text._init_signal
                0x0000000008025984       0x1c /package/eda/altera/altera17.0/nios2eds/bin/gnu/H-x86_64-pc-linux-gnu/bin/../lib/gcc/nios2-elf/5.3.0/../../../../../H-x86_64-pc-linux-gnu/nios2-elf/lib/pg/libc.a(lib_a-signal.o)
                0x0000000008025984                _init_signal
 .text.__sigtramp
                0x00000000080259a0       0x20 /package/eda/altera/altera17.0/nios2eds/bin/gnu/H-x86_64-pc-linux-gnu/bin/../lib/gcc/nios2-elf/5.3.0/../../../../../H-x86_64-pc-linux-gnu/nios2-elf/lib/pg/libc.a(lib_a-signal.o)
                0x00000000080259a0                __sigtramp
 .text          0x00000000080259c0        0x0 /package/eda/altera/altera17.0/nios2eds/bin/gnu/H-x86_64-pc-linux-gnu/bin/../lib/gcc/nios2-elf/5.3.0/../../../../../H-x86_64-pc-linux-gnu/nios2-elf/lib/pg/libc.a(lib_a-signalr.o)
 .text._kill_r  0x00000000080259c0       0x68 /package/eda/altera/altera17.0/nios2eds/bin/gnu/H-x86_64-pc-linux-gnu/bin/../lib/gcc/nios2-elf/5.3.0/../../../../../H-x86_64-pc-linux-gnu/nios2-elf/lib/pg/libc.a(lib_a-signalr.o)
                0x00000000080259c0                _kill_r
 .text._getpid_r
                0x0000000008025a28       0x10 /package/eda/altera/altera17.0/nios2eds/bin/gnu/H-x86_64-pc-linux-gnu/bin/../lib/gcc/nios2-elf/5.3.0/../../../../../H-x86_64-pc-linux-gnu/nios2-elf/lib/pg/libc.a(lib_a-signalr.o)
                0x0000000008025a28                _getpid_r
 .text          0x0000000008025a38        0x0 /package/eda/altera/altera17.0/nios2eds/bin/gnu/H-x86_64-pc-linux-gnu/bin/../lib/gcc/nios2-elf/5.3.0/../../../../../H-x86_64-pc-linux-gnu/nios2-elf/lib/pg/libc.a(lib_a-stdio.o)
 .text.__sread  0x0000000008025a38       0x60 /package/eda/altera/altera17.0/nios2eds/bin/gnu/H-x86_64-pc-linux-gnu/bin/../lib/gcc/nios2-elf/5.3.0/../../../../../H-x86_64-pc-linux-gnu/nios2-elf/lib/pg/libc.a(lib_a-stdio.o)
                0x0000000008025a38                __sread
 .text.__seofread
                0x0000000008025a98       0x14 /package/eda/altera/altera17.0/nios2eds/bin/gnu/H-x86_64-pc-linux-gnu/bin/../lib/gcc/nios2-elf/5.3.0/../../../../../H-x86_64-pc-linux-gnu/nios2-elf/lib/pg/libc.a(lib_a-stdio.o)
                0x0000000008025a98                __seofread
 .text.__swrite
                0x0000000008025aac       0x88 /package/eda/altera/altera17.0/nios2eds/bin/gnu/H-x86_64-pc-linux-gnu/bin/../lib/gcc/nios2-elf/5.3.0/../../../../../H-x86_64-pc-linux-gnu/nios2-elf/lib/pg/libc.a(lib_a-stdio.o)
                0x0000000008025aac                __swrite
 .text.__sseek  0x0000000008025b34       0x68 /package/eda/altera/altera17.0/nios2eds/bin/gnu/H-x86_64-pc-linux-gnu/bin/../lib/gcc/nios2-elf/5.3.0/../../../../../H-x86_64-pc-linux-gnu/nios2-elf/lib/pg/libc.a(lib_a-stdio.o)
                0x0000000008025b34                __sseek
 .text.__sclose
                0x0000000008025b9c       0x14 /package/eda/altera/altera17.0/nios2eds/bin/gnu/H-x86_64-pc-linux-gnu/bin/../lib/gcc/nios2-elf/5.3.0/../../../../../H-x86_64-pc-linux-gnu/nios2-elf/lib/pg/libc.a(lib_a-stdio.o)
                0x0000000008025b9c                __sclose
 .text          0x0000000008025bb0        0x0 /package/eda/altera/altera17.0/nios2eds/bin/gnu/H-x86_64-pc-linux-gnu/bin/../lib/gcc/nios2-elf/5.3.0/../../../../../H-x86_64-pc-linux-gnu/nios2-elf/lib/pg/libc.a(lib_a-strcmp.o)
 .text.strcmp   0x0000000008025bb0       0xe0 /package/eda/altera/altera17.0/nios2eds/bin/gnu/H-x86_64-pc-linux-gnu/bin/../lib/gcc/nios2-elf/5.3.0/../../../../../H-x86_64-pc-linux-gnu/nios2-elf/lib/pg/libc.a(lib_a-strcmp.o)
                0x0000000008025bb0                strcmp
 .text          0x0000000008025c90        0x0 /package/eda/altera/altera17.0/nios2eds/bin/gnu/H-x86_64-pc-linux-gnu/bin/../lib/gcc/nios2-elf/5.3.0/../../../../../H-x86_64-pc-linux-gnu/nios2-elf/lib/pg/libc.a(lib_a-strdup.o)
 .text.strdup   0x0000000008025c90       0x20 /package/eda/altera/altera17.0/nios2eds/bin/gnu/H-x86_64-pc-linux-gnu/bin/../lib/gcc/nios2-elf/5.3.0/../../../../../H-x86_64-pc-linux-gnu/nios2-elf/lib/pg/libc.a(lib_a-strdup.o)
                0x0000000008025c90                strdup
 .text          0x0000000008025cb0        0x0 /package/eda/altera/altera17.0/nios2eds/bin/gnu/H-x86_64-pc-linux-gnu/bin/../lib/gcc/nios2-elf/5.3.0/../../../../../H-x86_64-pc-linux-gnu/nios2-elf/lib/pg/libc.a(lib_a-strdup_r.o)
 .text._strdup_r
                0x0000000008025cb0       0x74 /package/eda/altera/altera17.0/nios2eds/bin/gnu/H-x86_64-pc-linux-gnu/bin/../lib/gcc/nios2-elf/5.3.0/../../../../../H-x86_64-pc-linux-gnu/nios2-elf/lib/pg/libc.a(lib_a-strdup_r.o)
                0x0000000008025cb0                _strdup_r
 .text          0x0000000008025d24        0x0 /package/eda/altera/altera17.0/nios2eds/bin/gnu/H-x86_64-pc-linux-gnu/bin/../lib/gcc/nios2-elf/5.3.0/../../../../../H-x86_64-pc-linux-gnu/nios2-elf/lib/pg/libc.a(lib_a-strlen.o)
 .text.strlen   0x0000000008025d24       0xa4 /package/eda/altera/altera17.0/nios2eds/bin/gnu/H-x86_64-pc-linux-gnu/bin/../lib/gcc/nios2-elf/5.3.0/../../../../../H-x86_64-pc-linux-gnu/nios2-elf/lib/pg/libc.a(lib_a-strlen.o)
                0x0000000008025d24                strlen
 .text          0x0000000008025dc8        0x0 /package/eda/altera/altera17.0/nios2eds/bin/gnu/H-x86_64-pc-linux-gnu/bin/../lib/gcc/nios2-elf/5.3.0/../../../../../H-x86_64-pc-linux-gnu/nios2-elf/lib/pg/libc.a(lib_a-strncmp.o)
 .text.strncmp  0x0000000008025dc8       0xdc /package/eda/altera/altera17.0/nios2eds/bin/gnu/H-x86_64-pc-linux-gnu/bin/../lib/gcc/nios2-elf/5.3.0/../../../../../H-x86_64-pc-linux-gnu/nios2-elf/lib/pg/libc.a(lib_a-strncmp.o)
                0x0000000008025dc8                strncmp
 .text          0x0000000008025ea4        0x0 /package/eda/altera/altera17.0/nios2eds/bin/gnu/H-x86_64-pc-linux-gnu/bin/../lib/gcc/nios2-elf/5.3.0/../../../../../H-x86_64-pc-linux-gnu/nios2-elf/lib/pg/libc.a(lib_a-strtod.o)
 .text.sulp     0x0000000008025ea4       0x70 /package/eda/altera/altera17.0/nios2eds/bin/gnu/H-x86_64-pc-linux-gnu/bin/../lib/gcc/nios2-elf/5.3.0/../../../../../H-x86_64-pc-linux-gnu/nios2-elf/lib/pg/libc.a(lib_a-strtod.o)
 .text._strtod_r
                0x0000000008025f14     0x1604 /package/eda/altera/altera17.0/nios2eds/bin/gnu/H-x86_64-pc-linux-gnu/bin/../lib/gcc/nios2-elf/5.3.0/../../../../../H-x86_64-pc-linux-gnu/nios2-elf/lib/pg/libc.a(lib_a-strtod.o)
                0x0000000008025f14                _strtod_r
 .text.strtod   0x0000000008027518       0x24 /package/eda/altera/altera17.0/nios2eds/bin/gnu/H-x86_64-pc-linux-gnu/bin/../lib/gcc/nios2-elf/5.3.0/../../../../../H-x86_64-pc-linux-gnu/nios2-elf/lib/pg/libc.a(lib_a-strtod.o)
                0x0000000008027518                strtod
 .text.strtof   0x000000000802753c      0x10c /package/eda/altera/altera17.0/nios2eds/bin/gnu/H-x86_64-pc-linux-gnu/bin/../lib/gcc/nios2-elf/5.3.0/../../../../../H-x86_64-pc-linux-gnu/nios2-elf/lib/pg/libc.a(lib_a-strtod.o)
                0x000000000802753c                strtof
 .text          0x0000000008027648        0x0 /package/eda/altera/altera17.0/nios2eds/bin/gnu/H-x86_64-pc-linux-gnu/bin/../lib/gcc/nios2-elf/5.3.0/../../../../../H-x86_64-pc-linux-gnu/nios2-elf/lib/pg/libc.a(lib_a-vfiprintfr_1.o)
 .text._vfiprintf_r
                0x0000000008027648       0x24 /package/eda/altera/altera17.0/nios2eds/bin/gnu/H-x86_64-pc-linux-gnu/bin/../lib/gcc/nios2-elf/5.3.0/../../../../../H-x86_64-pc-linux-gnu/nios2-elf/lib/pg/libc.a(lib_a-vfiprintfr_1.o)
                0x0000000008027648                _vfiprintf_r
 .text          0x000000000802766c        0x0 /package/eda/altera/altera17.0/nios2eds/bin/gnu/H-x86_64-pc-linux-gnu/bin/../lib/gcc/nios2-elf/5.3.0/../../../../../H-x86_64-pc-linux-gnu/nios2-elf/lib/pg/libc.a(lib_a-vfprintf.o)
 .text.___vfprintf_internal_r
                0x000000000802766c     0x2204 /package/eda/altera/altera17.0/nios2eds/bin/gnu/H-x86_64-pc-linux-gnu/bin/../lib/gcc/nios2-elf/5.3.0/../../../../../H-x86_64-pc-linux-gnu/nios2-elf/lib/pg/libc.a(lib_a-vfprintf.o)
                0x000000000802766c                ___vfprintf_internal_r
 .text.__vfprintf_internal
                0x0000000008029870       0x28 /package/eda/altera/altera17.0/nios2eds/bin/gnu/H-x86_64-pc-linux-gnu/bin/../lib/gcc/nios2-elf/5.3.0/../../../../../H-x86_64-pc-linux-gnu/nios2-elf/lib/pg/libc.a(lib_a-vfprintf.o)
                0x0000000008029870                __vfprintf_internal
 .text.__sbprintf
                0x0000000008029898       0xc8 /package/eda/altera/altera17.0/nios2eds/bin/gnu/H-x86_64-pc-linux-gnu/bin/../lib/gcc/nios2-elf/5.3.0/../../../../../H-x86_64-pc-linux-gnu/nios2-elf/lib/pg/libc.a(lib_a-vfprintf.o)
 .text          0x0000000008029960        0x0 /package/eda/altera/altera17.0/nios2eds/bin/gnu/H-x86_64-pc-linux-gnu/bin/../lib/gcc/nios2-elf/5.3.0/../../../../../H-x86_64-pc-linux-gnu/nios2-elf/lib/pg/libc.a(lib_a-wbuf.o)
 .text.__swbuf_r
                0x0000000008029960      0x14c /package/eda/altera/altera17.0/nios2eds/bin/gnu/H-x86_64-pc-linux-gnu/bin/../lib/gcc/nios2-elf/5.3.0/../../../../../H-x86_64-pc-linux-gnu/nios2-elf/lib/pg/libc.a(lib_a-wbuf.o)
                0x0000000008029960                __swbuf_r
 .text.__swbuf  0x0000000008029aac       0x24 /package/eda/altera/altera17.0/nios2eds/bin/gnu/H-x86_64-pc-linux-gnu/bin/../lib/gcc/nios2-elf/5.3.0/../../../../../H-x86_64-pc-linux-gnu/nios2-elf/lib/pg/libc.a(lib_a-wbuf.o)
                0x0000000008029aac                __swbuf
 .text          0x0000000008029ad0        0x0 /package/eda/altera/altera17.0/nios2eds/bin/gnu/H-x86_64-pc-linux-gnu/bin/../lib/gcc/nios2-elf/5.3.0/../../../../../H-x86_64-pc-linux-gnu/nios2-elf/lib/pg/libc.a(lib_a-writer.o)
 .text._write_r
                0x0000000008029ad0       0x6c /package/eda/altera/altera17.0/nios2eds/bin/gnu/H-x86_64-pc-linux-gnu/bin/../lib/gcc/nios2-elf/5.3.0/../../../../../H-x86_64-pc-linux-gnu/nios2-elf/lib/pg/libc.a(lib_a-writer.o)
                0x0000000008029ad0                _write_r
 .text          0x0000000008029b3c        0x0 /package/eda/altera/altera17.0/nios2eds/bin/gnu/H-x86_64-pc-linux-gnu/bin/../lib/gcc/nios2-elf/5.3.0/../../../../../H-x86_64-pc-linux-gnu/nios2-elf/lib/pg/libc.a(lib_a-wsetup.o)
 .text.__swsetup_r
                0x0000000008029b3c      0x160 /package/eda/altera/altera17.0/nios2eds/bin/gnu/H-x86_64-pc-linux-gnu/bin/../lib/gcc/nios2-elf/5.3.0/../../../../../H-x86_64-pc-linux-gnu/nios2-elf/lib/pg/libc.a(lib_a-wsetup.o)
                0x0000000008029b3c                __swsetup_r
 .text          0x0000000008029c9c        0x0 /package/eda/altera/altera17.0/nios2eds/bin/gnu/H-x86_64-pc-linux-gnu/bin/../lib/gcc/nios2-elf/5.3.0/../../../../../H-x86_64-pc-linux-gnu/nios2-elf/lib/pg/libc.a(closer.o)
 .text._close_r
                0x0000000008029c9c       0x60 /package/eda/altera/altera17.0/nios2eds/bin/gnu/H-x86_64-pc-linux-gnu/bin/../lib/gcc/nios2-elf/5.3.0/../../../../../H-x86_64-pc-linux-gnu/nios2-elf/lib/pg/libc.a(closer.o)
                0x0000000008029c9c                _close_r
 .text          0x0000000008029cfc        0x0 /package/eda/altera/altera17.0/nios2eds/bin/gnu/H-x86_64-pc-linux-gnu/bin/../lib/gcc/nios2-elf/5.3.0/../../../../../H-x86_64-pc-linux-gnu/nios2-elf/lib/pg/libc.a(lib_a-__call_atexit.o)
 .text.__call_exitprocs
                0x0000000008029cfc      0x18c /package/eda/altera/altera17.0/nios2eds/bin/gnu/H-x86_64-pc-linux-gnu/bin/../lib/gcc/nios2-elf/5.3.0/../../../../../H-x86_64-pc-linux-gnu/nios2-elf/lib/pg/libc.a(lib_a-__call_atexit.o)
                0x0000000008029cfc                __call_exitprocs
 .text          0x0000000008029e88        0x0 /package/eda/altera/altera17.0/nios2eds/bin/gnu/H-x86_64-pc-linux-gnu/bin/../lib/gcc/nios2-elf/5.3.0/../../../../../H-x86_64-pc-linux-gnu/nios2-elf/lib/pg/libc.a(lib_a-dtoa.o)
 .text.quorem   0x0000000008029e88      0x20c /package/eda/altera/altera17.0/nios2eds/bin/gnu/H-x86_64-pc-linux-gnu/bin/../lib/gcc/nios2-elf/5.3.0/../../../../../H-x86_64-pc-linux-gnu/nios2-elf/lib/pg/libc.a(lib_a-dtoa.o)
 .text._dtoa_r  0x000000000802a094     0x1694 /package/eda/altera/altera17.0/nios2eds/bin/gnu/H-x86_64-pc-linux-gnu/bin/../lib/gcc/nios2-elf/5.3.0/../../../../../H-x86_64-pc-linux-gnu/nios2-elf/lib/pg/libc.a(lib_a-dtoa.o)
                0x000000000802a094                _dtoa_r
 .text          0x000000000802b728        0x0 /package/eda/altera/altera17.0/nios2eds/bin/gnu/H-x86_64-pc-linux-gnu/bin/../lib/gcc/nios2-elf/5.3.0/../../../../../H-x86_64-pc-linux-gnu/nios2-elf/lib/pg/libc.a(lib_a-flags.o)
 .text.__sflags
                0x000000000802b728       0xb8 /package/eda/altera/altera17.0/nios2eds/bin/gnu/H-x86_64-pc-linux-gnu/bin/../lib/gcc/nios2-elf/5.3.0/../../../../../H-x86_64-pc-linux-gnu/nios2-elf/lib/pg/libc.a(lib_a-flags.o)
                0x000000000802b728                __sflags
 .text          0x000000000802b7e0        0x0 /package/eda/altera/altera17.0/nios2eds/bin/gnu/H-x86_64-pc-linux-gnu/bin/../lib/gcc/nios2-elf/5.3.0/../../../../../H-x86_64-pc-linux-gnu/nios2-elf/lib/pg/libc.a(lib_a-gdtoa-gethex.o)
 .text.rshift   0x000000000802b7e0      0x10c /package/eda/altera/altera17.0/nios2eds/bin/gnu/H-x86_64-pc-linux-gnu/bin/../lib/gcc/nios2-elf/5.3.0/../../../../../H-x86_64-pc-linux-gnu/nios2-elf/lib/pg/libc.a(lib_a-gdtoa-gethex.o)
 .text.__gethex
                0x000000000802b8ec      0x83c /package/eda/altera/altera17.0/nios2eds/bin/gnu/H-x86_64-pc-linux-gnu/bin/../lib/gcc/nios2-elf/5.3.0/../../../../../H-x86_64-pc-linux-gnu/nios2-elf/lib/pg/libc.a(lib_a-gdtoa-gethex.o)
                0x000000000802b8ec                __gethex
 .text          0x000000000802c128        0x0 /package/eda/altera/altera17.0/nios2eds/bin/gnu/H-x86_64-pc-linux-gnu/bin/../lib/gcc/nios2-elf/5.3.0/../../../../../H-x86_64-pc-linux-gnu/nios2-elf/lib/pg/libc.a(lib_a-gdtoa-hexnan.o)
 .text.__hexnan
                0x000000000802c128      0x268 /package/eda/altera/altera17.0/nios2eds/bin/gnu/H-x86_64-pc-linux-gnu/bin/../lib/gcc/nios2-elf/5.3.0/../../../../../H-x86_64-pc-linux-gnu/nios2-elf/lib/pg/libc.a(lib_a-gdtoa-hexnan.o)
                0x000000000802c128                __hexnan
 .text          0x000000000802c390        0x0 /package/eda/altera/altera17.0/nios2eds/bin/gnu/H-x86_64-pc-linux-gnu/bin/../lib/gcc/nios2-elf/5.3.0/../../../../../H-x86_64-pc-linux-gnu/nios2-elf/lib/pg/libc.a(lib_a-isattyr.o)
 .text._isatty_r
                0x000000000802c390       0x60 /package/eda/altera/altera17.0/nios2eds/bin/gnu/H-x86_64-pc-linux-gnu/bin/../lib/gcc/nios2-elf/5.3.0/../../../../../H-x86_64-pc-linux-gnu/nios2-elf/lib/pg/libc.a(lib_a-isattyr.o)
                0x000000000802c390                _isatty_r
 .text          0x000000000802c3f0        0x0 /package/eda/altera/altera17.0/nios2eds/bin/gnu/H-x86_64-pc-linux-gnu/bin/../lib/gcc/nios2-elf/5.3.0/../../../../../H-x86_64-pc-linux-gnu/nios2-elf/lib/pg/libc.a(lib_a-locale.o)
 .text._setlocale_r
                0x000000000802c3f0       0x88 /package/eda/altera/altera17.0/nios2eds/bin/gnu/H-x86_64-pc-linux-gnu/bin/../lib/gcc/nios2-elf/5.3.0/../../../../../H-x86_64-pc-linux-gnu/nios2-elf/lib/pg/libc.a(lib_a-locale.o)
                0x000000000802c3f0                _setlocale_r
 .text.__locale_charset
                0x000000000802c478       0x18 /package/eda/altera/altera17.0/nios2eds/bin/gnu/H-x86_64-pc-linux-gnu/bin/../lib/gcc/nios2-elf/5.3.0/../../../../../H-x86_64-pc-linux-gnu/nios2-elf/lib/pg/libc.a(lib_a-locale.o)
                0x000000000802c478                __locale_charset
 .text.__locale_mb_cur_max
                0x000000000802c490       0x1c /package/eda/altera/altera17.0/nios2eds/bin/gnu/H-x86_64-pc-linux-gnu/bin/../lib/gcc/nios2-elf/5.3.0/../../../../../H-x86_64-pc-linux-gnu/nios2-elf/lib/pg/libc.a(lib_a-locale.o)
                0x000000000802c490                __locale_mb_cur_max
 .text.__locale_msgcharset
                0x000000000802c4ac       0x18 /package/eda/altera/altera17.0/nios2eds/bin/gnu/H-x86_64-pc-linux-gnu/bin/../lib/gcc/nios2-elf/5.3.0/../../../../../H-x86_64-pc-linux-gnu/nios2-elf/lib/pg/libc.a(lib_a-locale.o)
                0x000000000802c4ac                __locale_msgcharset
 .text.__locale_cjk_lang
                0x000000000802c4c4       0x14 /package/eda/altera/altera17.0/nios2eds/bin/gnu/H-x86_64-pc-linux-gnu/bin/../lib/gcc/nios2-elf/5.3.0/../../../../../H-x86_64-pc-linux-gnu/nios2-elf/lib/pg/libc.a(lib_a-locale.o)
                0x000000000802c4c4                __locale_cjk_lang
 .text._localeconv_r
                0x000000000802c4d8       0x18 /package/eda/altera/altera17.0/nios2eds/bin/gnu/H-x86_64-pc-linux-gnu/bin/../lib/gcc/nios2-elf/5.3.0/../../../../../H-x86_64-pc-linux-gnu/nios2-elf/lib/pg/libc.a(lib_a-locale.o)
                0x000000000802c4d8                _localeconv_r
 .text.setlocale
                0x000000000802c4f0       0x24 /package/eda/altera/altera17.0/nios2eds/bin/gnu/H-x86_64-pc-linux-gnu/bin/../lib/gcc/nios2-elf/5.3.0/../../../../../H-x86_64-pc-linux-gnu/nios2-elf/lib/pg/libc.a(lib_a-locale.o)
                0x000000000802c4f0                setlocale
 .text.localeconv
                0x000000000802c514       0x18 /package/eda/altera/altera17.0/nios2eds/bin/gnu/H-x86_64-pc-linux-gnu/bin/../lib/gcc/nios2-elf/5.3.0/../../../../../H-x86_64-pc-linux-gnu/nios2-elf/lib/pg/libc.a(lib_a-locale.o)
                0x000000000802c514                localeconv
 .text          0x000000000802c52c        0x0 /package/eda/altera/altera17.0/nios2eds/bin/gnu/H-x86_64-pc-linux-gnu/bin/../lib/gcc/nios2-elf/5.3.0/../../../../../H-x86_64-pc-linux-gnu/nios2-elf/lib/pg/libc.a(lib_a-lseekr.o)
 .text._lseek_r
                0x000000000802c52c       0x6c /package/eda/altera/altera17.0/nios2eds/bin/gnu/H-x86_64-pc-linux-gnu/bin/../lib/gcc/nios2-elf/5.3.0/../../../../../H-x86_64-pc-linux-gnu/nios2-elf/lib/pg/libc.a(lib_a-lseekr.o)
                0x000000000802c52c                _lseek_r
 .text          0x000000000802c598        0x0 /package/eda/altera/altera17.0/nios2eds/bin/gnu/H-x86_64-pc-linux-gnu/bin/../lib/gcc/nios2-elf/5.3.0/../../../../../H-x86_64-pc-linux-gnu/nios2-elf/lib/pg/libc.a(lib_a-mprec.o)
 .text._Balloc  0x000000000802c598       0xb4 /package/eda/altera/altera17.0/nios2eds/bin/gnu/H-x86_64-pc-linux-gnu/bin/../lib/gcc/nios2-elf/5.3.0/../../../../../H-x86_64-pc-linux-gnu/nios2-elf/lib/pg/libc.a(lib_a-mprec.o)
                0x000000000802c598                _Balloc
 .text._Bfree   0x000000000802c64c       0x34 /package/eda/altera/altera17.0/nios2eds/bin/gnu/H-x86_64-pc-linux-gnu/bin/../lib/gcc/nios2-elf/5.3.0/../../../../../H-x86_64-pc-linux-gnu/nios2-elf/lib/pg/libc.a(lib_a-mprec.o)
                0x000000000802c64c                _Bfree
 .text.__multadd
                0x000000000802c680      0x12c /package/eda/altera/altera17.0/nios2eds/bin/gnu/H-x86_64-pc-linux-gnu/bin/../lib/gcc/nios2-elf/5.3.0/../../../../../H-x86_64-pc-linux-gnu/nios2-elf/lib/pg/libc.a(lib_a-mprec.o)
                0x000000000802c680                __multadd
 .text.__s2b    0x000000000802c7ac      0x110 /package/eda/altera/altera17.0/nios2eds/bin/gnu/H-x86_64-pc-linux-gnu/bin/../lib/gcc/nios2-elf/5.3.0/../../../../../H-x86_64-pc-linux-gnu/nios2-elf/lib/pg/libc.a(lib_a-mprec.o)
                0x000000000802c7ac                __s2b
 .text.__hi0bits
                0x000000000802c8bc       0x74 /package/eda/altera/altera17.0/nios2eds/bin/gnu/H-x86_64-pc-linux-gnu/bin/../lib/gcc/nios2-elf/5.3.0/../../../../../H-x86_64-pc-linux-gnu/nios2-elf/lib/pg/libc.a(lib_a-mprec.o)
                0x000000000802c8bc                __hi0bits
 .text.__lo0bits
                0x000000000802c930       0xbc /package/eda/altera/altera17.0/nios2eds/bin/gnu/H-x86_64-pc-linux-gnu/bin/../lib/gcc/nios2-elf/5.3.0/../../../../../H-x86_64-pc-linux-gnu/nios2-elf/lib/pg/libc.a(lib_a-mprec.o)
                0x000000000802c930                __lo0bits
 .text.__i2b    0x000000000802c9ec       0x48 /package/eda/altera/altera17.0/nios2eds/bin/gnu/H-x86_64-pc-linux-gnu/bin/../lib/gcc/nios2-elf/5.3.0/../../../../../H-x86_64-pc-linux-gnu/nios2-elf/lib/pg/libc.a(lib_a-mprec.o)
                0x000000000802c9ec                __i2b
 .text.__multiply
                0x000000000802ca34      0x204 /package/eda/altera/altera17.0/nios2eds/bin/gnu/H-x86_64-pc-linux-gnu/bin/../lib/gcc/nios2-elf/5.3.0/../../../../../H-x86_64-pc-linux-gnu/nios2-elf/lib/pg/libc.a(lib_a-mprec.o)
                0x000000000802ca34                __multiply
 .text.__pow5mult
                0x000000000802cc38      0x14c /package/eda/altera/altera17.0/nios2eds/bin/gnu/H-x86_64-pc-linux-gnu/bin/../lib/gcc/nios2-elf/5.3.0/../../../../../H-x86_64-pc-linux-gnu/nios2-elf/lib/pg/libc.a(lib_a-mprec.o)
                0x000000000802cc38                __pow5mult
 .text.__lshift
                0x000000000802cd84      0x154 /package/eda/altera/altera17.0/nios2eds/bin/gnu/H-x86_64-pc-linux-gnu/bin/../lib/gcc/nios2-elf/5.3.0/../../../../../H-x86_64-pc-linux-gnu/nios2-elf/lib/pg/libc.a(lib_a-mprec.o)
                0x000000000802cd84                __lshift
 .text.__mcmp   0x000000000802ced8       0x6c /package/eda/altera/altera17.0/nios2eds/bin/gnu/H-x86_64-pc-linux-gnu/bin/../lib/gcc/nios2-elf/5.3.0/../../../../../H-x86_64-pc-linux-gnu/nios2-elf/lib/pg/libc.a(lib_a-mprec.o)
                0x000000000802ced8                __mcmp
 .text.__mdiff  0x000000000802cf44      0x208 /package/eda/altera/altera17.0/nios2eds/bin/gnu/H-x86_64-pc-linux-gnu/bin/../lib/gcc/nios2-elf/5.3.0/../../../../../H-x86_64-pc-linux-gnu/nios2-elf/lib/pg/libc.a(lib_a-mprec.o)
                0x000000000802cf44                __mdiff
 .text.__ulp    0x000000000802d14c       0x6c /package/eda/altera/altera17.0/nios2eds/bin/gnu/H-x86_64-pc-linux-gnu/bin/../lib/gcc/nios2-elf/5.3.0/../../../../../H-x86_64-pc-linux-gnu/nios2-elf/lib/pg/libc.a(lib_a-mprec.o)
                0x000000000802d14c                __ulp
 .text.__b2d    0x000000000802d1b8      0x118 /package/eda/altera/altera17.0/nios2eds/bin/gnu/H-x86_64-pc-linux-gnu/bin/../lib/gcc/nios2-elf/5.3.0/../../../../../H-x86_64-pc-linux-gnu/nios2-elf/lib/pg/libc.a(lib_a-mprec.o)
                0x000000000802d1b8                __b2d
 .text.__d2b    0x000000000802d2d0      0x158 /package/eda/altera/altera17.0/nios2eds/bin/gnu/H-x86_64-pc-linux-gnu/bin/../lib/gcc/nios2-elf/5.3.0/../../../../../H-x86_64-pc-linux-gnu/nios2-elf/lib/pg/libc.a(lib_a-mprec.o)
                0x000000000802d2d0                __d2b
 .text.__ratio  0x000000000802d428       0xb0 /package/eda/altera/altera17.0/nios2eds/bin/gnu/H-x86_64-pc-linux-gnu/bin/../lib/gcc/nios2-elf/5.3.0/../../../../../H-x86_64-pc-linux-gnu/nios2-elf/lib/pg/libc.a(lib_a-mprec.o)
                0x000000000802d428                __ratio
 .text._mprec_log10
                0x000000000802d4d8       0x80 /package/eda/altera/altera17.0/nios2eds/bin/gnu/H-x86_64-pc-linux-gnu/bin/../lib/gcc/nios2-elf/5.3.0/../../../../../H-x86_64-pc-linux-gnu/nios2-elf/lib/pg/libc.a(lib_a-mprec.o)
                0x000000000802d4d8                _mprec_log10
 .text.__copybits
                0x000000000802d558       0x84 /package/eda/altera/altera17.0/nios2eds/bin/gnu/H-x86_64-pc-linux-gnu/bin/../lib/gcc/nios2-elf/5.3.0/../../../../../H-x86_64-pc-linux-gnu/nios2-elf/lib/pg/libc.a(lib_a-mprec.o)
                0x000000000802d558                __copybits
 .text.__any_on
                0x000000000802d5dc       0x94 /package/eda/altera/altera17.0/nios2eds/bin/gnu/H-x86_64-pc-linux-gnu/bin/../lib/gcc/nios2-elf/5.3.0/../../../../../H-x86_64-pc-linux-gnu/nios2-elf/lib/pg/libc.a(lib_a-mprec.o)
                0x000000000802d5dc                __any_on
 .text          0x000000000802d670        0x0 /package/eda/altera/altera17.0/nios2eds/bin/gnu/H-x86_64-pc-linux-gnu/bin/../lib/gcc/nios2-elf/5.3.0/../../../../../H-x86_64-pc-linux-gnu/nios2-elf/lib/pg/libc.a(lib_a-readr.o)
 .text._read_r  0x000000000802d670       0x6c /package/eda/altera/altera17.0/nios2eds/bin/gnu/H-x86_64-pc-linux-gnu/bin/../lib/gcc/nios2-elf/5.3.0/../../../../../H-x86_64-pc-linux-gnu/nios2-elf/lib/pg/libc.a(lib_a-readr.o)
                0x000000000802d670                _read_r
 .text          0x000000000802d6dc        0x0 /package/eda/altera/altera17.0/nios2eds/bin/gnu/H-x86_64-pc-linux-gnu/bin/../lib/gcc/nios2-elf/5.3.0/../../../../../H-x86_64-pc-linux-gnu/nios2-elf/lib/pg/libc.a(lib_a-vfiprintf.o)
 .text.__sprint_r.part.0
                0x000000000802d6dc      0x108 /package/eda/altera/altera17.0/nios2eds/bin/gnu/H-x86_64-pc-linux-gnu/bin/../lib/gcc/nios2-elf/5.3.0/../../../../../H-x86_64-pc-linux-gnu/nios2-elf/lib/pg/libc.a(lib_a-vfiprintf.o)
 .text.__sprint_r
                0x000000000802d7e4       0x24 /package/eda/altera/altera17.0/nios2eds/bin/gnu/H-x86_64-pc-linux-gnu/bin/../lib/gcc/nios2-elf/5.3.0/../../../../../H-x86_64-pc-linux-gnu/nios2-elf/lib/pg/libc.a(lib_a-vfiprintf.o)
                0x000000000802d7e4                __sprint_r
 .text.___vfiprintf_internal_r
                0x000000000802d808     0x1468 /package/eda/altera/altera17.0/nios2eds/bin/gnu/H-x86_64-pc-linux-gnu/bin/../lib/gcc/nios2-elf/5.3.0/../../../../../H-x86_64-pc-linux-gnu/nios2-elf/lib/pg/libc.a(lib_a-vfiprintf.o)
                0x000000000802d808                ___vfiprintf_internal_r
 .text.__vfiprintf_internal
                0x000000000802ec70       0x28 /package/eda/altera/altera17.0/nios2eds/bin/gnu/H-x86_64-pc-linux-gnu/bin/../lib/gcc/nios2-elf/5.3.0/../../../../../H-x86_64-pc-linux-gnu/nios2-elf/lib/pg/libc.a(lib_a-vfiprintf.o)
                0x000000000802ec70                __vfiprintf_internal
 .text.__sbprintf
                0x000000000802ec98       0xc8 /package/eda/altera/altera17.0/nios2eds/bin/gnu/H-x86_64-pc-linux-gnu/bin/../lib/gcc/nios2-elf/5.3.0/../../../../../H-x86_64-pc-linux-gnu/nios2-elf/lib/pg/libc.a(lib_a-vfiprintf.o)
 .text          0x000000000802ed60        0x0 /package/eda/altera/altera17.0/nios2eds/bin/gnu/H-x86_64-pc-linux-gnu/bin/../lib/gcc/nios2-elf/5.3.0/../../../../../H-x86_64-pc-linux-gnu/nios2-elf/lib/pg/libc.a(lib_a-fputwc.o)
 .text.__fputwc
                0x000000000802ed60      0x170 /package/eda/altera/altera17.0/nios2eds/bin/gnu/H-x86_64-pc-linux-gnu/bin/../lib/gcc/nios2-elf/5.3.0/../../../../../H-x86_64-pc-linux-gnu/nios2-elf/lib/pg/libc.a(lib_a-fputwc.o)
                0x000000000802ed60                __fputwc
 .text._fputwc_r
                0x000000000802eed0       0x30 /package/eda/altera/altera17.0/nios2eds/bin/gnu/H-x86_64-pc-linux-gnu/bin/../lib/gcc/nios2-elf/5.3.0/../../../../../H-x86_64-pc-linux-gnu/nios2-elf/lib/pg/libc.a(lib_a-fputwc.o)
                0x000000000802eed0                _fputwc_r
 .text.fputwc   0x000000000802ef00       0x8c /package/eda/altera/altera17.0/nios2eds/bin/gnu/H-x86_64-pc-linux-gnu/bin/../lib/gcc/nios2-elf/5.3.0/../../../../../H-x86_64-pc-linux-gnu/nios2-elf/lib/pg/libc.a(lib_a-fputwc.o)
                0x000000000802ef00                fputwc
 .text          0x000000000802ef8c        0x0 /package/eda/altera/altera17.0/nios2eds/bin/gnu/H-x86_64-pc-linux-gnu/bin/../lib/gcc/nios2-elf/5.3.0/../../../../../H-x86_64-pc-linux-gnu/nios2-elf/lib/pg/libc.a(lib_a-wcrtomb.o)
 .text._wcrtomb_r
                0x000000000802ef8c       0xa8 /package/eda/altera/altera17.0/nios2eds/bin/gnu/H-x86_64-pc-linux-gnu/bin/../lib/gcc/nios2-elf/5.3.0/../../../../../H-x86_64-pc-linux-gnu/nios2-elf/lib/pg/libc.a(lib_a-wcrtomb.o)
                0x000000000802ef8c                _wcrtomb_r
 .text.wcrtomb  0x000000000802f034       0xcc /package/eda/altera/altera17.0/nios2eds/bin/gnu/H-x86_64-pc-linux-gnu/bin/../lib/gcc/nios2-elf/5.3.0/../../../../../H-x86_64-pc-linux-gnu/nios2-elf/lib/pg/libc.a(lib_a-wcrtomb.o)
                0x000000000802f034                wcrtomb
 .text          0x000000000802f100        0x0 /package/eda/altera/altera17.0/nios2eds/bin/gnu/H-x86_64-pc-linux-gnu/bin/../lib/gcc/nios2-elf/5.3.0/../../../../../H-x86_64-pc-linux-gnu/nios2-elf/lib/pg/libc.a(lib_a-wctomb_r.o)
 .text.__ascii_wctomb
                0x000000000802f100       0x3c /package/eda/altera/altera17.0/nios2eds/bin/gnu/H-x86_64-pc-linux-gnu/bin/../lib/gcc/nios2-elf/5.3.0/../../../../../H-x86_64-pc-linux-gnu/nios2-elf/lib/pg/libc.a(lib_a-wctomb_r.o)
                0x000000000802f100                __ascii_wctomb
 .text._wctomb_r
                0x000000000802f13c       0x68 /package/eda/altera/altera17.0/nios2eds/bin/gnu/H-x86_64-pc-linux-gnu/bin/../lib/gcc/nios2-elf/5.3.0/../../../../../H-x86_64-pc-linux-gnu/nios2-elf/lib/pg/libc.a(lib_a-wctomb_r.o)
                0x000000000802f13c                _wctomb_r
 .text          0x000000000802f1a4       0x80 /package/eda/altera/altera17.0/nios2eds/bin/gnu/H-x86_64-pc-linux-gnu/bin/../lib/gcc/nios2-elf/5.3.0/pg/libgcc.a(_fixunsdfsi.o)
                0x000000000802f1a4                __fixunsdfsi
 .text          0x000000000802f224      0x584 /package/eda/altera/altera17.0/nios2eds/bin/gnu/H-x86_64-pc-linux-gnu/bin/../lib/gcc/nios2-elf/5.3.0/pg/libgcc.a(_udivdi3.o)
                0x000000000802f224                __udivdi3
 .text          0x000000000802f7a8      0x544 /package/eda/altera/altera17.0/nios2eds/bin/gnu/H-x86_64-pc-linux-gnu/bin/../lib/gcc/nios2-elf/5.3.0/pg/libgcc.a(_umoddi3.o)
                0x000000000802f7a8                __umoddi3
 .text          0x000000000802fcec       0xb4 /package/eda/altera/altera17.0/nios2eds/bin/gnu/H-x86_64-pc-linux-gnu/bin/../lib/gcc/nios2-elf/5.3.0/pg/libgcc.a(floatunsidf.o)
                0x000000000802fcec                __floatunsidf
 .text          0x000000000802fda0       0xc8 ../MNIST_CNN_Software_bsp//libhal_bsp.a(alt_close.o)
                0x000000000802fda0                close
 .text          0x000000000802fe68       0x14 ../MNIST_CNN_Software_bsp//libhal_bsp.a(alt_dev.o)
 .text          0x000000000802fe7c        0x0 ../MNIST_CNN_Software_bsp//libhal_bsp.a(alt_errno.o)
 .text          0x000000000802fe7c       0x44 ../MNIST_CNN_Software_bsp//libhal_bsp.a(alt_exit.o)
                0x000000000802fe7c                _exit
 .text          0x000000000802fec0       0x84 ../MNIST_CNN_Software_bsp//libhal_bsp.a(alt_fstat.o)
                0x000000000802fec0                fstat
 .text          0x000000000802ff44       0x14 ../MNIST_CNN_Software_bsp//libhal_bsp.a(alt_getpid.o)
                0x000000000802ff44                getpid
 .text          0x000000000802ff58      0x1f0 ../MNIST_CNN_Software_bsp//libhal_bsp.a(alt_gmon.o)
                0x000000000802ffa0                __mcount_record
 .text          0x0000000008030148       0x90 ../MNIST_CNN_Software_bsp//libhal_bsp.a(alt_isatty.o)
                0x0000000008030148                isatty
 .text          0x00000000080301d8      0x104 ../MNIST_CNN_Software_bsp//libhal_bsp.a(alt_kill.o)
                0x00000000080301d8                kill
 .text          0x00000000080302dc       0xd8 ../MNIST_CNN_Software_bsp//libhal_bsp.a(alt_load.o)
                0x00000000080302dc                alt_load
 .text          0x00000000080303b4       0x88 ../MNIST_CNN_Software_bsp//libhal_bsp.a(alt_lseek.o)
                0x00000000080303b4                lseek
 .text          0x000000000803043c       0x6c ../MNIST_CNN_Software_bsp//libhal_bsp.a(alt_main.o)
                0x000000000803043c                alt_main
 .text          0x00000000080304a8       0x20 ../MNIST_CNN_Software_bsp//libhal_bsp.a(alt_malloc_lock.o)
                0x00000000080304a8                __malloc_lock
                0x00000000080304b8                __malloc_unlock
 .text          0x00000000080304c8       0x9c ../MNIST_CNN_Software_bsp//libhal_bsp.a(alt_mcount.o)
                0x00000000080304c8                mcount
                0x00000000080304c8                _mcount
 .text          0x0000000008030564      0x184 ../MNIST_CNN_Software_bsp//libhal_bsp.a(alt_open.o)
                0x0000000008030564                open
 .text          0x00000000080306e8       0xd4 ../MNIST_CNN_Software_bsp//libhal_bsp.a(alt_read.o)
                0x00000000080306e8                read
 .text          0x00000000080307bc       0x30 ../MNIST_CNN_Software_bsp//libhal_bsp.a(alt_release_fd.o)
                0x00000000080307bc                alt_release_fd
 .text          0x00000000080307ec       0x4c ../MNIST_CNN_Software_bsp//libhal_bsp.a(alt_sbrk.o)
                0x00000000080307ec                sbrk
 .text          0x0000000008030838      0x140 ../MNIST_CNN_Software_bsp//libhal_bsp.a(alt_tick.o)
                0x0000000008030838                alt_alarm_stop
                0x0000000008030878                alt_tick
 .text          0x0000000008030978       0xd0 ../MNIST_CNN_Software_bsp//libhal_bsp.a(alt_write.o)
                0x0000000008030978                write
 .text          0x0000000008030a48      0x1f8 ../MNIST_CNN_Software_bsp//libhal_bsp.a(alt_sys_init.o)
                0x0000000008030a48                alt_irq_init
                0x0000000008030a74                alt_sys_init
 .text          0x0000000008030c40      0x670 ../MNIST_CNN_Software_bsp//libhal_bsp.a(altera_avalon_cfi_flash.o)
                0x0000000008030c40                alt_flash_cfi_init
                0x0000000008030cb0                alt_flash_cfi_write
                0x0000000008030eb8                alt_flash_cfi_get_info
                0x0000000008030efc                alt_flash_cfi_read
                0x0000000008030f34                alt_write_value_to_flash
                0x0000000008030fcc                alt_flash_program_block
 .text          0x00000000080312b0      0xdc8 ../MNIST_CNN_Software_bsp//libhal_bsp.a(altera_avalon_cfi_flash_table.o)
                0x00000000080312b0                alt_read_query_entry_8bit
                0x00000000080312cc                alt_read_query_entry_16bit
                0x00000000080312ec                alt_read_query_entry_32bit
                0x0000000008031310                alt_write_flash_command_8bit_device_8bit_mode
                0x0000000008031328                alt_write_flash_command_16bit_device_8bit_mode
                0x0000000008031354                alt_write_flash_command_32bit_device_8bit_mode
                0x0000000008031374                alt_write_native_8bit
                0x0000000008031388                alt_write_flash_command_16bit_device_16bit_mode
                0x00000000080313a8                alt_write_flash_command_32bit_device_16bit_mode
                0x00000000080313cc                alt_write_native_16bit
                0x00000000080313e0                alt_write_flash_command_32bit_device_32bit_mode
                0x0000000008031404                alt_write_native_32bit
                0x0000000008031418                alt_set_flash_width_func
                0x0000000008031538                alt_set_flash_algorithm_func
                0x00000000080315a8                alt_read_cfi_table
                0x0000000008031bec                alt_read_cfi_width
                0x0000000008031fa8                alt_check_primary_table
 .text          0x0000000008032078       0x6c ../MNIST_CNN_Software_bsp//libhal_bsp.a(altera_avalon_jtag_uart_fd.o)
                0x0000000008032078                altera_avalon_jtag_uart_read_fd
                0x0000000008032094                altera_avalon_jtag_uart_write_fd
                0x00000000080320b0                altera_avalon_jtag_uart_close_fd
                0x00000000080320cc                altera_avalon_jtag_uart_ioctl_fd
 .text          0x00000000080320e4      0x248 ../MNIST_CNN_Software_bsp//libhal_bsp.a(altera_avalon_jtag_uart_init.o)
                0x0000000008032250                altera_avalon_jtag_uart_init
                0x00000000080322d4                altera_avalon_jtag_uart_close
 .text          0x000000000803232c       0x80 ../MNIST_CNN_Software_bsp//libhal_bsp.a(altera_avalon_jtag_uart_ioctl.o)
                0x000000000803232c                altera_avalon_jtag_uart_ioctl
 .text          0x00000000080323ac      0x160 ../MNIST_CNN_Software_bsp//libhal_bsp.a(altera_avalon_jtag_uart_read.o)
                0x00000000080323ac                altera_avalon_jtag_uart_read
 .text          0x000000000803250c      0x1ac ../MNIST_CNN_Software_bsp//libhal_bsp.a(altera_avalon_jtag_uart_write.o)
                0x000000000803250c                altera_avalon_jtag_uart_write
 .text          0x00000000080326b8       0x9c ../MNIST_CNN_Software_bsp//libhal_bsp.a(altera_avalon_timer_sc.o)
                0x0000000008032700                alt_avalon_timer_sc_init
 .text          0x0000000008032754      0x818 ../MNIST_CNN_Software_bsp//libhal_bsp.a(altera_ro_zipfs.o)
                0x0000000008032894                check_directory_header
                0x00000000080329cc                alt_ro_zipfs_open
                0x0000000008032b9c                alt_ro_zipfs_read
                0x0000000008032c50                alt_ro_zipfs_seek
                0x0000000008032d28                alt_ro_zipfs_fstat
                0x0000000008032d88                alt_ro_zipfs_check_valid
 .text          0x0000000008032f6c      0x188 ../MNIST_CNN_Software_bsp//libhal_bsp.a(altera_up_avalon_video_character_buffer_with_dma.o)
                0x0000000008032f6c                alt_up_char_buffer_init
                0x0000000008032fc8                alt_up_char_buffer_open_dev
                0x0000000008032fdc                alt_up_char_buffer_draw
                0x0000000008033038                alt_up_char_buffer_string
                0x00000000080330c4                alt_up_char_buffer_clear
 .text          0x00000000080330f4     0x1010 ../MNIST_CNN_Software_bsp//libhal_bsp.a(altera_up_avalon_video_pixel_buffer_dma.o)
                0x00000000080330f4                alt_up_pixel_buffer_dma_open_dev
                0x0000000008033108                alt_up_pixel_buffer_dma_draw
                0x00000000080331cc                alt_up_pixel_buffer_dma_change_back_buffer_address
                0x00000000080331f4                alt_up_pixel_buffer_dma_swap_buffers
                0x0000000008033224                alt_up_pixel_buffer_dma_check_swap_buffers_status
                0x0000000008033240                alt_up_pixel_buffer_dma_clear_screen
                0x00000000080332e0                alt_up_pixel_buffer_dma_draw_box
                0x00000000080334e8                alt_up_pixel_buffer_dma_draw_hline
                0x0000000008033668                alt_up_pixel_buffer_dma_draw_vline
                0x00000000080337f0                alt_up_pixel_buffer_dma_draw_rectangle
                0x0000000008033e24                helper_plot_pixel
                0x0000000008033e88                alt_up_pixel_buffer_dma_draw_line
 .text          0x0000000008034104       0x8c ../MNIST_CNN_Software_bsp//libhal_bsp.a(alt_alarm_start.o)
                0x0000000008034104                alt_alarm_start
 .text          0x0000000008034190       0x4c ../MNIST_CNN_Software_bsp//libhal_bsp.a(alt_dcache_flush.o)
                0x0000000008034190                alt_dcache_flush
 .text          0x00000000080341dc       0x24 ../MNIST_CNN_Software_bsp//libhal_bsp.a(alt_dcache_flush_all.o)
                0x00000000080341dc                alt_dcache_flush_all
 .text          0x0000000008034200       0x78 ../MNIST_CNN_Software_bsp//libhal_bsp.a(alt_dev_llist_insert.o)
                0x0000000008034200                alt_dev_llist_insert
 .text          0x0000000008034278       0x70 ../MNIST_CNN_Software_bsp//libhal_bsp.a(alt_do_ctors.o)
                0x0000000008034278                _do_ctors
 .text          0x00000000080342e8       0x70 ../MNIST_CNN_Software_bsp//libhal_bsp.a(alt_do_dtors.o)
                0x00000000080342e8                _do_dtors
 .text          0x0000000008034358       0x84 ../MNIST_CNN_Software_bsp//libhal_bsp.a(alt_find_dev.o)
                0x0000000008034358                alt_find_dev
 .text          0x00000000080343dc       0xb8 ../MNIST_CNN_Software_bsp//libhal_bsp.a(alt_find_file.o)
                0x00000000080343dc                alt_find_file
 .text          0x0000000008034494       0x7c ../MNIST_CNN_Software_bsp//libhal_bsp.a(alt_flash_dev.o)
                0x0000000008034494                alt_flash_open_dev
                0x00000000080344f0                alt_flash_close_dev
 .text          0x0000000008034510       0x40 ../MNIST_CNN_Software_bsp//libhal_bsp.a(alt_fs_reg.o)
                0x0000000008034510                alt_fs_reg
 .text          0x0000000008034550       0x5c ../MNIST_CNN_Software_bsp//libhal_bsp.a(alt_get_fd.o)
                0x0000000008034550                alt_get_fd
 .text          0x00000000080345ac       0x18 ../MNIST_CNN_Software_bsp//libhal_bsp.a(alt_icache_flush_all.o)
                0x00000000080345ac                alt_icache_flush_all
 .text          0x00000000080345c4       0xbc ../MNIST_CNN_Software_bsp//libhal_bsp.a(alt_iic.o)
                0x00000000080345c4                alt_ic_isr_register
                0x00000000080345d4                alt_ic_irq_enable
                0x0000000008034618                alt_ic_irq_disable
                0x000000000803465c                alt_ic_irq_enabled
 .text          0x0000000008034680       0x74 ../MNIST_CNN_Software_bsp//libhal_bsp.a(alt_iic_isr_register.o)
                0x0000000008034680                alt_iic_isr_register
 .text          0x00000000080346f4      0x110 ../MNIST_CNN_Software_bsp//libhal_bsp.a(alt_io_redirect.o)
                0x00000000080346f4                alt_io_redirect
 .text          0x0000000008034804        0x0 ../MNIST_CNN_Software_bsp//libhal_bsp.a(alt_irq_entry.o)
 .text          0x0000000008034804        0x0 ../MNIST_CNN_Software_bsp//libhal_bsp.a(alt_irq_handler.o)
 .text          0x0000000008034804        0x0 ../MNIST_CNN_Software_bsp//libhal_bsp.a(alt_irq_vars.o)
 .text          0x0000000008034804       0x14 ../MNIST_CNN_Software_bsp//libhal_bsp.a(altera_nios2_qsys_irq.o)
                0x0000000008034804                altera_nios2_qsys_irq_init
 .text          0x0000000008034818      0x2f8 ../MNIST_CNN_Software_bsp//libhal_bsp.a(altera_avalon_cfi_flash_amd.o)
                0x0000000008034970                alt_program_amd
                0x000000000803499c                alt_erase_block_amd
 .text          0x0000000008034b10      0x3f8 ../MNIST_CNN_Software_bsp//libhal_bsp.a(altera_avalon_cfi_flash_intel.o)
                0x0000000008034bc0                alt_program_intel
                0x0000000008034d40                alt_erase_block_intel
 .text          0x0000000008034f08        0x0 ../MNIST_CNN_Software_bsp//libhal_bsp.a(alt_exception_entry.o)
 .text          0x0000000008034f08       0x5c ../MNIST_CNN_Software_bsp//libhal_bsp.a(alt_icache_flush.o)
                0x0000000008034f08                alt_icache_flush
 .text          0x0000000008034f64       0x10 ../MNIST_CNN_Software_bsp//libhal_bsp.a(alt_usleep.o)
                0x0000000008034f64                usleep
 .text          0x0000000008034f74       0x84 ../MNIST_CNN_Software_bsp//libhal_bsp.a(alt_busy_sleep.o)
                0x0000000008034f74                alt_busy_sleep
 .text          0x0000000008034ff8        0x0 /package/eda/altera/altera17.0/nios2eds/bin/gnu/H-x86_64-pc-linux-gnu/bin/../lib/gcc/nios2-elf/5.3.0/../../../../../H-x86_64-pc-linux-gnu/nios2-elf/lib/pg/libc.a(lib_a-atexit.o)
 .text.atexit   0x0000000008034ff8       0x20 /package/eda/altera/altera17.0/nios2eds/bin/gnu/H-x86_64-pc-linux-gnu/bin/../lib/gcc/nios2-elf/5.3.0/../../../../../H-x86_64-pc-linux-gnu/nios2-elf/lib/pg/libc.a(lib_a-atexit.o)
                0x0000000008034ff8                atexit
 .text          0x0000000008035018        0x0 /package/eda/altera/altera17.0/nios2eds/bin/gnu/H-x86_64-pc-linux-gnu/bin/../lib/gcc/nios2-elf/5.3.0/../../../../../H-x86_64-pc-linux-gnu/nios2-elf/lib/pg/libc.a(lib_a-memcmp.o)
 .text.memcmp   0x0000000008035018       0x88 /package/eda/altera/altera17.0/nios2eds/bin/gnu/H-x86_64-pc-linux-gnu/bin/../lib/gcc/nios2-elf/5.3.0/../../../../../H-x86_64-pc-linux-gnu/nios2-elf/lib/pg/libc.a(lib_a-memcmp.o)
                0x0000000008035018                memcmp
 .text          0x00000000080350a0        0x0 /package/eda/altera/altera17.0/nios2eds/bin/gnu/H-x86_64-pc-linux-gnu/bin/../lib/gcc/nios2-elf/5.3.0/../../../../../H-x86_64-pc-linux-gnu/nios2-elf/lib/pg/libc.a(lib_a-__atexit.o)
 .text.__register_exitproc
                0x00000000080350a0      0x124 /package/eda/altera/altera17.0/nios2eds/bin/gnu/H-x86_64-pc-linux-gnu/bin/../lib/gcc/nios2-elf/5.3.0/../../../../../H-x86_64-pc-linux-gnu/nios2-elf/lib/pg/libc.a(lib_a-__atexit.o)
                0x00000000080350a0                __register_exitproc
 *(.gnu.warning.*)
 *(.fini)
                [!provide]                        PROVIDE (__etext, ABSOLUTE (.))
                [!provide]                        PROVIDE (_etext, ABSOLUTE (.))
                0x00000000080351c4                PROVIDE (etext, ABSOLUTE (.))
 *(.eh_frame_hdr)
                0x00000000080351c4                . = ALIGN (0x4)
                [!provide]                        PROVIDE (__preinit_array_start, ABSOLUTE (.))
 *(.preinit_array)
                [!provide]                        PROVIDE (__preinit_array_end, ABSOLUTE (.))
                [!provide]                        PROVIDE (__init_array_start, ABSOLUTE (.))
 *(.init_array)
                [!provide]                        PROVIDE (__init_array_end, ABSOLUTE (.))
                [!provide]                        PROVIDE (__fini_array_start, ABSOLUTE (.))
 *(.fini_array)
                [!provide]                        PROVIDE (__fini_array_end, ABSOLUTE (.))
 *(.eh_frame)
 *(.gcc_except_table .gcc_except_table.*)
 *(.dynamic)
                0x00000000080351c4                PROVIDE (__CTOR_LIST__, ABSOLUTE (.))
 *(.ctors)
 *(SORT(.ctors.*))
                0x00000000080351c4                PROVIDE (__CTOR_END__, ABSOLUTE (.))
                0x00000000080351c4                PROVIDE (__DTOR_LIST__, ABSOLUTE (.))
 *(.dtors)
 *(SORT(.dtors.*))
                0x00000000080351c4                PROVIDE (__DTOR_END__, ABSOLUTE (.))
 *(.jcr)
                0x00000000080351c4                . = ALIGN (0x4)

.rodata         0x00000000080351c4      0xf78
                0x00000000080351c4                PROVIDE (__ram_rodata_start, ABSOLUTE (.))
                0x00000000080351c4                . = ALIGN (0x4)
 *(.rodata .rodata.* .gnu.linkonce.r.*)
 .rodata.str1.4
                0x00000000080351c4       0xfe obj/default/kann.o
 *fill*         0x00000000080352c2        0x2 
 .rodata        0x00000000080352c4       0x1f obj/default/kann.o
 *fill*         0x00000000080352e3        0x1 
 .rodata.str1.4
                0x00000000080352e4       0x1c obj/default/kann_data.o
                                         0x20 (size before relaxing)
 .rodata.str1.4
                0x0000000008035300      0x298 obj/default/kautodiff.o
                                        0x29c (size before relaxing)
 .rodata        0x0000000008035598       0xfa obj/default/kautodiff.o
 *fill*         0x0000000008035692        0x2 
 .rodata.str1.4
                0x0000000008035694      0x1a5 obj/default/mnist-cnn.o
 .rodata.str1.4
                0x0000000008035839      0x1a5 /package/eda/altera/altera17.0/nios2eds/bin/gnu/H-x86_64-pc-linux-gnu/bin/../lib/gcc/nios2-elf/5.3.0/../../../../../H-x86_64-pc-linux-gnu/nios2-elf/lib/pg/libm.a(lib_a-w_log.o)
                                          0x5 (size before relaxing)
 *fill*         0x0000000008035839        0x3 
 .rodata.str1.4
                0x000000000803583c        0x5 /package/eda/altera/altera17.0/nios2eds/bin/gnu/H-x86_64-pc-linux-gnu/bin/../lib/gcc/nios2-elf/5.3.0/../../../../../H-x86_64-pc-linux-gnu/nios2-elf/lib/pg/libm.a(lib_a-w_sqrt.o)
 *fill*         0x0000000008035841        0x3 
 .rodata.str1.4
                0x0000000008035844        0x5 /package/eda/altera/altera17.0/nios2eds/bin/gnu/H-x86_64-pc-linux-gnu/bin/../lib/gcc/nios2-elf/5.3.0/../../../../../H-x86_64-pc-linux-gnu/nios2-elf/lib/pg/libm.a(lib_a-wf_exp.o)
 *fill*         0x0000000008035849        0x3 
 .rodata.str1.4
                0x000000000803584c        0x5 /package/eda/altera/altera17.0/nios2eds/bin/gnu/H-x86_64-pc-linux-gnu/bin/../lib/gcc/nios2-elf/5.3.0/../../../../../H-x86_64-pc-linux-gnu/nios2-elf/lib/pg/libm.a(lib_a-wf_log.o)
                                          0x9 (size before relaxing)
 *fill*         0x0000000008035851        0x3 
 .rodata.str1.4
                0x0000000008035854        0x6 /package/eda/altera/altera17.0/nios2eds/bin/gnu/H-x86_64-pc-linux-gnu/bin/../lib/gcc/nios2-elf/5.3.0/../../../../../H-x86_64-pc-linux-gnu/nios2-elf/lib/pg/libm.a(lib_a-wf_sqrt.o)
 *fill*         0x000000000803585a        0x2 
 .rodata.npio2_hw
                0x000000000803585c       0x80 /package/eda/altera/altera17.0/nios2eds/bin/gnu/H-x86_64-pc-linux-gnu/bin/../lib/gcc/nios2-elf/5.3.0/../../../../../H-x86_64-pc-linux-gnu/nios2-elf/lib/pg/libm.a(lib_a-ef_rem_pio2.o)
 .rodata.two_over_pi
                0x00000000080358dc      0x318 /package/eda/altera/altera17.0/nios2eds/bin/gnu/H-x86_64-pc-linux-gnu/bin/../lib/gcc/nios2-elf/5.3.0/../../../../../H-x86_64-pc-linux-gnu/nios2-elf/lib/pg/libm.a(lib_a-ef_rem_pio2.o)
 .rodata.PIo2   0x0000000008035bf4       0x2c /package/eda/altera/altera17.0/nios2eds/bin/gnu/H-x86_64-pc-linux-gnu/bin/../lib/gcc/nios2-elf/5.3.0/../../../../../H-x86_64-pc-linux-gnu/nios2-elf/lib/pg/libm.a(lib_a-kf_rem_pio2.o)
 .rodata.init_jk
                0x0000000008035c20        0xc /package/eda/altera/altera17.0/nios2eds/bin/gnu/H-x86_64-pc-linux-gnu/bin/../lib/gcc/nios2-elf/5.3.0/../../../../../H-x86_64-pc-linux-gnu/nios2-elf/lib/pg/libm.a(lib_a-kf_rem_pio2.o)
 .rodata        0x0000000008035c2c      0x100 /package/eda/altera/altera17.0/nios2eds/bin/gnu/H-x86_64-pc-linux-gnu/bin/../lib/gcc/nios2-elf/5.3.0/pg/libgcc.a(_clz.o)
                0x0000000008035c2c                __clz_tab
 .rodata.str1.4
                0x0000000008035d2c       0x3f /package/eda/altera/altera17.0/nios2eds/bin/gnu/H-x86_64-pc-linux-gnu/bin/../lib/gcc/nios2-elf/5.3.0/../../../../../H-x86_64-pc-linux-gnu/nios2-elf/lib/pg/libc.a(lib_a-assert.o)
                                         0x43 (size before relaxing)
 *fill*         0x0000000008035d6b        0x1 
 .rodata.str1.4
                0x0000000008035d6c        0x2 /package/eda/altera/altera17.0/nios2eds/bin/gnu/H-x86_64-pc-linux-gnu/bin/../lib/gcc/nios2-elf/5.3.0/../../../../../H-x86_64-pc-linux-gnu/nios2-elf/lib/pg/libc.a(lib_a-impure.o)
 *fill*         0x0000000008035d6e        0x2 
 .rodata.str1.4
                0x0000000008035d70        0xa /package/eda/altera/altera17.0/nios2eds/bin/gnu/H-x86_64-pc-linux-gnu/bin/../lib/gcc/nios2-elf/5.3.0/../../../../../H-x86_64-pc-linux-gnu/nios2-elf/lib/pg/libc.a(lib_a-strtod.o)
                                          0xf (size before relaxing)
 *fill*         0x0000000008035d7a        0x2 
 .rodata.fpinan.2773
                0x0000000008035d7c       0x14 /package/eda/altera/altera17.0/nios2eds/bin/gnu/H-x86_64-pc-linux-gnu/bin/../lib/gcc/nios2-elf/5.3.0/../../../../../H-x86_64-pc-linux-gnu/nios2-elf/lib/pg/libc.a(lib_a-strtod.o)
 .rodata.fpi.2737
                0x0000000008035d90       0x14 /package/eda/altera/altera17.0/nios2eds/bin/gnu/H-x86_64-pc-linux-gnu/bin/../lib/gcc/nios2-elf/5.3.0/../../../../../H-x86_64-pc-linux-gnu/nios2-elf/lib/pg/libc.a(lib_a-strtod.o)
 .rodata.tinytens
                0x0000000008035da4       0x28 /package/eda/altera/altera17.0/nios2eds/bin/gnu/H-x86_64-pc-linux-gnu/bin/../lib/gcc/nios2-elf/5.3.0/../../../../../H-x86_64-pc-linux-gnu/nios2-elf/lib/pg/libc.a(lib_a-strtod.o)
 .rodata.str1.4
                0x0000000008035dcc       0x3f /package/eda/altera/altera17.0/nios2eds/bin/gnu/H-x86_64-pc-linux-gnu/bin/../lib/gcc/nios2-elf/5.3.0/../../../../../H-x86_64-pc-linux-gnu/nios2-elf/lib/pg/libc.a(lib_a-vfprintf.o)
                                         0x42 (size before relaxing)
 .rodata.zeroes.4404
                0x0000000008035e0b       0x10 /package/eda/altera/altera17.0/nios2eds/bin/gnu/H-x86_64-pc-linux-gnu/bin/../lib/gcc/nios2-elf/5.3.0/../../../../../H-x86_64-pc-linux-gnu/nios2-elf/lib/pg/libc.a(lib_a-vfprintf.o)
 .rodata.blanks.4403
                0x0000000008035e1b       0x10 /package/eda/altera/altera17.0/nios2eds/bin/gnu/H-x86_64-pc-linux-gnu/bin/../lib/gcc/nios2-elf/5.3.0/../../../../../H-x86_64-pc-linux-gnu/nios2-elf/lib/pg/libc.a(lib_a-vfprintf.o)
 *fill*         0x0000000008035e2b        0x1 
 .rodata.str1.4
                0x0000000008035e2c       0x10 /package/eda/altera/altera17.0/nios2eds/bin/gnu/H-x86_64-pc-linux-gnu/bin/../lib/gcc/nios2-elf/5.3.0/../../../../../H-x86_64-pc-linux-gnu/nios2-elf/lib/pg/libc.a(lib_a-dtoa.o)
                                         0x12 (size before relaxing)
 .rodata.__hexdig
                0x0000000008035e3c      0x100 /package/eda/altera/altera17.0/nios2eds/bin/gnu/H-x86_64-pc-linux-gnu/bin/../lib/gcc/nios2-elf/5.3.0/../../../../../H-x86_64-pc-linux-gnu/nios2-elf/lib/pg/libc.a(lib_a-gdtoa-gethex.o)
                0x0000000008035e3c                __hexdig
 .rodata.str1.4
                0x0000000008035f3c        0xa /package/eda/altera/altera17.0/nios2eds/bin/gnu/H-x86_64-pc-linux-gnu/bin/../lib/gcc/nios2-elf/5.3.0/../../../../../H-x86_64-pc-linux-gnu/nios2-elf/lib/pg/libc.a(lib_a-locale.o)
                                         0x12 (size before relaxing)
 *fill*         0x0000000008035f46        0x2 
 .rodata.p05.2768
                0x0000000008035f48        0xc /package/eda/altera/altera17.0/nios2eds/bin/gnu/H-x86_64-pc-linux-gnu/bin/../lib/gcc/nios2-elf/5.3.0/../../../../../H-x86_64-pc-linux-gnu/nios2-elf/lib/pg/libc.a(lib_a-mprec.o)
 .rodata.__mprec_tinytens
                0x0000000008035f54       0x28 /package/eda/altera/altera17.0/nios2eds/bin/gnu/H-x86_64-pc-linux-gnu/bin/../lib/gcc/nios2-elf/5.3.0/../../../../../H-x86_64-pc-linux-gnu/nios2-elf/lib/pg/libc.a(lib_a-mprec.o)
                0x0000000008035f54                __mprec_tinytens
 .rodata.__mprec_bigtens
                0x0000000008035f7c       0x28 /package/eda/altera/altera17.0/nios2eds/bin/gnu/H-x86_64-pc-linux-gnu/bin/../lib/gcc/nios2-elf/5.3.0/../../../../../H-x86_64-pc-linux-gnu/nios2-elf/lib/pg/libc.a(lib_a-mprec.o)
                0x0000000008035f7c                __mprec_bigtens
 .rodata.__mprec_tens
                0x0000000008035fa4       0xc8 /package/eda/altera/altera17.0/nios2eds/bin/gnu/H-x86_64-pc-linux-gnu/bin/../lib/gcc/nios2-elf/5.3.0/../../../../../H-x86_64-pc-linux-gnu/nios2-elf/lib/pg/libc.a(lib_a-mprec.o)
                0x0000000008035fa4                __mprec_tens
 .rodata.str1.4
                0x000000000803606c       0x2f /package/eda/altera/altera17.0/nios2eds/bin/gnu/H-x86_64-pc-linux-gnu/bin/../lib/gcc/nios2-elf/5.3.0/../../../../../H-x86_64-pc-linux-gnu/nios2-elf/lib/pg/libc.a(lib_a-vfiprintf.o)
 .rodata.zeroes.4349
                0x000000000803606c       0x10 /package/eda/altera/altera17.0/nios2eds/bin/gnu/H-x86_64-pc-linux-gnu/bin/../lib/gcc/nios2-elf/5.3.0/../../../../../H-x86_64-pc-linux-gnu/nios2-elf/lib/pg/libc.a(lib_a-vfiprintf.o)
 .rodata.blanks.4348
                0x000000000803607c       0x10 /package/eda/altera/altera17.0/nios2eds/bin/gnu/H-x86_64-pc-linux-gnu/bin/../lib/gcc/nios2-elf/5.3.0/../../../../../H-x86_64-pc-linux-gnu/nios2-elf/lib/pg/libc.a(lib_a-vfiprintf.o)
 .rodata.str1.4
                0x000000000803608c        0xa ../MNIST_CNN_Software_bsp//libhal_bsp.a(alt_dev.o)
 *fill*         0x0000000008036096        0x2 
 .rodata.str1.4
                0x0000000008036098       0x11 ../MNIST_CNN_Software_bsp//libhal_bsp.a(alt_main.o)
 *fill*         0x00000000080360a9        0x3 
 .rodata.str1.4
                0x00000000080360ac       0x73 ../MNIST_CNN_Software_bsp//libhal_bsp.a(alt_sys_init.o)
                                         0xa7 (size before relaxing)
 *fill*         0x000000000803611f        0x1 
 .rodata.str1.4
                0x0000000008036120       0x1c ../MNIST_CNN_Software_bsp//libhal_bsp.a(altera_up_avalon_video_character_buffer_with_dma.o)
                                         0x1a (size before relaxing)
 *(.rodata1)
                0x000000000803613c                . = ALIGN (0x4)
                0x000000000803613c                PROVIDE (__ram_rodata_end, ABSOLUTE (.))
                0x00000000080351c4                PROVIDE (__flash_rodata_start, LOADADDR (.rodata))

.rwdata         0x000000000803613c     0x200c load address 0x0000000008038148
                0x000000000803613c                PROVIDE (__ram_rwdata_start, ABSOLUTE (.))
                0x000000000803613c                . = ALIGN (0x4)
 *(.got.plt)
 *(.got)
 *(.data1)
 *(.data .data.* .gnu.linkonce.d.*)
 .data          0x000000000803613c        0x0 ../MNIST_CNN_Software_bsp//obj/HAL/src/crt0.o
 .data          0x000000000803613c        0x0 obj/default/kann.o
 .data          0x000000000803613c        0x0 obj/default/kann_data.o
 .data          0x000000000803613c      0x220 obj/default/kautodiff.o
                0x000000000803613c                kad_op_name
                0x000000000803623c                kad_op_list
 .data          0x000000000803635c        0x0 obj/default/mnist-cnn.o
 .data          0x000000000803635c        0x0 /package/eda/altera/altera17.0/nios2eds/bin/gnu/H-x86_64-pc-linux-gnu/bin/../lib/gcc/nios2-elf/5.3.0/../../../../../H-x86_64-pc-linux-gnu/nios2-elf/lib/pg/libm.a(lib_a-sf_cos.o)
 .data          0x000000000803635c        0x0 /package/eda/altera/altera17.0/nios2eds/bin/gnu/H-x86_64-pc-linux-gnu/bin/../lib/gcc/nios2-elf/5.3.0/../../../../../H-x86_64-pc-linux-gnu/nios2-elf/lib/pg/libm.a(lib_a-sf_sin.o)
 .data          0x000000000803635c        0x0 /package/eda/altera/altera17.0/nios2eds/bin/gnu/H-x86_64-pc-linux-gnu/bin/../lib/gcc/nios2-elf/5.3.0/../../../../../H-x86_64-pc-linux-gnu/nios2-elf/lib/pg/libm.a(lib_a-w_log.o)
 .data          0x000000000803635c        0x0 /package/eda/altera/altera17.0/nios2eds/bin/gnu/H-x86_64-pc-linux-gnu/bin/../lib/gcc/nios2-elf/5.3.0/../../../../../H-x86_64-pc-linux-gnu/nios2-elf/lib/pg/libm.a(lib_a-w_sqrt.o)
 .data          0x000000000803635c        0x0 /package/eda/altera/altera17.0/nios2eds/bin/gnu/H-x86_64-pc-linux-gnu/bin/../lib/gcc/nios2-elf/5.3.0/../../../../../H-x86_64-pc-linux-gnu/nios2-elf/lib/pg/libm.a(lib_a-wf_exp.o)
 .data          0x000000000803635c        0x0 /package/eda/altera/altera17.0/nios2eds/bin/gnu/H-x86_64-pc-linux-gnu/bin/../lib/gcc/nios2-elf/5.3.0/../../../../../H-x86_64-pc-linux-gnu/nios2-elf/lib/pg/libm.a(lib_a-wf_log.o)
 .data          0x000000000803635c        0x0 /package/eda/altera/altera17.0/nios2eds/bin/gnu/H-x86_64-pc-linux-gnu/bin/../lib/gcc/nios2-elf/5.3.0/../../../../../H-x86_64-pc-linux-gnu/nios2-elf/lib/pg/libm.a(lib_a-wf_sqrt.o)
 .data          0x000000000803635c        0x0 /package/eda/altera/altera17.0/nios2eds/bin/gnu/H-x86_64-pc-linux-gnu/bin/../lib/gcc/nios2-elf/5.3.0/../../../../../H-x86_64-pc-linux-gnu/nios2-elf/lib/pg/libm.a(lib_a-e_log.o)
 .data          0x000000000803635c        0x0 /package/eda/altera/altera17.0/nios2eds/bin/gnu/H-x86_64-pc-linux-gnu/bin/../lib/gcc/nios2-elf/5.3.0/../../../../../H-x86_64-pc-linux-gnu/nios2-elf/lib/pg/libm.a(lib_a-e_sqrt.o)
 .data          0x000000000803635c        0x0 /package/eda/altera/altera17.0/nios2eds/bin/gnu/H-x86_64-pc-linux-gnu/bin/../lib/gcc/nios2-elf/5.3.0/../../../../../H-x86_64-pc-linux-gnu/nios2-elf/lib/pg/libm.a(lib_a-ef_exp.o)
 .data          0x000000000803635c        0x0 /package/eda/altera/altera17.0/nios2eds/bin/gnu/H-x86_64-pc-linux-gnu/bin/../lib/gcc/nios2-elf/5.3.0/../../../../../H-x86_64-pc-linux-gnu/nios2-elf/lib/pg/libm.a(lib_a-ef_log.o)
 .data          0x000000000803635c        0x0 /package/eda/altera/altera17.0/nios2eds/bin/gnu/H-x86_64-pc-linux-gnu/bin/../lib/gcc/nios2-elf/5.3.0/../../../../../H-x86_64-pc-linux-gnu/nios2-elf/lib/pg/libm.a(lib_a-ef_rem_pio2.o)
 .data          0x000000000803635c        0x0 /package/eda/altera/altera17.0/nios2eds/bin/gnu/H-x86_64-pc-linux-gnu/bin/../lib/gcc/nios2-elf/5.3.0/../../../../../H-x86_64-pc-linux-gnu/nios2-elf/lib/pg/libm.a(lib_a-ef_sqrt.o)
 .data          0x000000000803635c        0x0 /package/eda/altera/altera17.0/nios2eds/bin/gnu/H-x86_64-pc-linux-gnu/bin/../lib/gcc/nios2-elf/5.3.0/../../../../../H-x86_64-pc-linux-gnu/nios2-elf/lib/pg/libm.a(lib_a-kf_cos.o)
 .data          0x000000000803635c        0x0 /package/eda/altera/altera17.0/nios2eds/bin/gnu/H-x86_64-pc-linux-gnu/bin/../lib/gcc/nios2-elf/5.3.0/../../../../../H-x86_64-pc-linux-gnu/nios2-elf/lib/pg/libm.a(lib_a-kf_rem_pio2.o)
 .data          0x000000000803635c        0x0 /package/eda/altera/altera17.0/nios2eds/bin/gnu/H-x86_64-pc-linux-gnu/bin/../lib/gcc/nios2-elf/5.3.0/../../../../../H-x86_64-pc-linux-gnu/nios2-elf/lib/pg/libm.a(lib_a-kf_sin.o)
 .data          0x000000000803635c        0x0 /package/eda/altera/altera17.0/nios2eds/bin/gnu/H-x86_64-pc-linux-gnu/bin/../lib/gcc/nios2-elf/5.3.0/../../../../../H-x86_64-pc-linux-gnu/nios2-elf/lib/pg/libm.a(lib_a-s_fpclassify.o)
 .data          0x000000000803635c        0x0 /package/eda/altera/altera17.0/nios2eds/bin/gnu/H-x86_64-pc-linux-gnu/bin/../lib/gcc/nios2-elf/5.3.0/../../../../../H-x86_64-pc-linux-gnu/nios2-elf/lib/pg/libm.a(lib_a-s_lib_ver.o)
 .data          0x000000000803635c        0x0 /package/eda/altera/altera17.0/nios2eds/bin/gnu/H-x86_64-pc-linux-gnu/bin/../lib/gcc/nios2-elf/5.3.0/../../../../../H-x86_64-pc-linux-gnu/nios2-elf/lib/pg/libm.a(lib_a-s_matherr.o)
 .data          0x000000000803635c        0x0 /package/eda/altera/altera17.0/nios2eds/bin/gnu/H-x86_64-pc-linux-gnu/bin/../lib/gcc/nios2-elf/5.3.0/../../../../../H-x86_64-pc-linux-gnu/nios2-elf/lib/pg/libm.a(lib_a-s_nan.o)
 .data          0x000000000803635c        0x0 /package/eda/altera/altera17.0/nios2eds/bin/gnu/H-x86_64-pc-linux-gnu/bin/../lib/gcc/nios2-elf/5.3.0/../../../../../H-x86_64-pc-linux-gnu/nios2-elf/lib/pg/libm.a(lib_a-sf_fabs.o)
 .data          0x000000000803635c        0x0 /package/eda/altera/altera17.0/nios2eds/bin/gnu/H-x86_64-pc-linux-gnu/bin/../lib/gcc/nios2-elf/5.3.0/../../../../../H-x86_64-pc-linux-gnu/nios2-elf/lib/pg/libm.a(lib_a-sf_finite.o)
 .data          0x000000000803635c        0x0 /package/eda/altera/altera17.0/nios2eds/bin/gnu/H-x86_64-pc-linux-gnu/bin/../lib/gcc/nios2-elf/5.3.0/../../../../../H-x86_64-pc-linux-gnu/nios2-elf/lib/pg/libm.a(lib_a-sf_floor.o)
 .data          0x000000000803635c        0x0 /package/eda/altera/altera17.0/nios2eds/bin/gnu/H-x86_64-pc-linux-gnu/bin/../lib/gcc/nios2-elf/5.3.0/../../../../../H-x86_64-pc-linux-gnu/nios2-elf/lib/pg/libm.a(lib_a-sf_fpclassify.o)
 .data          0x000000000803635c        0x0 /package/eda/altera/altera17.0/nios2eds/bin/gnu/H-x86_64-pc-linux-gnu/bin/../lib/gcc/nios2-elf/5.3.0/../../../../../H-x86_64-pc-linux-gnu/nios2-elf/lib/pg/libm.a(lib_a-sf_scalbn.o)
 .data          0x000000000803635c        0x0 /package/eda/altera/altera17.0/nios2eds/bin/gnu/H-x86_64-pc-linux-gnu/bin/../lib/gcc/nios2-elf/5.3.0/../../../../../H-x86_64-pc-linux-gnu/nios2-elf/lib/pg/libm.a(lib_a-sf_copysign.o)
 .data          0x000000000803635c        0x0 /package/eda/altera/altera17.0/nios2eds/bin/gnu/H-x86_64-pc-linux-gnu/bin/../lib/gcc/nios2-elf/5.3.0/pg/libgcc.a(_muldi3.o)
 .data          0x000000000803635c        0x0 /package/eda/altera/altera17.0/nios2eds/bin/gnu/H-x86_64-pc-linux-gnu/bin/../lib/gcc/nios2-elf/5.3.0/pg/libgcc.a(_fixunssfsi.o)
 .data          0x000000000803635c        0x0 /package/eda/altera/altera17.0/nios2eds/bin/gnu/H-x86_64-pc-linux-gnu/bin/../lib/gcc/nios2-elf/5.3.0/pg/libgcc.a(lib2-divmod.o)
 .data          0x000000000803635c      0x100 /package/eda/altera/altera17.0/nios2eds/bin/gnu/H-x86_64-pc-linux-gnu/bin/../lib/gcc/nios2-elf/5.3.0/pg/libgcc.a(lib2-divtable.o)
                0x000000000803635c                __divsi3_table
 .data          0x000000000803645c        0x0 /package/eda/altera/altera17.0/nios2eds/bin/gnu/H-x86_64-pc-linux-gnu/bin/../lib/gcc/nios2-elf/5.3.0/pg/libgcc.a(addsf3.o)
 .data          0x000000000803645c        0x0 /package/eda/altera/altera17.0/nios2eds/bin/gnu/H-x86_64-pc-linux-gnu/bin/../lib/gcc/nios2-elf/5.3.0/pg/libgcc.a(divsf3.o)
 .data          0x000000000803645c        0x0 /package/eda/altera/altera17.0/nios2eds/bin/gnu/H-x86_64-pc-linux-gnu/bin/../lib/gcc/nios2-elf/5.3.0/pg/libgcc.a(eqsf2.o)
 .data          0x000000000803645c        0x0 /package/eda/altera/altera17.0/nios2eds/bin/gnu/H-x86_64-pc-linux-gnu/bin/../lib/gcc/nios2-elf/5.3.0/pg/libgcc.a(gesf2.o)
 .data          0x000000000803645c        0x0 /package/eda/altera/altera17.0/nios2eds/bin/gnu/H-x86_64-pc-linux-gnu/bin/../lib/gcc/nios2-elf/5.3.0/pg/libgcc.a(lesf2.o)
 .data          0x000000000803645c        0x0 /package/eda/altera/altera17.0/nios2eds/bin/gnu/H-x86_64-pc-linux-gnu/bin/../lib/gcc/nios2-elf/5.3.0/pg/libgcc.a(mulsf3.o)
 .data          0x000000000803645c        0x0 /package/eda/altera/altera17.0/nios2eds/bin/gnu/H-x86_64-pc-linux-gnu/bin/../lib/gcc/nios2-elf/5.3.0/pg/libgcc.a(subsf3.o)
 .data          0x000000000803645c        0x0 /package/eda/altera/altera17.0/nios2eds/bin/gnu/H-x86_64-pc-linux-gnu/bin/../lib/gcc/nios2-elf/5.3.0/pg/libgcc.a(fixsfsi.o)
 .data          0x000000000803645c        0x0 /package/eda/altera/altera17.0/nios2eds/bin/gnu/H-x86_64-pc-linux-gnu/bin/../lib/gcc/nios2-elf/5.3.0/pg/libgcc.a(floatsisf.o)
 .data          0x000000000803645c        0x0 /package/eda/altera/altera17.0/nios2eds/bin/gnu/H-x86_64-pc-linux-gnu/bin/../lib/gcc/nios2-elf/5.3.0/pg/libgcc.a(adddf3.o)
 .data          0x000000000803645c        0x0 /package/eda/altera/altera17.0/nios2eds/bin/gnu/H-x86_64-pc-linux-gnu/bin/../lib/gcc/nios2-elf/5.3.0/pg/libgcc.a(divdf3.o)
 .data          0x000000000803645c        0x0 /package/eda/altera/altera17.0/nios2eds/bin/gnu/H-x86_64-pc-linux-gnu/bin/../lib/gcc/nios2-elf/5.3.0/pg/libgcc.a(eqdf2.o)
 .data          0x000000000803645c        0x0 /package/eda/altera/altera17.0/nios2eds/bin/gnu/H-x86_64-pc-linux-gnu/bin/../lib/gcc/nios2-elf/5.3.0/pg/libgcc.a(gedf2.o)
 .data          0x000000000803645c        0x0 /package/eda/altera/altera17.0/nios2eds/bin/gnu/H-x86_64-pc-linux-gnu/bin/../lib/gcc/nios2-elf/5.3.0/pg/libgcc.a(ledf2.o)
 .data          0x000000000803645c        0x0 /package/eda/altera/altera17.0/nios2eds/bin/gnu/H-x86_64-pc-linux-gnu/bin/../lib/gcc/nios2-elf/5.3.0/pg/libgcc.a(muldf3.o)
 .data          0x000000000803645c        0x0 /package/eda/altera/altera17.0/nios2eds/bin/gnu/H-x86_64-pc-linux-gnu/bin/../lib/gcc/nios2-elf/5.3.0/pg/libgcc.a(subdf3.o)
 .data          0x000000000803645c        0x0 /package/eda/altera/altera17.0/nios2eds/bin/gnu/H-x86_64-pc-linux-gnu/bin/../lib/gcc/nios2-elf/5.3.0/pg/libgcc.a(fixdfsi.o)
 .data          0x000000000803645c        0x0 /package/eda/altera/altera17.0/nios2eds/bin/gnu/H-x86_64-pc-linux-gnu/bin/../lib/gcc/nios2-elf/5.3.0/pg/libgcc.a(floatsidf.o)
 .data          0x000000000803645c        0x0 /package/eda/altera/altera17.0/nios2eds/bin/gnu/H-x86_64-pc-linux-gnu/bin/../lib/gcc/nios2-elf/5.3.0/pg/libgcc.a(extendsfdf2.o)
 .data          0x000000000803645c        0x0 /package/eda/altera/altera17.0/nios2eds/bin/gnu/H-x86_64-pc-linux-gnu/bin/../lib/gcc/nios2-elf/5.3.0/pg/libgcc.a(truncdfsf2.o)
 .data          0x000000000803645c        0x0 /package/eda/altera/altera17.0/nios2eds/bin/gnu/H-x86_64-pc-linux-gnu/bin/../lib/gcc/nios2-elf/5.3.0/pg/libgcc.a(_clzsi2.o)
 .data          0x000000000803645c        0x0 /package/eda/altera/altera17.0/nios2eds/bin/gnu/H-x86_64-pc-linux-gnu/bin/../lib/gcc/nios2-elf/5.3.0/pg/libgcc.a(_clz.o)
 .data          0x000000000803645c        0x0 /package/eda/altera/altera17.0/nios2eds/bin/gnu/H-x86_64-pc-linux-gnu/bin/../lib/gcc/nios2-elf/5.3.0/../../../../../H-x86_64-pc-linux-gnu/nios2-elf/lib/pg/libc.a(lib_a-abort.o)
 .data          0x000000000803645c        0x0 /package/eda/altera/altera17.0/nios2eds/bin/gnu/H-x86_64-pc-linux-gnu/bin/../lib/gcc/nios2-elf/5.3.0/../../../../../H-x86_64-pc-linux-gnu/nios2-elf/lib/pg/libc.a(lib_a-assert.o)
 .data          0x000000000803645c        0x0 /package/eda/altera/altera17.0/nios2eds/bin/gnu/H-x86_64-pc-linux-gnu/bin/../lib/gcc/nios2-elf/5.3.0/../../../../../H-x86_64-pc-linux-gnu/nios2-elf/lib/pg/libc.a(lib_a-calloc.o)
 .data          0x000000000803645c        0x0 /package/eda/altera/altera17.0/nios2eds/bin/gnu/H-x86_64-pc-linux-gnu/bin/../lib/gcc/nios2-elf/5.3.0/../../../../../H-x86_64-pc-linux-gnu/nios2-elf/lib/pg/libc.a(lib_a-callocr.o)
 .data          0x000000000803645c        0x0 /package/eda/altera/altera17.0/nios2eds/bin/gnu/H-x86_64-pc-linux-gnu/bin/../lib/gcc/nios2-elf/5.3.0/../../../../../H-x86_64-pc-linux-gnu/nios2-elf/lib/pg/libc.a(lib_a-errno.o)
 .data          0x000000000803645c        0x0 /package/eda/altera/altera17.0/nios2eds/bin/gnu/H-x86_64-pc-linux-gnu/bin/../lib/gcc/nios2-elf/5.3.0/../../../../../H-x86_64-pc-linux-gnu/nios2-elf/lib/pg/libc.a(lib_a-exit.o)
 .data          0x000000000803645c        0x0 /package/eda/altera/altera17.0/nios2eds/bin/gnu/H-x86_64-pc-linux-gnu/bin/../lib/gcc/nios2-elf/5.3.0/../../../../../H-x86_64-pc-linux-gnu/nios2-elf/lib/pg/libc.a(lib_a-fclose.o)
 .data          0x000000000803645c        0x0 /package/eda/altera/altera17.0/nios2eds/bin/gnu/H-x86_64-pc-linux-gnu/bin/../lib/gcc/nios2-elf/5.3.0/../../../../../H-x86_64-pc-linux-gnu/nios2-elf/lib/pg/libc.a(lib_a-fflush.o)
 .data          0x000000000803645c        0x0 /package/eda/altera/altera17.0/nios2eds/bin/gnu/H-x86_64-pc-linux-gnu/bin/../lib/gcc/nios2-elf/5.3.0/../../../../../H-x86_64-pc-linux-gnu/nios2-elf/lib/pg/libc.a(lib_a-fgets.o)
 .data          0x000000000803645c        0x0 /package/eda/altera/altera17.0/nios2eds/bin/gnu/H-x86_64-pc-linux-gnu/bin/../lib/gcc/nios2-elf/5.3.0/../../../../../H-x86_64-pc-linux-gnu/nios2-elf/lib/pg/libc.a(lib_a-fileno.o)
 .data          0x000000000803645c        0x0 /package/eda/altera/altera17.0/nios2eds/bin/gnu/H-x86_64-pc-linux-gnu/bin/../lib/gcc/nios2-elf/5.3.0/../../../../../H-x86_64-pc-linux-gnu/nios2-elf/lib/pg/libc.a(lib_a-findfp.o)
 .data          0x000000000803645c        0x0 /package/eda/altera/altera17.0/nios2eds/bin/gnu/H-x86_64-pc-linux-gnu/bin/../lib/gcc/nios2-elf/5.3.0/../../../../../H-x86_64-pc-linux-gnu/nios2-elf/lib/pg/libc.a(lib_a-fiprintf.o)
 .data          0x000000000803645c        0x0 /package/eda/altera/altera17.0/nios2eds/bin/gnu/H-x86_64-pc-linux-gnu/bin/../lib/gcc/nios2-elf/5.3.0/../../../../../H-x86_64-pc-linux-gnu/nios2-elf/lib/pg/libc.a(lib_a-fopen.o)
 .data          0x000000000803645c        0x0 /package/eda/altera/altera17.0/nios2eds/bin/gnu/H-x86_64-pc-linux-gnu/bin/../lib/gcc/nios2-elf/5.3.0/../../../../../H-x86_64-pc-linux-gnu/nios2-elf/lib/pg/libc.a(lib_a-fprintf.o)
 .data          0x000000000803645c        0x0 /package/eda/altera/altera17.0/nios2eds/bin/gnu/H-x86_64-pc-linux-gnu/bin/../lib/gcc/nios2-elf/5.3.0/../../../../../H-x86_64-pc-linux-gnu/nios2-elf/lib/pg/libc.a(lib_a-fputc.o)
 .data          0x000000000803645c        0x0 /package/eda/altera/altera17.0/nios2eds/bin/gnu/H-x86_64-pc-linux-gnu/bin/../lib/gcc/nios2-elf/5.3.0/../../../../../H-x86_64-pc-linux-gnu/nios2-elf/lib/pg/libc.a(lib_a-fputs.o)
 .data          0x000000000803645c        0x0 /package/eda/altera/altera17.0/nios2eds/bin/gnu/H-x86_64-pc-linux-gnu/bin/../lib/gcc/nios2-elf/5.3.0/../../../../../H-x86_64-pc-linux-gnu/nios2-elf/lib/pg/libc.a(lib_a-fread.o)
 .data          0x000000000803645c        0x0 /package/eda/altera/altera17.0/nios2eds/bin/gnu/H-x86_64-pc-linux-gnu/bin/../lib/gcc/nios2-elf/5.3.0/../../../../../H-x86_64-pc-linux-gnu/nios2-elf/lib/pg/libc.a(lib_a-freer.o)
 .data          0x000000000803645c        0x0 /package/eda/altera/altera17.0/nios2eds/bin/gnu/H-x86_64-pc-linux-gnu/bin/../lib/gcc/nios2-elf/5.3.0/../../../../../H-x86_64-pc-linux-gnu/nios2-elf/lib/pg/libc.a(lib_a-fseek.o)
 .data          0x000000000803645c        0x0 /package/eda/altera/altera17.0/nios2eds/bin/gnu/H-x86_64-pc-linux-gnu/bin/../lib/gcc/nios2-elf/5.3.0/../../../../../H-x86_64-pc-linux-gnu/nios2-elf/lib/pg/libc.a(lib_a-fseeko.o)
 .data          0x000000000803645c        0x0 /package/eda/altera/altera17.0/nios2eds/bin/gnu/H-x86_64-pc-linux-gnu/bin/../lib/gcc/nios2-elf/5.3.0/../../../../../H-x86_64-pc-linux-gnu/nios2-elf/lib/pg/libc.a(lib_a-fstatr.o)
 .data          0x000000000803645c        0x0 /package/eda/altera/altera17.0/nios2eds/bin/gnu/H-x86_64-pc-linux-gnu/bin/../lib/gcc/nios2-elf/5.3.0/../../../../../H-x86_64-pc-linux-gnu/nios2-elf/lib/pg/libc.a(lib_a-fvwrite.o)
 .data          0x000000000803645c        0x0 /package/eda/altera/altera17.0/nios2eds/bin/gnu/H-x86_64-pc-linux-gnu/bin/../lib/gcc/nios2-elf/5.3.0/../../../../../H-x86_64-pc-linux-gnu/nios2-elf/lib/pg/libc.a(lib_a-fwalk.o)
 .data          0x000000000803645c        0x0 /package/eda/altera/altera17.0/nios2eds/bin/gnu/H-x86_64-pc-linux-gnu/bin/../lib/gcc/nios2-elf/5.3.0/../../../../../H-x86_64-pc-linux-gnu/nios2-elf/lib/pg/libc.a(lib_a-fwrite.o)
 .data          0x000000000803645c        0x0 /package/eda/altera/altera17.0/nios2eds/bin/gnu/H-x86_64-pc-linux-gnu/bin/../lib/gcc/nios2-elf/5.3.0/../../../../../H-x86_64-pc-linux-gnu/nios2-elf/lib/pg/libc.a(lib_a-impure.o)
 .data.impure_data
                0x000000000803645c      0x424 /package/eda/altera/altera17.0/nios2eds/bin/gnu/H-x86_64-pc-linux-gnu/bin/../lib/gcc/nios2-elf/5.3.0/../../../../../H-x86_64-pc-linux-gnu/nios2-elf/lib/pg/libc.a(lib_a-impure.o)
 .data          0x0000000008036880        0x0 /package/eda/altera/altera17.0/nios2eds/bin/gnu/H-x86_64-pc-linux-gnu/bin/../lib/gcc/nios2-elf/5.3.0/../../../../../H-x86_64-pc-linux-gnu/nios2-elf/lib/pg/libc.a(lib_a-int_errno.o)
 .data          0x0000000008036880        0x0 /package/eda/altera/altera17.0/nios2eds/bin/gnu/H-x86_64-pc-linux-gnu/bin/../lib/gcc/nios2-elf/5.3.0/../../../../../H-x86_64-pc-linux-gnu/nios2-elf/lib/pg/libc.a(lib_a-makebuf.o)
 .data          0x0000000008036880        0x0 /package/eda/altera/altera17.0/nios2eds/bin/gnu/H-x86_64-pc-linux-gnu/bin/../lib/gcc/nios2-elf/5.3.0/../../../../../H-x86_64-pc-linux-gnu/nios2-elf/lib/pg/libc.a(lib_a-malloc.o)
 .data          0x0000000008036880        0x0 /package/eda/altera/altera17.0/nios2eds/bin/gnu/H-x86_64-pc-linux-gnu/bin/../lib/gcc/nios2-elf/5.3.0/../../../../../H-x86_64-pc-linux-gnu/nios2-elf/lib/pg/libc.a(lib_a-mallocr.o)
 .data.__malloc_av_
                0x0000000008036880      0x408 /package/eda/altera/altera17.0/nios2eds/bin/gnu/H-x86_64-pc-linux-gnu/bin/../lib/gcc/nios2-elf/5.3.0/../../../../../H-x86_64-pc-linux-gnu/nios2-elf/lib/pg/libc.a(lib_a-mallocr.o)
                0x0000000008036880                __malloc_av_
 .data          0x0000000008036c88        0x0 /package/eda/altera/altera17.0/nios2eds/bin/gnu/H-x86_64-pc-linux-gnu/bin/../lib/gcc/nios2-elf/5.3.0/../../../../../H-x86_64-pc-linux-gnu/nios2-elf/lib/pg/libc.a(lib_a-memchr.o)
 .data          0x0000000008036c88        0x0 /package/eda/altera/altera17.0/nios2eds/bin/gnu/H-x86_64-pc-linux-gnu/bin/../lib/gcc/nios2-elf/5.3.0/../../../../../H-x86_64-pc-linux-gnu/nios2-elf/lib/pg/libc.a(lib_a-memcpy.o)
 .data          0x0000000008036c88        0x0 /package/eda/altera/altera17.0/nios2eds/bin/gnu/H-x86_64-pc-linux-gnu/bin/../lib/gcc/nios2-elf/5.3.0/../../../../../H-x86_64-pc-linux-gnu/nios2-elf/lib/pg/libc.a(lib_a-memmove.o)
 .data          0x0000000008036c88        0x0 /package/eda/altera/altera17.0/nios2eds/bin/gnu/H-x86_64-pc-linux-gnu/bin/../lib/gcc/nios2-elf/5.3.0/../../../../../H-x86_64-pc-linux-gnu/nios2-elf/lib/pg/libc.a(lib_a-memset.o)
 .data          0x0000000008036c88        0x0 /package/eda/altera/altera17.0/nios2eds/bin/gnu/H-x86_64-pc-linux-gnu/bin/../lib/gcc/nios2-elf/5.3.0/../../../../../H-x86_64-pc-linux-gnu/nios2-elf/lib/pg/libc.a(lib_a-openr.o)
 .data          0x0000000008036c88        0x0 /package/eda/altera/altera17.0/nios2eds/bin/gnu/H-x86_64-pc-linux-gnu/bin/../lib/gcc/nios2-elf/5.3.0/../../../../../H-x86_64-pc-linux-gnu/nios2-elf/lib/pg/libc.a(lib_a-printf.o)
 .data          0x0000000008036c88        0x0 /package/eda/altera/altera17.0/nios2eds/bin/gnu/H-x86_64-pc-linux-gnu/bin/../lib/gcc/nios2-elf/5.3.0/../../../../../H-x86_64-pc-linux-gnu/nios2-elf/lib/pg/libc.a(lib_a-putc.o)
 .data          0x0000000008036c88        0x0 /package/eda/altera/altera17.0/nios2eds/bin/gnu/H-x86_64-pc-linux-gnu/bin/../lib/gcc/nios2-elf/5.3.0/../../../../../H-x86_64-pc-linux-gnu/nios2-elf/lib/pg/libc.a(lib_a-realloc.o)
 .data          0x0000000008036c88        0x0 /package/eda/altera/altera17.0/nios2eds/bin/gnu/H-x86_64-pc-linux-gnu/bin/../lib/gcc/nios2-elf/5.3.0/../../../../../H-x86_64-pc-linux-gnu/nios2-elf/lib/pg/libc.a(lib_a-reallocr.o)
 .data          0x0000000008036c88        0x0 /package/eda/altera/altera17.0/nios2eds/bin/gnu/H-x86_64-pc-linux-gnu/bin/../lib/gcc/nios2-elf/5.3.0/../../../../../H-x86_64-pc-linux-gnu/nios2-elf/lib/pg/libc.a(lib_a-refill.o)
 .data          0x0000000008036c88        0x0 /package/eda/altera/altera17.0/nios2eds/bin/gnu/H-x86_64-pc-linux-gnu/bin/../lib/gcc/nios2-elf/5.3.0/../../../../../H-x86_64-pc-linux-gnu/nios2-elf/lib/pg/libc.a(lib_a-sbrkr.o)
 .data          0x0000000008036c88        0x0 /package/eda/altera/altera17.0/nios2eds/bin/gnu/H-x86_64-pc-linux-gnu/bin/../lib/gcc/nios2-elf/5.3.0/../../../../../H-x86_64-pc-linux-gnu/nios2-elf/lib/pg/libc.a(lib_a-signal.o)
 .data          0x0000000008036c88        0x0 /package/eda/altera/altera17.0/nios2eds/bin/gnu/H-x86_64-pc-linux-gnu/bin/../lib/gcc/nios2-elf/5.3.0/../../../../../H-x86_64-pc-linux-gnu/nios2-elf/lib/pg/libc.a(lib_a-signalr.o)
 .data          0x0000000008036c88        0x0 /package/eda/altera/altera17.0/nios2eds/bin/gnu/H-x86_64-pc-linux-gnu/bin/../lib/gcc/nios2-elf/5.3.0/../../../../../H-x86_64-pc-linux-gnu/nios2-elf/lib/pg/libc.a(lib_a-stdio.o)
 .data          0x0000000008036c88        0x0 /package/eda/altera/altera17.0/nios2eds/bin/gnu/H-x86_64-pc-linux-gnu/bin/../lib/gcc/nios2-elf/5.3.0/../../../../../H-x86_64-pc-linux-gnu/nios2-elf/lib/pg/libc.a(lib_a-strcmp.o)
 .data          0x0000000008036c88        0x0 /package/eda/altera/altera17.0/nios2eds/bin/gnu/H-x86_64-pc-linux-gnu/bin/../lib/gcc/nios2-elf/5.3.0/../../../../../H-x86_64-pc-linux-gnu/nios2-elf/lib/pg/libc.a(lib_a-strdup.o)
 .data          0x0000000008036c88        0x0 /package/eda/altera/altera17.0/nios2eds/bin/gnu/H-x86_64-pc-linux-gnu/bin/../lib/gcc/nios2-elf/5.3.0/../../../../../H-x86_64-pc-linux-gnu/nios2-elf/lib/pg/libc.a(lib_a-strdup_r.o)
 .data          0x0000000008036c88        0x0 /package/eda/altera/altera17.0/nios2eds/bin/gnu/H-x86_64-pc-linux-gnu/bin/../lib/gcc/nios2-elf/5.3.0/../../../../../H-x86_64-pc-linux-gnu/nios2-elf/lib/pg/libc.a(lib_a-strlen.o)
 .data          0x0000000008036c88        0x0 /package/eda/altera/altera17.0/nios2eds/bin/gnu/H-x86_64-pc-linux-gnu/bin/../lib/gcc/nios2-elf/5.3.0/../../../../../H-x86_64-pc-linux-gnu/nios2-elf/lib/pg/libc.a(lib_a-strncmp.o)
 .data          0x0000000008036c88        0x0 /package/eda/altera/altera17.0/nios2eds/bin/gnu/H-x86_64-pc-linux-gnu/bin/../lib/gcc/nios2-elf/5.3.0/../../../../../H-x86_64-pc-linux-gnu/nios2-elf/lib/pg/libc.a(lib_a-strtod.o)
 .data          0x0000000008036c88        0x0 /package/eda/altera/altera17.0/nios2eds/bin/gnu/H-x86_64-pc-linux-gnu/bin/../lib/gcc/nios2-elf/5.3.0/../../../../../H-x86_64-pc-linux-gnu/nios2-elf/lib/pg/libc.a(lib_a-vfiprintfr_1.o)
 .data          0x0000000008036c88        0x0 /package/eda/altera/altera17.0/nios2eds/bin/gnu/H-x86_64-pc-linux-gnu/bin/../lib/gcc/nios2-elf/5.3.0/../../../../../H-x86_64-pc-linux-gnu/nios2-elf/lib/pg/libc.a(lib_a-vfprintf.o)
 .data          0x0000000008036c88        0x0 /package/eda/altera/altera17.0/nios2eds/bin/gnu/H-x86_64-pc-linux-gnu/bin/../lib/gcc/nios2-elf/5.3.0/../../../../../H-x86_64-pc-linux-gnu/nios2-elf/lib/pg/libc.a(lib_a-wbuf.o)
 .data          0x0000000008036c88        0x0 /package/eda/altera/altera17.0/nios2eds/bin/gnu/H-x86_64-pc-linux-gnu/bin/../lib/gcc/nios2-elf/5.3.0/../../../../../H-x86_64-pc-linux-gnu/nios2-elf/lib/pg/libc.a(lib_a-writer.o)
 .data          0x0000000008036c88        0x0 /package/eda/altera/altera17.0/nios2eds/bin/gnu/H-x86_64-pc-linux-gnu/bin/../lib/gcc/nios2-elf/5.3.0/../../../../../H-x86_64-pc-linux-gnu/nios2-elf/lib/pg/libc.a(lib_a-wsetup.o)
 .data          0x0000000008036c88        0x0 /package/eda/altera/altera17.0/nios2eds/bin/gnu/H-x86_64-pc-linux-gnu/bin/../lib/gcc/nios2-elf/5.3.0/../../../../../H-x86_64-pc-linux-gnu/nios2-elf/lib/pg/libc.a(closer.o)
 .data          0x0000000008036c88        0x0 /package/eda/altera/altera17.0/nios2eds/bin/gnu/H-x86_64-pc-linux-gnu/bin/../lib/gcc/nios2-elf/5.3.0/../../../../../H-x86_64-pc-linux-gnu/nios2-elf/lib/pg/libc.a(lib_a-__call_atexit.o)
 .data          0x0000000008036c88        0x0 /package/eda/altera/altera17.0/nios2eds/bin/gnu/H-x86_64-pc-linux-gnu/bin/../lib/gcc/nios2-elf/5.3.0/../../../../../H-x86_64-pc-linux-gnu/nios2-elf/lib/pg/libc.a(lib_a-dtoa.o)
 .data          0x0000000008036c88        0x0 /package/eda/altera/altera17.0/nios2eds/bin/gnu/H-x86_64-pc-linux-gnu/bin/../lib/gcc/nios2-elf/5.3.0/../../../../../H-x86_64-pc-linux-gnu/nios2-elf/lib/pg/libc.a(lib_a-flags.o)
 .data          0x0000000008036c88        0x0 /package/eda/altera/altera17.0/nios2eds/bin/gnu/H-x86_64-pc-linux-gnu/bin/../lib/gcc/nios2-elf/5.3.0/../../../../../H-x86_64-pc-linux-gnu/nios2-elf/lib/pg/libc.a(lib_a-gdtoa-gethex.o)
 .data          0x0000000008036c88        0x0 /package/eda/altera/altera17.0/nios2eds/bin/gnu/H-x86_64-pc-linux-gnu/bin/../lib/gcc/nios2-elf/5.3.0/../../../../../H-x86_64-pc-linux-gnu/nios2-elf/lib/pg/libc.a(lib_a-gdtoa-hexnan.o)
 .data          0x0000000008036c88        0x0 /package/eda/altera/altera17.0/nios2eds/bin/gnu/H-x86_64-pc-linux-gnu/bin/../lib/gcc/nios2-elf/5.3.0/../../../../../H-x86_64-pc-linux-gnu/nios2-elf/lib/pg/libc.a(lib_a-isattyr.o)
 .data          0x0000000008036c88        0x0 /package/eda/altera/altera17.0/nios2eds/bin/gnu/H-x86_64-pc-linux-gnu/bin/../lib/gcc/nios2-elf/5.3.0/../../../../../H-x86_64-pc-linux-gnu/nios2-elf/lib/pg/libc.a(lib_a-locale.o)
 .data.lc_message_charset
                0x0000000008036c88       0x20 /package/eda/altera/altera17.0/nios2eds/bin/gnu/H-x86_64-pc-linux-gnu/bin/../lib/gcc/nios2-elf/5.3.0/../../../../../H-x86_64-pc-linux-gnu/nios2-elf/lib/pg/libc.a(lib_a-locale.o)
 .data.lc_ctype_charset
                0x0000000008036ca8       0x20 /package/eda/altera/altera17.0/nios2eds/bin/gnu/H-x86_64-pc-linux-gnu/bin/../lib/gcc/nios2-elf/5.3.0/../../../../../H-x86_64-pc-linux-gnu/nios2-elf/lib/pg/libc.a(lib_a-locale.o)
 .data.lconv    0x0000000008036cc8       0x38 /package/eda/altera/altera17.0/nios2eds/bin/gnu/H-x86_64-pc-linux-gnu/bin/../lib/gcc/nios2-elf/5.3.0/../../../../../H-x86_64-pc-linux-gnu/nios2-elf/lib/pg/libc.a(lib_a-locale.o)
 .data          0x0000000008036d00        0x0 /package/eda/altera/altera17.0/nios2eds/bin/gnu/H-x86_64-pc-linux-gnu/bin/../lib/gcc/nios2-elf/5.3.0/../../../../../H-x86_64-pc-linux-gnu/nios2-elf/lib/pg/libc.a(lib_a-lseekr.o)
 .data          0x0000000008036d00        0x0 /package/eda/altera/altera17.0/nios2eds/bin/gnu/H-x86_64-pc-linux-gnu/bin/../lib/gcc/nios2-elf/5.3.0/../../../../../H-x86_64-pc-linux-gnu/nios2-elf/lib/pg/libc.a(lib_a-mprec.o)
 .data          0x0000000008036d00        0x0 /package/eda/altera/altera17.0/nios2eds/bin/gnu/H-x86_64-pc-linux-gnu/bin/../lib/gcc/nios2-elf/5.3.0/../../../../../H-x86_64-pc-linux-gnu/nios2-elf/lib/pg/libc.a(lib_a-readr.o)
 .data          0x0000000008036d00        0x0 /package/eda/altera/altera17.0/nios2eds/bin/gnu/H-x86_64-pc-linux-gnu/bin/../lib/gcc/nios2-elf/5.3.0/../../../../../H-x86_64-pc-linux-gnu/nios2-elf/lib/pg/libc.a(lib_a-vfiprintf.o)
 .data          0x0000000008036d00        0x0 /package/eda/altera/altera17.0/nios2eds/bin/gnu/H-x86_64-pc-linux-gnu/bin/../lib/gcc/nios2-elf/5.3.0/../../../../../H-x86_64-pc-linux-gnu/nios2-elf/lib/pg/libc.a(lib_a-fputwc.o)
 .data          0x0000000008036d00        0x0 /package/eda/altera/altera17.0/nios2eds/bin/gnu/H-x86_64-pc-linux-gnu/bin/../lib/gcc/nios2-elf/5.3.0/../../../../../H-x86_64-pc-linux-gnu/nios2-elf/lib/pg/libc.a(lib_a-wcrtomb.o)
 .data          0x0000000008036d00        0x0 /package/eda/altera/altera17.0/nios2eds/bin/gnu/H-x86_64-pc-linux-gnu/bin/../lib/gcc/nios2-elf/5.3.0/../../../../../H-x86_64-pc-linux-gnu/nios2-elf/lib/pg/libc.a(lib_a-wctomb_r.o)
 .data          0x0000000008036d00        0x0 /package/eda/altera/altera17.0/nios2eds/bin/gnu/H-x86_64-pc-linux-gnu/bin/../lib/gcc/nios2-elf/5.3.0/pg/libgcc.a(_fixunsdfsi.o)
 .data          0x0000000008036d00        0x0 /package/eda/altera/altera17.0/nios2eds/bin/gnu/H-x86_64-pc-linux-gnu/bin/../lib/gcc/nios2-elf/5.3.0/pg/libgcc.a(_udivdi3.o)
 .data          0x0000000008036d00        0x0 /package/eda/altera/altera17.0/nios2eds/bin/gnu/H-x86_64-pc-linux-gnu/bin/../lib/gcc/nios2-elf/5.3.0/pg/libgcc.a(_umoddi3.o)
 .data          0x0000000008036d00        0x0 /package/eda/altera/altera17.0/nios2eds/bin/gnu/H-x86_64-pc-linux-gnu/bin/../lib/gcc/nios2-elf/5.3.0/pg/libgcc.a(floatunsidf.o)
 .data          0x0000000008036d00        0x0 ../MNIST_CNN_Software_bsp//libhal_bsp.a(alt_close.o)
 .data          0x0000000008036d00      0x1a8 ../MNIST_CNN_Software_bsp//libhal_bsp.a(alt_dev.o)
                0x0000000008036d00                alt_fd_list
                0x0000000008036e80                alt_dev_null
 .data          0x0000000008036ea8        0x0 ../MNIST_CNN_Software_bsp//libhal_bsp.a(alt_errno.o)
 .data          0x0000000008036ea8        0x0 ../MNIST_CNN_Software_bsp//libhal_bsp.a(alt_exit.o)
 .data          0x0000000008036ea8        0x0 ../MNIST_CNN_Software_bsp//libhal_bsp.a(alt_fstat.o)
 .data          0x0000000008036ea8        0x0 ../MNIST_CNN_Software_bsp//libhal_bsp.a(alt_getpid.o)
 .data          0x0000000008036ea8       0x24 ../MNIST_CNN_Software_bsp//libhal_bsp.a(alt_gmon.o)
                0x0000000008036ea8                alt_gmon_data
 .data          0x0000000008036ecc        0x0 ../MNIST_CNN_Software_bsp//libhal_bsp.a(alt_isatty.o)
 .data          0x0000000008036ecc        0x0 ../MNIST_CNN_Software_bsp//libhal_bsp.a(alt_kill.o)
 .data          0x0000000008036ecc        0x0 ../MNIST_CNN_Software_bsp//libhal_bsp.a(alt_load.o)
 .data          0x0000000008036ecc        0x0 ../MNIST_CNN_Software_bsp//libhal_bsp.a(alt_lseek.o)
 .data          0x0000000008036ecc        0x0 ../MNIST_CNN_Software_bsp//libhal_bsp.a(alt_main.o)
 .data          0x0000000008036ecc        0x0 ../MNIST_CNN_Software_bsp//libhal_bsp.a(alt_malloc_lock.o)
 .data          0x0000000008036ecc        0x0 ../MNIST_CNN_Software_bsp//libhal_bsp.a(alt_mcount.o)
 .data          0x0000000008036ecc        0x0 ../MNIST_CNN_Software_bsp//libhal_bsp.a(alt_open.o)
 .data          0x0000000008036ecc        0x0 ../MNIST_CNN_Software_bsp//libhal_bsp.a(alt_read.o)
 .data          0x0000000008036ecc        0x0 ../MNIST_CNN_Software_bsp//libhal_bsp.a(alt_release_fd.o)
 .data          0x0000000008036ecc        0x0 ../MNIST_CNN_Software_bsp//libhal_bsp.a(alt_sbrk.o)
 .data          0x0000000008036ecc        0x0 ../MNIST_CNN_Software_bsp//libhal_bsp.a(alt_tick.o)
 .data          0x0000000008036ecc        0x0 ../MNIST_CNN_Software_bsp//libhal_bsp.a(alt_write.o)
 .data          0x0000000008036ecc     0x1208 ../MNIST_CNN_Software_bsp//libhal_bsp.a(alt_sys_init.o)
 .data          0x00000000080380d4        0x0 ../MNIST_CNN_Software_bsp//libhal_bsp.a(altera_avalon_cfi_flash.o)
 .data          0x00000000080380d4        0x0 ../MNIST_CNN_Software_bsp//libhal_bsp.a(altera_avalon_cfi_flash_table.o)
 .data          0x00000000080380d4        0x0 ../MNIST_CNN_Software_bsp//libhal_bsp.a(altera_avalon_jtag_uart_fd.o)
 .data          0x00000000080380d4        0x0 ../MNIST_CNN_Software_bsp//libhal_bsp.a(altera_avalon_jtag_uart_init.o)
 .data          0x00000000080380d4        0x0 ../MNIST_CNN_Software_bsp//libhal_bsp.a(altera_avalon_jtag_uart_ioctl.o)
 .data          0x00000000080380d4        0x0 ../MNIST_CNN_Software_bsp//libhal_bsp.a(altera_avalon_jtag_uart_read.o)
 .data          0x00000000080380d4        0x0 ../MNIST_CNN_Software_bsp//libhal_bsp.a(altera_avalon_jtag_uart_write.o)
 .data          0x00000000080380d4        0x0 ../MNIST_CNN_Software_bsp//libhal_bsp.a(altera_avalon_timer_sc.o)
 .data          0x00000000080380d4        0x0 ../MNIST_CNN_Software_bsp//libhal_bsp.a(altera_ro_zipfs.o)
 .data          0x00000000080380d4        0x0 ../MNIST_CNN_Software_bsp//libhal_bsp.a(altera_up_avalon_video_character_buffer_with_dma.o)
 .data          0x00000000080380d4        0x0 ../MNIST_CNN_Software_bsp//libhal_bsp.a(altera_up_avalon_video_pixel_buffer_dma.o)
 .data          0x00000000080380d4        0x0 ../MNIST_CNN_Software_bsp//libhal_bsp.a(alt_alarm_start.o)
 .data          0x00000000080380d4        0x0 ../MNIST_CNN_Software_bsp//libhal_bsp.a(alt_dcache_flush.o)
 .data          0x00000000080380d4        0x0 ../MNIST_CNN_Software_bsp//libhal_bsp.a(alt_dcache_flush_all.o)
 .data          0x00000000080380d4        0x0 ../MNIST_CNN_Software_bsp//libhal_bsp.a(alt_dev_llist_insert.o)
 .data          0x00000000080380d4        0x0 ../MNIST_CNN_Software_bsp//libhal_bsp.a(alt_do_ctors.o)
 .data          0x00000000080380d4        0x0 ../MNIST_CNN_Software_bsp//libhal_bsp.a(alt_do_dtors.o)
 .data          0x00000000080380d4        0x0 ../MNIST_CNN_Software_bsp//libhal_bsp.a(alt_find_dev.o)
 .data          0x00000000080380d4        0x0 ../MNIST_CNN_Software_bsp//libhal_bsp.a(alt_find_file.o)
 .data          0x00000000080380d4        0x0 ../MNIST_CNN_Software_bsp//libhal_bsp.a(alt_flash_dev.o)
 .data          0x00000000080380d4        0x0 ../MNIST_CNN_Software_bsp//libhal_bsp.a(alt_fs_reg.o)
 .data          0x00000000080380d4        0x0 ../MNIST_CNN_Software_bsp//libhal_bsp.a(alt_get_fd.o)
 .data          0x00000000080380d4        0x0 ../MNIST_CNN_Software_bsp//libhal_bsp.a(alt_icache_flush_all.o)
 .data          0x00000000080380d4        0x0 ../MNIST_CNN_Software_bsp//libhal_bsp.a(alt_iic.o)
 .data          0x00000000080380d4        0x0 ../MNIST_CNN_Software_bsp//libhal_bsp.a(alt_iic_isr_register.o)
 .data          0x00000000080380d4        0x0 ../MNIST_CNN_Software_bsp//libhal_bsp.a(alt_io_redirect.o)
 .data          0x00000000080380d4        0x0 ../MNIST_CNN_Software_bsp//libhal_bsp.a(alt_irq_entry.o)
 .data          0x00000000080380d4        0x0 ../MNIST_CNN_Software_bsp//libhal_bsp.a(alt_irq_handler.o)
 .data          0x00000000080380d4        0x0 ../MNIST_CNN_Software_bsp//libhal_bsp.a(alt_irq_vars.o)
 .data          0x00000000080380d4        0x0 ../MNIST_CNN_Software_bsp//libhal_bsp.a(altera_nios2_qsys_irq.o)
 .data          0x00000000080380d4        0x0 ../MNIST_CNN_Software_bsp//libhal_bsp.a(altera_avalon_cfi_flash_amd.o)
 .data          0x00000000080380d4        0x0 ../MNIST_CNN_Software_bsp//libhal_bsp.a(altera_avalon_cfi_flash_intel.o)
 .data          0x00000000080380d4        0x0 ../MNIST_CNN_Software_bsp//libhal_bsp.a(alt_exception_entry.o)
 .data          0x00000000080380d4        0x0 ../MNIST_CNN_Software_bsp//libhal_bsp.a(alt_icache_flush.o)
 .data          0x00000000080380d4        0x0 ../MNIST_CNN_Software_bsp//libhal_bsp.a(alt_usleep.o)
 .data          0x00000000080380d4        0x0 ../MNIST_CNN_Software_bsp//libhal_bsp.a(alt_busy_sleep.o)
 .data          0x00000000080380d4        0x0 /package/eda/altera/altera17.0/nios2eds/bin/gnu/H-x86_64-pc-linux-gnu/bin/../lib/gcc/nios2-elf/5.3.0/../../../../../H-x86_64-pc-linux-gnu/nios2-elf/lib/pg/libc.a(lib_a-atexit.o)
 .data          0x00000000080380d4        0x0 /package/eda/altera/altera17.0/nios2eds/bin/gnu/H-x86_64-pc-linux-gnu/bin/../lib/gcc/nios2-elf/5.3.0/../../../../../H-x86_64-pc-linux-gnu/nios2-elf/lib/pg/libc.a(lib_a-memcmp.o)
 .data          0x00000000080380d4        0x0 /package/eda/altera/altera17.0/nios2eds/bin/gnu/H-x86_64-pc-linux-gnu/bin/../lib/gcc/nios2-elf/5.3.0/../../../../../H-x86_64-pc-linux-gnu/nios2-elf/lib/pg/libc.a(lib_a-__atexit.o)
                0x00000000080400d4                _gp = ABSOLUTE ((. + 0x8000))
                [!provide]                        PROVIDE (gp, _gp)
 *(.rwdata .rwdata.*)
 *(.sdata .sdata.* .gnu.linkonce.s.*)
 .sdata         0x00000000080380d4        0x4 obj/default/kann.o
                0x00000000080380d4                kann_verbose
 .sdata         0x00000000080380d8        0x5 obj/default/mnist-cnn.o
 *fill*         0x00000000080380dd        0x3 
 .sdata.ln2LO   0x00000000080380e0        0x8 /package/eda/altera/altera17.0/nios2eds/bin/gnu/H-x86_64-pc-linux-gnu/bin/../lib/gcc/nios2-elf/5.3.0/../../../../../H-x86_64-pc-linux-gnu/nios2-elf/lib/pg/libm.a(lib_a-ef_exp.o)
 .sdata.ln2HI   0x00000000080380e8        0x8 /package/eda/altera/altera17.0/nios2eds/bin/gnu/H-x86_64-pc-linux-gnu/bin/../lib/gcc/nios2-elf/5.3.0/../../../../../H-x86_64-pc-linux-gnu/nios2-elf/lib/pg/libm.a(lib_a-ef_exp.o)
 .sdata.halF    0x00000000080380f0        0x8 /package/eda/altera/altera17.0/nios2eds/bin/gnu/H-x86_64-pc-linux-gnu/bin/../lib/gcc/nios2-elf/5.3.0/../../../../../H-x86_64-pc-linux-gnu/nios2-elf/lib/pg/libm.a(lib_a-ef_exp.o)
 .sdata.__fdlib_version
                0x00000000080380f8        0x4 /package/eda/altera/altera17.0/nios2eds/bin/gnu/H-x86_64-pc-linux-gnu/bin/../lib/gcc/nios2-elf/5.3.0/../../../../../H-x86_64-pc-linux-gnu/nios2-elf/lib/pg/libm.a(lib_a-s_lib_ver.o)
                0x00000000080380f8                __fdlib_version
 .sdata._global_impure_ptr
                0x00000000080380fc        0x4 /package/eda/altera/altera17.0/nios2eds/bin/gnu/H-x86_64-pc-linux-gnu/bin/../lib/gcc/nios2-elf/5.3.0/../../../../../H-x86_64-pc-linux-gnu/nios2-elf/lib/pg/libc.a(lib_a-impure.o)
                0x00000000080380fc                _global_impure_ptr
 .sdata._impure_ptr
                0x0000000008038100        0x4 /package/eda/altera/altera17.0/nios2eds/bin/gnu/H-x86_64-pc-linux-gnu/bin/../lib/gcc/nios2-elf/5.3.0/../../../../../H-x86_64-pc-linux-gnu/nios2-elf/lib/pg/libc.a(lib_a-impure.o)
                0x0000000008038100                _impure_ptr
 .sdata.__malloc_sbrk_base
                0x0000000008038104        0x4 /package/eda/altera/altera17.0/nios2eds/bin/gnu/H-x86_64-pc-linux-gnu/bin/../lib/gcc/nios2-elf/5.3.0/../../../../../H-x86_64-pc-linux-gnu/nios2-elf/lib/pg/libc.a(lib_a-mallocr.o)
                0x0000000008038104                __malloc_sbrk_base
 .sdata.__malloc_trim_threshold
                0x0000000008038108        0x4 /package/eda/altera/altera17.0/nios2eds/bin/gnu/H-x86_64-pc-linux-gnu/bin/../lib/gcc/nios2-elf/5.3.0/../../../../../H-x86_64-pc-linux-gnu/nios2-elf/lib/pg/libc.a(lib_a-mallocr.o)
                0x0000000008038108                __malloc_trim_threshold
 .sdata.__mb_cur_max
                0x000000000803810c        0x4 /package/eda/altera/altera17.0/nios2eds/bin/gnu/H-x86_64-pc-linux-gnu/bin/../lib/gcc/nios2-elf/5.3.0/../../../../../H-x86_64-pc-linux-gnu/nios2-elf/lib/pg/libc.a(lib_a-locale.o)
                0x000000000803810c                __mb_cur_max
 .sdata.__wctomb
                0x0000000008038110        0x4 /package/eda/altera/altera17.0/nios2eds/bin/gnu/H-x86_64-pc-linux-gnu/bin/../lib/gcc/nios2-elf/5.3.0/../../../../../H-x86_64-pc-linux-gnu/nios2-elf/lib/pg/libc.a(lib_a-wctomb_r.o)
                0x0000000008038110                __wctomb
 .sdata         0x0000000008038114       0x14 ../MNIST_CNN_Software_bsp//libhal_bsp.a(alt_dev.o)
                0x0000000008038114                alt_max_fd
                0x0000000008038118                alt_dev_list
                0x0000000008038120                alt_fs_list
 .sdata         0x0000000008038128        0x4 ../MNIST_CNN_Software_bsp//libhal_bsp.a(alt_errno.o)
                0x0000000008038128                alt_errno
 .sdata         0x000000000803812c        0x4 ../MNIST_CNN_Software_bsp//libhal_bsp.a(alt_gmon.o)
 .sdata         0x0000000008038130        0x4 ../MNIST_CNN_Software_bsp//libhal_bsp.a(alt_sbrk.o)
 .sdata         0x0000000008038134        0x8 ../MNIST_CNN_Software_bsp//libhal_bsp.a(alt_tick.o)
                0x0000000008038134                alt_alarm_list
 .sdata         0x000000000803813c        0x8 ../MNIST_CNN_Software_bsp//libhal_bsp.a(alt_flash_dev.o)
                0x000000000803813c                alt_flash_dev_list
 .sdata         0x0000000008038144        0x4 ../MNIST_CNN_Software_bsp//libhal_bsp.a(alt_irq_vars.o)
                0x0000000008038144                alt_priority_mask
 *(.sdata2 .sdata2.* .gnu.linkonce.s2.*)
                0x0000000008038148                . = ALIGN (0x4)
                0x0000000008038148                _edata = ABSOLUTE (.)
                [!provide]                        PROVIDE (edata, ABSOLUTE (.))
                0x0000000008038148                PROVIDE (__ram_rwdata_end, ABSOLUTE (.))
                0x0000000008038148                PROVIDE (__flash_rwdata_start, LOADADDR (.rwdata))

.bss            0x000000000803a154      0x280
                0x000000000803a154                __bss_start = ABSOLUTE (.)
                [!provide]                        PROVIDE (__sbss_start, ABSOLUTE (.))
                [!provide]                        PROVIDE (___sbss_start, ABSOLUTE (.))
 *(.dynsbss)
 *(.sbss .sbss.* .gnu.linkonce.sb.*)
 .sbss          0x000000000803a154        0x4 /package/eda/altera/altera17.0/nios2eds/bin/gnu/H-x86_64-pc-linux-gnu/bin/../lib/gcc/nios2-elf/5.3.0/../../../../../H-x86_64-pc-linux-gnu/nios2-elf/lib/pg/libc.a(lib_a-int_errno.o)
                0x000000000803a154                errno
 .sbss.__malloc_max_total_mem
                0x000000000803a158        0x4 /package/eda/altera/altera17.0/nios2eds/bin/gnu/H-x86_64-pc-linux-gnu/bin/../lib/gcc/nios2-elf/5.3.0/../../../../../H-x86_64-pc-linux-gnu/nios2-elf/lib/pg/libc.a(lib_a-mallocr.o)
                0x000000000803a158                __malloc_max_total_mem
 .sbss.__malloc_max_sbrked_mem
                0x000000000803a15c        0x4 /package/eda/altera/altera17.0/nios2eds/bin/gnu/H-x86_64-pc-linux-gnu/bin/../lib/gcc/nios2-elf/5.3.0/../../../../../H-x86_64-pc-linux-gnu/nios2-elf/lib/pg/libc.a(lib_a-mallocr.o)
                0x000000000803a15c                __malloc_max_sbrked_mem
 .sbss.__malloc_top_pad
                0x000000000803a160        0x4 /package/eda/altera/altera17.0/nios2eds/bin/gnu/H-x86_64-pc-linux-gnu/bin/../lib/gcc/nios2-elf/5.3.0/../../../../../H-x86_64-pc-linux-gnu/nios2-elf/lib/pg/libc.a(lib_a-mallocr.o)
                0x000000000803a160                __malloc_top_pad
 .sbss._PathLocale
                0x000000000803a164        0x4 /package/eda/altera/altera17.0/nios2eds/bin/gnu/H-x86_64-pc-linux-gnu/bin/../lib/gcc/nios2-elf/5.3.0/../../../../../H-x86_64-pc-linux-gnu/nios2-elf/lib/pg/libc.a(lib_a-locale.o)
                0x000000000803a164                _PathLocale
 .sbss.__mlocale_changed
                0x000000000803a168        0x4 /package/eda/altera/altera17.0/nios2eds/bin/gnu/H-x86_64-pc-linux-gnu/bin/../lib/gcc/nios2-elf/5.3.0/../../../../../H-x86_64-pc-linux-gnu/nios2-elf/lib/pg/libc.a(lib_a-locale.o)
                0x000000000803a168                __mlocale_changed
 .sbss.__nlocale_changed
                0x000000000803a16c        0x4 /package/eda/altera/altera17.0/nios2eds/bin/gnu/H-x86_64-pc-linux-gnu/bin/../lib/gcc/nios2-elf/5.3.0/../../../../../H-x86_64-pc-linux-gnu/nios2-elf/lib/pg/libc.a(lib_a-locale.o)
                0x000000000803a16c                __nlocale_changed
 .sbss          0x000000000803a170        0xc ../MNIST_CNN_Software_bsp//libhal_bsp.a(alt_gmon.o)
 .sbss          0x000000000803a17c        0xc ../MNIST_CNN_Software_bsp//libhal_bsp.a(alt_main.o)
                0x000000000803a17c                alt_envp
                0x000000000803a180                alt_argv
                0x000000000803a184                alt_argc
 .sbss          0x000000000803a188        0x8 ../MNIST_CNN_Software_bsp//libhal_bsp.a(alt_tick.o)
                0x000000000803a188                _alt_nticks
                0x000000000803a18c                _alt_tick_rate
 .sbss          0x000000000803a190        0x4 ../MNIST_CNN_Software_bsp//libhal_bsp.a(alt_irq_vars.o)
                0x000000000803a190                alt_irq_active
 *(.sbss2 .sbss2.* .gnu.linkonce.sb2.*)
 *(.scommon)
                [!provide]                        PROVIDE (__sbss_end, ABSOLUTE (.))
                [!provide]                        PROVIDE (___sbss_end, ABSOLUTE (.))
 *(.dynbss)
 *(.bss .bss.* .gnu.linkonce.b.*)
 .bss           0x000000000803a194        0x0 ../MNIST_CNN_Software_bsp//obj/HAL/src/crt0.o
 .bss           0x000000000803a194        0x0 obj/default/kann.o
 .bss           0x000000000803a194        0x0 obj/default/kann_data.o
 .bss           0x000000000803a194        0x0 obj/default/kautodiff.o
 .bss           0x000000000803a194        0x0 obj/default/mnist-cnn.o
 .bss           0x000000000803a194        0x0 /package/eda/altera/altera17.0/nios2eds/bin/gnu/H-x86_64-pc-linux-gnu/bin/../lib/gcc/nios2-elf/5.3.0/../../../../../H-x86_64-pc-linux-gnu/nios2-elf/lib/pg/libm.a(lib_a-sf_cos.o)
 .bss           0x000000000803a194        0x0 /package/eda/altera/altera17.0/nios2eds/bin/gnu/H-x86_64-pc-linux-gnu/bin/../lib/gcc/nios2-elf/5.3.0/../../../../../H-x86_64-pc-linux-gnu/nios2-elf/lib/pg/libm.a(lib_a-sf_sin.o)
 .bss           0x000000000803a194        0x0 /package/eda/altera/altera17.0/nios2eds/bin/gnu/H-x86_64-pc-linux-gnu/bin/../lib/gcc/nios2-elf/5.3.0/../../../../../H-x86_64-pc-linux-gnu/nios2-elf/lib/pg/libm.a(lib_a-w_log.o)
 .bss           0x000000000803a194        0x0 /package/eda/altera/altera17.0/nios2eds/bin/gnu/H-x86_64-pc-linux-gnu/bin/../lib/gcc/nios2-elf/5.3.0/../../../../../H-x86_64-pc-linux-gnu/nios2-elf/lib/pg/libm.a(lib_a-w_sqrt.o)
 .bss           0x000000000803a194        0x0 /package/eda/altera/altera17.0/nios2eds/bin/gnu/H-x86_64-pc-linux-gnu/bin/../lib/gcc/nios2-elf/5.3.0/../../../../../H-x86_64-pc-linux-gnu/nios2-elf/lib/pg/libm.a(lib_a-wf_exp.o)
 .bss           0x000000000803a194        0x0 /package/eda/altera/altera17.0/nios2eds/bin/gnu/H-x86_64-pc-linux-gnu/bin/../lib/gcc/nios2-elf/5.3.0/../../../../../H-x86_64-pc-linux-gnu/nios2-elf/lib/pg/libm.a(lib_a-wf_log.o)
 .bss           0x000000000803a194        0x0 /package/eda/altera/altera17.0/nios2eds/bin/gnu/H-x86_64-pc-linux-gnu/bin/../lib/gcc/nios2-elf/5.3.0/../../../../../H-x86_64-pc-linux-gnu/nios2-elf/lib/pg/libm.a(lib_a-wf_sqrt.o)
 .bss           0x000000000803a194        0x0 /package/eda/altera/altera17.0/nios2eds/bin/gnu/H-x86_64-pc-linux-gnu/bin/../lib/gcc/nios2-elf/5.3.0/../../../../../H-x86_64-pc-linux-gnu/nios2-elf/lib/pg/libm.a(lib_a-e_log.o)
 .bss           0x000000000803a194        0x0 /package/eda/altera/altera17.0/nios2eds/bin/gnu/H-x86_64-pc-linux-gnu/bin/../lib/gcc/nios2-elf/5.3.0/../../../../../H-x86_64-pc-linux-gnu/nios2-elf/lib/pg/libm.a(lib_a-e_sqrt.o)
 .bss           0x000000000803a194        0x0 /package/eda/altera/altera17.0/nios2eds/bin/gnu/H-x86_64-pc-linux-gnu/bin/../lib/gcc/nios2-elf/5.3.0/../../../../../H-x86_64-pc-linux-gnu/nios2-elf/lib/pg/libm.a(lib_a-ef_exp.o)
 .bss           0x000000000803a194        0x0 /package/eda/altera/altera17.0/nios2eds/bin/gnu/H-x86_64-pc-linux-gnu/bin/../lib/gcc/nios2-elf/5.3.0/../../../../../H-x86_64-pc-linux-gnu/nios2-elf/lib/pg/libm.a(lib_a-ef_log.o)
 .bss           0x000000000803a194        0x0 /package/eda/altera/altera17.0/nios2eds/bin/gnu/H-x86_64-pc-linux-gnu/bin/../lib/gcc/nios2-elf/5.3.0/../../../../../H-x86_64-pc-linux-gnu/nios2-elf/lib/pg/libm.a(lib_a-ef_rem_pio2.o)
 .bss           0x000000000803a194        0x0 /package/eda/altera/altera17.0/nios2eds/bin/gnu/H-x86_64-pc-linux-gnu/bin/../lib/gcc/nios2-elf/5.3.0/../../../../../H-x86_64-pc-linux-gnu/nios2-elf/lib/pg/libm.a(lib_a-ef_sqrt.o)
 .bss           0x000000000803a194        0x0 /package/eda/altera/altera17.0/nios2eds/bin/gnu/H-x86_64-pc-linux-gnu/bin/../lib/gcc/nios2-elf/5.3.0/../../../../../H-x86_64-pc-linux-gnu/nios2-elf/lib/pg/libm.a(lib_a-kf_cos.o)
 .bss           0x000000000803a194        0x0 /package/eda/altera/altera17.0/nios2eds/bin/gnu/H-x86_64-pc-linux-gnu/bin/../lib/gcc/nios2-elf/5.3.0/../../../../../H-x86_64-pc-linux-gnu/nios2-elf/lib/pg/libm.a(lib_a-kf_rem_pio2.o)
 .bss           0x000000000803a194        0x0 /package/eda/altera/altera17.0/nios2eds/bin/gnu/H-x86_64-pc-linux-gnu/bin/../lib/gcc/nios2-elf/5.3.0/../../../../../H-x86_64-pc-linux-gnu/nios2-elf/lib/pg/libm.a(lib_a-kf_sin.o)
 .bss           0x000000000803a194        0x0 /package/eda/altera/altera17.0/nios2eds/bin/gnu/H-x86_64-pc-linux-gnu/bin/../lib/gcc/nios2-elf/5.3.0/../../../../../H-x86_64-pc-linux-gnu/nios2-elf/lib/pg/libm.a(lib_a-s_fpclassify.o)
 .bss           0x000000000803a194        0x0 /package/eda/altera/altera17.0/nios2eds/bin/gnu/H-x86_64-pc-linux-gnu/bin/../lib/gcc/nios2-elf/5.3.0/../../../../../H-x86_64-pc-linux-gnu/nios2-elf/lib/pg/libm.a(lib_a-s_lib_ver.o)
 .bss           0x000000000803a194        0x0 /package/eda/altera/altera17.0/nios2eds/bin/gnu/H-x86_64-pc-linux-gnu/bin/../lib/gcc/nios2-elf/5.3.0/../../../../../H-x86_64-pc-linux-gnu/nios2-elf/lib/pg/libm.a(lib_a-s_matherr.o)
 .bss           0x000000000803a194        0x0 /package/eda/altera/altera17.0/nios2eds/bin/gnu/H-x86_64-pc-linux-gnu/bin/../lib/gcc/nios2-elf/5.3.0/../../../../../H-x86_64-pc-linux-gnu/nios2-elf/lib/pg/libm.a(lib_a-s_nan.o)
 .bss           0x000000000803a194        0x0 /package/eda/altera/altera17.0/nios2eds/bin/gnu/H-x86_64-pc-linux-gnu/bin/../lib/gcc/nios2-elf/5.3.0/../../../../../H-x86_64-pc-linux-gnu/nios2-elf/lib/pg/libm.a(lib_a-sf_fabs.o)
 .bss           0x000000000803a194        0x0 /package/eda/altera/altera17.0/nios2eds/bin/gnu/H-x86_64-pc-linux-gnu/bin/../lib/gcc/nios2-elf/5.3.0/../../../../../H-x86_64-pc-linux-gnu/nios2-elf/lib/pg/libm.a(lib_a-sf_finite.o)
 .bss           0x000000000803a194        0x0 /package/eda/altera/altera17.0/nios2eds/bin/gnu/H-x86_64-pc-linux-gnu/bin/../lib/gcc/nios2-elf/5.3.0/../../../../../H-x86_64-pc-linux-gnu/nios2-elf/lib/pg/libm.a(lib_a-sf_floor.o)
 .bss           0x000000000803a194        0x0 /package/eda/altera/altera17.0/nios2eds/bin/gnu/H-x86_64-pc-linux-gnu/bin/../lib/gcc/nios2-elf/5.3.0/../../../../../H-x86_64-pc-linux-gnu/nios2-elf/lib/pg/libm.a(lib_a-sf_fpclassify.o)
 .bss           0x000000000803a194        0x0 /package/eda/altera/altera17.0/nios2eds/bin/gnu/H-x86_64-pc-linux-gnu/bin/../lib/gcc/nios2-elf/5.3.0/../../../../../H-x86_64-pc-linux-gnu/nios2-elf/lib/pg/libm.a(lib_a-sf_scalbn.o)
 .bss           0x000000000803a194        0x0 /package/eda/altera/altera17.0/nios2eds/bin/gnu/H-x86_64-pc-linux-gnu/bin/../lib/gcc/nios2-elf/5.3.0/../../../../../H-x86_64-pc-linux-gnu/nios2-elf/lib/pg/libm.a(lib_a-sf_copysign.o)
 .bss           0x000000000803a194        0x0 /package/eda/altera/altera17.0/nios2eds/bin/gnu/H-x86_64-pc-linux-gnu/bin/../lib/gcc/nios2-elf/5.3.0/pg/libgcc.a(_muldi3.o)
 .bss           0x000000000803a194        0x0 /package/eda/altera/altera17.0/nios2eds/bin/gnu/H-x86_64-pc-linux-gnu/bin/../lib/gcc/nios2-elf/5.3.0/pg/libgcc.a(_fixunssfsi.o)
 .bss           0x000000000803a194        0x0 /package/eda/altera/altera17.0/nios2eds/bin/gnu/H-x86_64-pc-linux-gnu/bin/../lib/gcc/nios2-elf/5.3.0/pg/libgcc.a(lib2-divmod.o)
 .bss           0x000000000803a194        0x0 /package/eda/altera/altera17.0/nios2eds/bin/gnu/H-x86_64-pc-linux-gnu/bin/../lib/gcc/nios2-elf/5.3.0/pg/libgcc.a(lib2-divtable.o)
 .bss           0x000000000803a194        0x0 /package/eda/altera/altera17.0/nios2eds/bin/gnu/H-x86_64-pc-linux-gnu/bin/../lib/gcc/nios2-elf/5.3.0/pg/libgcc.a(addsf3.o)
 .bss           0x000000000803a194        0x0 /package/eda/altera/altera17.0/nios2eds/bin/gnu/H-x86_64-pc-linux-gnu/bin/../lib/gcc/nios2-elf/5.3.0/pg/libgcc.a(divsf3.o)
 .bss           0x000000000803a194        0x0 /package/eda/altera/altera17.0/nios2eds/bin/gnu/H-x86_64-pc-linux-gnu/bin/../lib/gcc/nios2-elf/5.3.0/pg/libgcc.a(eqsf2.o)
 .bss           0x000000000803a194        0x0 /package/eda/altera/altera17.0/nios2eds/bin/gnu/H-x86_64-pc-linux-gnu/bin/../lib/gcc/nios2-elf/5.3.0/pg/libgcc.a(gesf2.o)
 .bss           0x000000000803a194        0x0 /package/eda/altera/altera17.0/nios2eds/bin/gnu/H-x86_64-pc-linux-gnu/bin/../lib/gcc/nios2-elf/5.3.0/pg/libgcc.a(lesf2.o)
 .bss           0x000000000803a194        0x0 /package/eda/altera/altera17.0/nios2eds/bin/gnu/H-x86_64-pc-linux-gnu/bin/../lib/gcc/nios2-elf/5.3.0/pg/libgcc.a(mulsf3.o)
 .bss           0x000000000803a194        0x0 /package/eda/altera/altera17.0/nios2eds/bin/gnu/H-x86_64-pc-linux-gnu/bin/../lib/gcc/nios2-elf/5.3.0/pg/libgcc.a(subsf3.o)
 .bss           0x000000000803a194        0x0 /package/eda/altera/altera17.0/nios2eds/bin/gnu/H-x86_64-pc-linux-gnu/bin/../lib/gcc/nios2-elf/5.3.0/pg/libgcc.a(fixsfsi.o)
 .bss           0x000000000803a194        0x0 /package/eda/altera/altera17.0/nios2eds/bin/gnu/H-x86_64-pc-linux-gnu/bin/../lib/gcc/nios2-elf/5.3.0/pg/libgcc.a(floatsisf.o)
 .bss           0x000000000803a194        0x0 /package/eda/altera/altera17.0/nios2eds/bin/gnu/H-x86_64-pc-linux-gnu/bin/../lib/gcc/nios2-elf/5.3.0/pg/libgcc.a(adddf3.o)
 .bss           0x000000000803a194        0x0 /package/eda/altera/altera17.0/nios2eds/bin/gnu/H-x86_64-pc-linux-gnu/bin/../lib/gcc/nios2-elf/5.3.0/pg/libgcc.a(divdf3.o)
 .bss           0x000000000803a194        0x0 /package/eda/altera/altera17.0/nios2eds/bin/gnu/H-x86_64-pc-linux-gnu/bin/../lib/gcc/nios2-elf/5.3.0/pg/libgcc.a(eqdf2.o)
 .bss           0x000000000803a194        0x0 /package/eda/altera/altera17.0/nios2eds/bin/gnu/H-x86_64-pc-linux-gnu/bin/../lib/gcc/nios2-elf/5.3.0/pg/libgcc.a(gedf2.o)
 .bss           0x000000000803a194        0x0 /package/eda/altera/altera17.0/nios2eds/bin/gnu/H-x86_64-pc-linux-gnu/bin/../lib/gcc/nios2-elf/5.3.0/pg/libgcc.a(ledf2.o)
 .bss           0x000000000803a194        0x0 /package/eda/altera/altera17.0/nios2eds/bin/gnu/H-x86_64-pc-linux-gnu/bin/../lib/gcc/nios2-elf/5.3.0/pg/libgcc.a(muldf3.o)
 .bss           0x000000000803a194        0x0 /package/eda/altera/altera17.0/nios2eds/bin/gnu/H-x86_64-pc-linux-gnu/bin/../lib/gcc/nios2-elf/5.3.0/pg/libgcc.a(subdf3.o)
 .bss           0x000000000803a194        0x0 /package/eda/altera/altera17.0/nios2eds/bin/gnu/H-x86_64-pc-linux-gnu/bin/../lib/gcc/nios2-elf/5.3.0/pg/libgcc.a(fixdfsi.o)
 .bss           0x000000000803a194        0x0 /package/eda/altera/altera17.0/nios2eds/bin/gnu/H-x86_64-pc-linux-gnu/bin/../lib/gcc/nios2-elf/5.3.0/pg/libgcc.a(floatsidf.o)
 .bss           0x000000000803a194        0x0 /package/eda/altera/altera17.0/nios2eds/bin/gnu/H-x86_64-pc-linux-gnu/bin/../lib/gcc/nios2-elf/5.3.0/pg/libgcc.a(extendsfdf2.o)
 .bss           0x000000000803a194        0x0 /package/eda/altera/altera17.0/nios2eds/bin/gnu/H-x86_64-pc-linux-gnu/bin/../lib/gcc/nios2-elf/5.3.0/pg/libgcc.a(truncdfsf2.o)
 .bss           0x000000000803a194        0x0 /package/eda/altera/altera17.0/nios2eds/bin/gnu/H-x86_64-pc-linux-gnu/bin/../lib/gcc/nios2-elf/5.3.0/pg/libgcc.a(_clzsi2.o)
 .bss           0x000000000803a194        0x0 /package/eda/altera/altera17.0/nios2eds/bin/gnu/H-x86_64-pc-linux-gnu/bin/../lib/gcc/nios2-elf/5.3.0/pg/libgcc.a(_clz.o)
 .bss           0x000000000803a194        0x0 /package/eda/altera/altera17.0/nios2eds/bin/gnu/H-x86_64-pc-linux-gnu/bin/../lib/gcc/nios2-elf/5.3.0/../../../../../H-x86_64-pc-linux-gnu/nios2-elf/lib/pg/libc.a(lib_a-abort.o)
 .bss           0x000000000803a194        0x0 /package/eda/altera/altera17.0/nios2eds/bin/gnu/H-x86_64-pc-linux-gnu/bin/../lib/gcc/nios2-elf/5.3.0/../../../../../H-x86_64-pc-linux-gnu/nios2-elf/lib/pg/libc.a(lib_a-assert.o)
 .bss           0x000000000803a194        0x0 /package/eda/altera/altera17.0/nios2eds/bin/gnu/H-x86_64-pc-linux-gnu/bin/../lib/gcc/nios2-elf/5.3.0/../../../../../H-x86_64-pc-linux-gnu/nios2-elf/lib/pg/libc.a(lib_a-calloc.o)
 .bss           0x000000000803a194        0x0 /package/eda/altera/altera17.0/nios2eds/bin/gnu/H-x86_64-pc-linux-gnu/bin/../lib/gcc/nios2-elf/5.3.0/../../../../../H-x86_64-pc-linux-gnu/nios2-elf/lib/pg/libc.a(lib_a-callocr.o)
 .bss           0x000000000803a194        0x0 /package/eda/altera/altera17.0/nios2eds/bin/gnu/H-x86_64-pc-linux-gnu/bin/../lib/gcc/nios2-elf/5.3.0/../../../../../H-x86_64-pc-linux-gnu/nios2-elf/lib/pg/libc.a(lib_a-errno.o)
 .bss           0x000000000803a194        0x0 /package/eda/altera/altera17.0/nios2eds/bin/gnu/H-x86_64-pc-linux-gnu/bin/../lib/gcc/nios2-elf/5.3.0/../../../../../H-x86_64-pc-linux-gnu/nios2-elf/lib/pg/libc.a(lib_a-exit.o)
 .bss           0x000000000803a194        0x0 /package/eda/altera/altera17.0/nios2eds/bin/gnu/H-x86_64-pc-linux-gnu/bin/../lib/gcc/nios2-elf/5.3.0/../../../../../H-x86_64-pc-linux-gnu/nios2-elf/lib/pg/libc.a(lib_a-fclose.o)
 .bss           0x000000000803a194        0x0 /package/eda/altera/altera17.0/nios2eds/bin/gnu/H-x86_64-pc-linux-gnu/bin/../lib/gcc/nios2-elf/5.3.0/../../../../../H-x86_64-pc-linux-gnu/nios2-elf/lib/pg/libc.a(lib_a-fflush.o)
 .bss           0x000000000803a194        0x0 /package/eda/altera/altera17.0/nios2eds/bin/gnu/H-x86_64-pc-linux-gnu/bin/../lib/gcc/nios2-elf/5.3.0/../../../../../H-x86_64-pc-linux-gnu/nios2-elf/lib/pg/libc.a(lib_a-fgets.o)
 .bss           0x000000000803a194        0x0 /package/eda/altera/altera17.0/nios2eds/bin/gnu/H-x86_64-pc-linux-gnu/bin/../lib/gcc/nios2-elf/5.3.0/../../../../../H-x86_64-pc-linux-gnu/nios2-elf/lib/pg/libc.a(lib_a-fileno.o)
 .bss           0x000000000803a194        0x0 /package/eda/altera/altera17.0/nios2eds/bin/gnu/H-x86_64-pc-linux-gnu/bin/../lib/gcc/nios2-elf/5.3.0/../../../../../H-x86_64-pc-linux-gnu/nios2-elf/lib/pg/libc.a(lib_a-findfp.o)
 .bss           0x000000000803a194        0x0 /package/eda/altera/altera17.0/nios2eds/bin/gnu/H-x86_64-pc-linux-gnu/bin/../lib/gcc/nios2-elf/5.3.0/../../../../../H-x86_64-pc-linux-gnu/nios2-elf/lib/pg/libc.a(lib_a-fiprintf.o)
 .bss           0x000000000803a194        0x0 /package/eda/altera/altera17.0/nios2eds/bin/gnu/H-x86_64-pc-linux-gnu/bin/../lib/gcc/nios2-elf/5.3.0/../../../../../H-x86_64-pc-linux-gnu/nios2-elf/lib/pg/libc.a(lib_a-fopen.o)
 .bss           0x000000000803a194        0x0 /package/eda/altera/altera17.0/nios2eds/bin/gnu/H-x86_64-pc-linux-gnu/bin/../lib/gcc/nios2-elf/5.3.0/../../../../../H-x86_64-pc-linux-gnu/nios2-elf/lib/pg/libc.a(lib_a-fprintf.o)
 .bss           0x000000000803a194        0x0 /package/eda/altera/altera17.0/nios2eds/bin/gnu/H-x86_64-pc-linux-gnu/bin/../lib/gcc/nios2-elf/5.3.0/../../../../../H-x86_64-pc-linux-gnu/nios2-elf/lib/pg/libc.a(lib_a-fputc.o)
 .bss           0x000000000803a194        0x0 /package/eda/altera/altera17.0/nios2eds/bin/gnu/H-x86_64-pc-linux-gnu/bin/../lib/gcc/nios2-elf/5.3.0/../../../../../H-x86_64-pc-linux-gnu/nios2-elf/lib/pg/libc.a(lib_a-fputs.o)
 .bss           0x000000000803a194        0x0 /package/eda/altera/altera17.0/nios2eds/bin/gnu/H-x86_64-pc-linux-gnu/bin/../lib/gcc/nios2-elf/5.3.0/../../../../../H-x86_64-pc-linux-gnu/nios2-elf/lib/pg/libc.a(lib_a-fread.o)
 .bss           0x000000000803a194        0x0 /package/eda/altera/altera17.0/nios2eds/bin/gnu/H-x86_64-pc-linux-gnu/bin/../lib/gcc/nios2-elf/5.3.0/../../../../../H-x86_64-pc-linux-gnu/nios2-elf/lib/pg/libc.a(lib_a-freer.o)
 .bss           0x000000000803a194        0x0 /package/eda/altera/altera17.0/nios2eds/bin/gnu/H-x86_64-pc-linux-gnu/bin/../lib/gcc/nios2-elf/5.3.0/../../../../../H-x86_64-pc-linux-gnu/nios2-elf/lib/pg/libc.a(lib_a-fseek.o)
 .bss           0x000000000803a194        0x0 /package/eda/altera/altera17.0/nios2eds/bin/gnu/H-x86_64-pc-linux-gnu/bin/../lib/gcc/nios2-elf/5.3.0/../../../../../H-x86_64-pc-linux-gnu/nios2-elf/lib/pg/libc.a(lib_a-fseeko.o)
 .bss           0x000000000803a194        0x0 /package/eda/altera/altera17.0/nios2eds/bin/gnu/H-x86_64-pc-linux-gnu/bin/../lib/gcc/nios2-elf/5.3.0/../../../../../H-x86_64-pc-linux-gnu/nios2-elf/lib/pg/libc.a(lib_a-fstatr.o)
 .bss           0x000000000803a194        0x0 /package/eda/altera/altera17.0/nios2eds/bin/gnu/H-x86_64-pc-linux-gnu/bin/../lib/gcc/nios2-elf/5.3.0/../../../../../H-x86_64-pc-linux-gnu/nios2-elf/lib/pg/libc.a(lib_a-fvwrite.o)
 .bss           0x000000000803a194        0x0 /package/eda/altera/altera17.0/nios2eds/bin/gnu/H-x86_64-pc-linux-gnu/bin/../lib/gcc/nios2-elf/5.3.0/../../../../../H-x86_64-pc-linux-gnu/nios2-elf/lib/pg/libc.a(lib_a-fwalk.o)
 .bss           0x000000000803a194        0x0 /package/eda/altera/altera17.0/nios2eds/bin/gnu/H-x86_64-pc-linux-gnu/bin/../lib/gcc/nios2-elf/5.3.0/../../../../../H-x86_64-pc-linux-gnu/nios2-elf/lib/pg/libc.a(lib_a-fwrite.o)
 .bss           0x000000000803a194        0x0 /package/eda/altera/altera17.0/nios2eds/bin/gnu/H-x86_64-pc-linux-gnu/bin/../lib/gcc/nios2-elf/5.3.0/../../../../../H-x86_64-pc-linux-gnu/nios2-elf/lib/pg/libc.a(lib_a-impure.o)
 .bss           0x000000000803a194        0x0 /package/eda/altera/altera17.0/nios2eds/bin/gnu/H-x86_64-pc-linux-gnu/bin/../lib/gcc/nios2-elf/5.3.0/../../../../../H-x86_64-pc-linux-gnu/nios2-elf/lib/pg/libc.a(lib_a-int_errno.o)
 .bss           0x000000000803a194        0x0 /package/eda/altera/altera17.0/nios2eds/bin/gnu/H-x86_64-pc-linux-gnu/bin/../lib/gcc/nios2-elf/5.3.0/../../../../../H-x86_64-pc-linux-gnu/nios2-elf/lib/pg/libc.a(lib_a-makebuf.o)
 .bss           0x000000000803a194        0x0 /package/eda/altera/altera17.0/nios2eds/bin/gnu/H-x86_64-pc-linux-gnu/bin/../lib/gcc/nios2-elf/5.3.0/../../../../../H-x86_64-pc-linux-gnu/nios2-elf/lib/pg/libc.a(lib_a-malloc.o)
 .bss           0x000000000803a194        0x0 /package/eda/altera/altera17.0/nios2eds/bin/gnu/H-x86_64-pc-linux-gnu/bin/../lib/gcc/nios2-elf/5.3.0/../../../../../H-x86_64-pc-linux-gnu/nios2-elf/lib/pg/libc.a(lib_a-mallocr.o)
 .bss.__malloc_current_mallinfo
                0x000000000803a194       0x28 /package/eda/altera/altera17.0/nios2eds/bin/gnu/H-x86_64-pc-linux-gnu/bin/../lib/gcc/nios2-elf/5.3.0/../../../../../H-x86_64-pc-linux-gnu/nios2-elf/lib/pg/libc.a(lib_a-mallocr.o)
                0x000000000803a194                __malloc_current_mallinfo
 .bss           0x000000000803a1bc        0x0 /package/eda/altera/altera17.0/nios2eds/bin/gnu/H-x86_64-pc-linux-gnu/bin/../lib/gcc/nios2-elf/5.3.0/../../../../../H-x86_64-pc-linux-gnu/nios2-elf/lib/pg/libc.a(lib_a-memchr.o)
 .bss           0x000000000803a1bc        0x0 /package/eda/altera/altera17.0/nios2eds/bin/gnu/H-x86_64-pc-linux-gnu/bin/../lib/gcc/nios2-elf/5.3.0/../../../../../H-x86_64-pc-linux-gnu/nios2-elf/lib/pg/libc.a(lib_a-memcpy.o)
 .bss           0x000000000803a1bc        0x0 /package/eda/altera/altera17.0/nios2eds/bin/gnu/H-x86_64-pc-linux-gnu/bin/../lib/gcc/nios2-elf/5.3.0/../../../../../H-x86_64-pc-linux-gnu/nios2-elf/lib/pg/libc.a(lib_a-memmove.o)
 .bss           0x000000000803a1bc        0x0 /package/eda/altera/altera17.0/nios2eds/bin/gnu/H-x86_64-pc-linux-gnu/bin/../lib/gcc/nios2-elf/5.3.0/../../../../../H-x86_64-pc-linux-gnu/nios2-elf/lib/pg/libc.a(lib_a-memset.o)
 .bss           0x000000000803a1bc        0x0 /package/eda/altera/altera17.0/nios2eds/bin/gnu/H-x86_64-pc-linux-gnu/bin/../lib/gcc/nios2-elf/5.3.0/../../../../../H-x86_64-pc-linux-gnu/nios2-elf/lib/pg/libc.a(lib_a-openr.o)
 .bss           0x000000000803a1bc        0x0 /package/eda/altera/altera17.0/nios2eds/bin/gnu/H-x86_64-pc-linux-gnu/bin/../lib/gcc/nios2-elf/5.3.0/../../../../../H-x86_64-pc-linux-gnu/nios2-elf/lib/pg/libc.a(lib_a-printf.o)
 .bss           0x000000000803a1bc        0x0 /package/eda/altera/altera17.0/nios2eds/bin/gnu/H-x86_64-pc-linux-gnu/bin/../lib/gcc/nios2-elf/5.3.0/../../../../../H-x86_64-pc-linux-gnu/nios2-elf/lib/pg/libc.a(lib_a-putc.o)
 .bss           0x000000000803a1bc        0x0 /package/eda/altera/altera17.0/nios2eds/bin/gnu/H-x86_64-pc-linux-gnu/bin/../lib/gcc/nios2-elf/5.3.0/../../../../../H-x86_64-pc-linux-gnu/nios2-elf/lib/pg/libc.a(lib_a-realloc.o)
 .bss           0x000000000803a1bc        0x0 /package/eda/altera/altera17.0/nios2eds/bin/gnu/H-x86_64-pc-linux-gnu/bin/../lib/gcc/nios2-elf/5.3.0/../../../../../H-x86_64-pc-linux-gnu/nios2-elf/lib/pg/libc.a(lib_a-reallocr.o)
 .bss           0x000000000803a1bc        0x0 /package/eda/altera/altera17.0/nios2eds/bin/gnu/H-x86_64-pc-linux-gnu/bin/../lib/gcc/nios2-elf/5.3.0/../../../../../H-x86_64-pc-linux-gnu/nios2-elf/lib/pg/libc.a(lib_a-refill.o)
 .bss           0x000000000803a1bc        0x0 /package/eda/altera/altera17.0/nios2eds/bin/gnu/H-x86_64-pc-linux-gnu/bin/../lib/gcc/nios2-elf/5.3.0/../../../../../H-x86_64-pc-linux-gnu/nios2-elf/lib/pg/libc.a(lib_a-sbrkr.o)
 .bss           0x000000000803a1bc        0x0 /package/eda/altera/altera17.0/nios2eds/bin/gnu/H-x86_64-pc-linux-gnu/bin/../lib/gcc/nios2-elf/5.3.0/../../../../../H-x86_64-pc-linux-gnu/nios2-elf/lib/pg/libc.a(lib_a-signal.o)
 .bss           0x000000000803a1bc        0x0 /package/eda/altera/altera17.0/nios2eds/bin/gnu/H-x86_64-pc-linux-gnu/bin/../lib/gcc/nios2-elf/5.3.0/../../../../../H-x86_64-pc-linux-gnu/nios2-elf/lib/pg/libc.a(lib_a-signalr.o)
 .bss           0x000000000803a1bc        0x0 /package/eda/altera/altera17.0/nios2eds/bin/gnu/H-x86_64-pc-linux-gnu/bin/../lib/gcc/nios2-elf/5.3.0/../../../../../H-x86_64-pc-linux-gnu/nios2-elf/lib/pg/libc.a(lib_a-stdio.o)
 .bss           0x000000000803a1bc        0x0 /package/eda/altera/altera17.0/nios2eds/bin/gnu/H-x86_64-pc-linux-gnu/bin/../lib/gcc/nios2-elf/5.3.0/../../../../../H-x86_64-pc-linux-gnu/nios2-elf/lib/pg/libc.a(lib_a-strcmp.o)
 .bss           0x000000000803a1bc        0x0 /package/eda/altera/altera17.0/nios2eds/bin/gnu/H-x86_64-pc-linux-gnu/bin/../lib/gcc/nios2-elf/5.3.0/../../../../../H-x86_64-pc-linux-gnu/nios2-elf/lib/pg/libc.a(lib_a-strdup.o)
 .bss           0x000000000803a1bc        0x0 /package/eda/altera/altera17.0/nios2eds/bin/gnu/H-x86_64-pc-linux-gnu/bin/../lib/gcc/nios2-elf/5.3.0/../../../../../H-x86_64-pc-linux-gnu/nios2-elf/lib/pg/libc.a(lib_a-strdup_r.o)
 .bss           0x000000000803a1bc        0x0 /package/eda/altera/altera17.0/nios2eds/bin/gnu/H-x86_64-pc-linux-gnu/bin/../lib/gcc/nios2-elf/5.3.0/../../../../../H-x86_64-pc-linux-gnu/nios2-elf/lib/pg/libc.a(lib_a-strlen.o)
 .bss           0x000000000803a1bc        0x0 /package/eda/altera/altera17.0/nios2eds/bin/gnu/H-x86_64-pc-linux-gnu/bin/../lib/gcc/nios2-elf/5.3.0/../../../../../H-x86_64-pc-linux-gnu/nios2-elf/lib/pg/libc.a(lib_a-strncmp.o)
 .bss           0x000000000803a1bc        0x0 /package/eda/altera/altera17.0/nios2eds/bin/gnu/H-x86_64-pc-linux-gnu/bin/../lib/gcc/nios2-elf/5.3.0/../../../../../H-x86_64-pc-linux-gnu/nios2-elf/lib/pg/libc.a(lib_a-strtod.o)
 .bss           0x000000000803a1bc        0x0 /package/eda/altera/altera17.0/nios2eds/bin/gnu/H-x86_64-pc-linux-gnu/bin/../lib/gcc/nios2-elf/5.3.0/../../../../../H-x86_64-pc-linux-gnu/nios2-elf/lib/pg/libc.a(lib_a-vfiprintfr_1.o)
 .bss           0x000000000803a1bc        0x0 /package/eda/altera/altera17.0/nios2eds/bin/gnu/H-x86_64-pc-linux-gnu/bin/../lib/gcc/nios2-elf/5.3.0/../../../../../H-x86_64-pc-linux-gnu/nios2-elf/lib/pg/libc.a(lib_a-vfprintf.o)
 .bss           0x000000000803a1bc        0x0 /package/eda/altera/altera17.0/nios2eds/bin/gnu/H-x86_64-pc-linux-gnu/bin/../lib/gcc/nios2-elf/5.3.0/../../../../../H-x86_64-pc-linux-gnu/nios2-elf/lib/pg/libc.a(lib_a-wbuf.o)
 .bss           0x000000000803a1bc        0x0 /package/eda/altera/altera17.0/nios2eds/bin/gnu/H-x86_64-pc-linux-gnu/bin/../lib/gcc/nios2-elf/5.3.0/../../../../../H-x86_64-pc-linux-gnu/nios2-elf/lib/pg/libc.a(lib_a-writer.o)
 .bss           0x000000000803a1bc        0x0 /package/eda/altera/altera17.0/nios2eds/bin/gnu/H-x86_64-pc-linux-gnu/bin/../lib/gcc/nios2-elf/5.3.0/../../../../../H-x86_64-pc-linux-gnu/nios2-elf/lib/pg/libc.a(lib_a-wsetup.o)
 .bss           0x000000000803a1bc        0x0 /package/eda/altera/altera17.0/nios2eds/bin/gnu/H-x86_64-pc-linux-gnu/bin/../lib/gcc/nios2-elf/5.3.0/../../../../../H-x86_64-pc-linux-gnu/nios2-elf/lib/pg/libc.a(closer.o)
 .bss           0x000000000803a1bc        0x0 /package/eda/altera/altera17.0/nios2eds/bin/gnu/H-x86_64-pc-linux-gnu/bin/../lib/gcc/nios2-elf/5.3.0/../../../../../H-x86_64-pc-linux-gnu/nios2-elf/lib/pg/libc.a(lib_a-__call_atexit.o)
 .bss           0x000000000803a1bc        0x0 /package/eda/altera/altera17.0/nios2eds/bin/gnu/H-x86_64-pc-linux-gnu/bin/../lib/gcc/nios2-elf/5.3.0/../../../../../H-x86_64-pc-linux-gnu/nios2-elf/lib/pg/libc.a(lib_a-dtoa.o)
 .bss           0x000000000803a1bc        0x0 /package/eda/altera/altera17.0/nios2eds/bin/gnu/H-x86_64-pc-linux-gnu/bin/../lib/gcc/nios2-elf/5.3.0/../../../../../H-x86_64-pc-linux-gnu/nios2-elf/lib/pg/libc.a(lib_a-flags.o)
 .bss           0x000000000803a1bc        0x0 /package/eda/altera/altera17.0/nios2eds/bin/gnu/H-x86_64-pc-linux-gnu/bin/../lib/gcc/nios2-elf/5.3.0/../../../../../H-x86_64-pc-linux-gnu/nios2-elf/lib/pg/libc.a(lib_a-gdtoa-gethex.o)
 .bss           0x000000000803a1bc        0x0 /package/eda/altera/altera17.0/nios2eds/bin/gnu/H-x86_64-pc-linux-gnu/bin/../lib/gcc/nios2-elf/5.3.0/../../../../../H-x86_64-pc-linux-gnu/nios2-elf/lib/pg/libc.a(lib_a-gdtoa-hexnan.o)
 .bss           0x000000000803a1bc        0x0 /package/eda/altera/altera17.0/nios2eds/bin/gnu/H-x86_64-pc-linux-gnu/bin/../lib/gcc/nios2-elf/5.3.0/../../../../../H-x86_64-pc-linux-gnu/nios2-elf/lib/pg/libc.a(lib_a-isattyr.o)
 .bss           0x000000000803a1bc        0x0 /package/eda/altera/altera17.0/nios2eds/bin/gnu/H-x86_64-pc-linux-gnu/bin/../lib/gcc/nios2-elf/5.3.0/../../../../../H-x86_64-pc-linux-gnu/nios2-elf/lib/pg/libc.a(lib_a-locale.o)
 .bss           0x000000000803a1bc        0x0 /package/eda/altera/altera17.0/nios2eds/bin/gnu/H-x86_64-pc-linux-gnu/bin/../lib/gcc/nios2-elf/5.3.0/../../../../../H-x86_64-pc-linux-gnu/nios2-elf/lib/pg/libc.a(lib_a-lseekr.o)
 .bss           0x000000000803a1bc        0x0 /package/eda/altera/altera17.0/nios2eds/bin/gnu/H-x86_64-pc-linux-gnu/bin/../lib/gcc/nios2-elf/5.3.0/../../../../../H-x86_64-pc-linux-gnu/nios2-elf/lib/pg/libc.a(lib_a-mprec.o)
 .bss           0x000000000803a1bc        0x0 /package/eda/altera/altera17.0/nios2eds/bin/gnu/H-x86_64-pc-linux-gnu/bin/../lib/gcc/nios2-elf/5.3.0/../../../../../H-x86_64-pc-linux-gnu/nios2-elf/lib/pg/libc.a(lib_a-readr.o)
 .bss           0x000000000803a1bc        0x0 /package/eda/altera/altera17.0/nios2eds/bin/gnu/H-x86_64-pc-linux-gnu/bin/../lib/gcc/nios2-elf/5.3.0/../../../../../H-x86_64-pc-linux-gnu/nios2-elf/lib/pg/libc.a(lib_a-vfiprintf.o)
 .bss           0x000000000803a1bc        0x0 /package/eda/altera/altera17.0/nios2eds/bin/gnu/H-x86_64-pc-linux-gnu/bin/../lib/gcc/nios2-elf/5.3.0/../../../../../H-x86_64-pc-linux-gnu/nios2-elf/lib/pg/libc.a(lib_a-fputwc.o)
 .bss           0x000000000803a1bc        0x0 /package/eda/altera/altera17.0/nios2eds/bin/gnu/H-x86_64-pc-linux-gnu/bin/../lib/gcc/nios2-elf/5.3.0/../../../../../H-x86_64-pc-linux-gnu/nios2-elf/lib/pg/libc.a(lib_a-wcrtomb.o)
 .bss           0x000000000803a1bc        0x0 /package/eda/altera/altera17.0/nios2eds/bin/gnu/H-x86_64-pc-linux-gnu/bin/../lib/gcc/nios2-elf/5.3.0/../../../../../H-x86_64-pc-linux-gnu/nios2-elf/lib/pg/libc.a(lib_a-wctomb_r.o)
 .bss           0x000000000803a1bc        0x0 /package/eda/altera/altera17.0/nios2eds/bin/gnu/H-x86_64-pc-linux-gnu/bin/../lib/gcc/nios2-elf/5.3.0/pg/libgcc.a(_fixunsdfsi.o)
 .bss           0x000000000803a1bc        0x0 /package/eda/altera/altera17.0/nios2eds/bin/gnu/H-x86_64-pc-linux-gnu/bin/../lib/gcc/nios2-elf/5.3.0/pg/libgcc.a(_udivdi3.o)
 .bss           0x000000000803a1bc        0x0 /package/eda/altera/altera17.0/nios2eds/bin/gnu/H-x86_64-pc-linux-gnu/bin/../lib/gcc/nios2-elf/5.3.0/pg/libgcc.a(_umoddi3.o)
 .bss           0x000000000803a1bc        0x0 /package/eda/altera/altera17.0/nios2eds/bin/gnu/H-x86_64-pc-linux-gnu/bin/../lib/gcc/nios2-elf/5.3.0/pg/libgcc.a(floatunsidf.o)
 .bss           0x000000000803a1bc        0x0 ../MNIST_CNN_Software_bsp//libhal_bsp.a(alt_close.o)
 .bss           0x000000000803a1bc        0x0 ../MNIST_CNN_Software_bsp//libhal_bsp.a(alt_dev.o)
 .bss           0x000000000803a1bc        0x0 ../MNIST_CNN_Software_bsp//libhal_bsp.a(alt_errno.o)
 .bss           0x000000000803a1bc        0x0 ../MNIST_CNN_Software_bsp//libhal_bsp.a(alt_exit.o)
 .bss           0x000000000803a1bc        0x0 ../MNIST_CNN_Software_bsp//libhal_bsp.a(alt_fstat.o)
 .bss           0x000000000803a1bc        0x0 ../MNIST_CNN_Software_bsp//libhal_bsp.a(alt_getpid.o)
 .bss           0x000000000803a1bc       0x18 ../MNIST_CNN_Software_bsp//libhal_bsp.a(alt_gmon.o)
 .bss           0x000000000803a1d4        0x0 ../MNIST_CNN_Software_bsp//libhal_bsp.a(alt_isatty.o)
 .bss           0x000000000803a1d4        0x0 ../MNIST_CNN_Software_bsp//libhal_bsp.a(alt_kill.o)
 .bss           0x000000000803a1d4        0x0 ../MNIST_CNN_Software_bsp//libhal_bsp.a(alt_load.o)
 .bss           0x000000000803a1d4        0x0 ../MNIST_CNN_Software_bsp//libhal_bsp.a(alt_lseek.o)
 .bss           0x000000000803a1d4        0x0 ../MNIST_CNN_Software_bsp//libhal_bsp.a(alt_main.o)
 .bss           0x000000000803a1d4        0x0 ../MNIST_CNN_Software_bsp//libhal_bsp.a(alt_malloc_lock.o)
 .bss           0x000000000803a1d4        0x0 ../MNIST_CNN_Software_bsp//libhal_bsp.a(alt_mcount.o)
 .bss           0x000000000803a1d4        0x0 ../MNIST_CNN_Software_bsp//libhal_bsp.a(alt_open.o)
 .bss           0x000000000803a1d4        0x0 ../MNIST_CNN_Software_bsp//libhal_bsp.a(alt_read.o)
 .bss           0x000000000803a1d4        0x0 ../MNIST_CNN_Software_bsp//libhal_bsp.a(alt_release_fd.o)
 .bss           0x000000000803a1d4        0x0 ../MNIST_CNN_Software_bsp//libhal_bsp.a(alt_sbrk.o)
 .bss           0x000000000803a1d4        0x0 ../MNIST_CNN_Software_bsp//libhal_bsp.a(alt_tick.o)
 .bss           0x000000000803a1d4        0x0 ../MNIST_CNN_Software_bsp//libhal_bsp.a(alt_write.o)
 .bss           0x000000000803a1d4        0x0 ../MNIST_CNN_Software_bsp//libhal_bsp.a(alt_sys_init.o)
 .bss           0x000000000803a1d4        0x0 ../MNIST_CNN_Software_bsp//libhal_bsp.a(altera_avalon_cfi_flash.o)
 .bss           0x000000000803a1d4        0x0 ../MNIST_CNN_Software_bsp//libhal_bsp.a(altera_avalon_cfi_flash_table.o)
 .bss           0x000000000803a1d4        0x0 ../MNIST_CNN_Software_bsp//libhal_bsp.a(altera_avalon_jtag_uart_fd.o)
 .bss           0x000000000803a1d4        0x0 ../MNIST_CNN_Software_bsp//libhal_bsp.a(altera_avalon_jtag_uart_init.o)
 .bss           0x000000000803a1d4        0x0 ../MNIST_CNN_Software_bsp//libhal_bsp.a(altera_avalon_jtag_uart_ioctl.o)
 .bss           0x000000000803a1d4        0x0 ../MNIST_CNN_Software_bsp//libhal_bsp.a(altera_avalon_jtag_uart_read.o)
 .bss           0x000000000803a1d4        0x0 ../MNIST_CNN_Software_bsp//libhal_bsp.a(altera_avalon_jtag_uart_write.o)
 .bss           0x000000000803a1d4        0x0 ../MNIST_CNN_Software_bsp//libhal_bsp.a(altera_avalon_timer_sc.o)
 .bss           0x000000000803a1d4        0x0 ../MNIST_CNN_Software_bsp//libhal_bsp.a(altera_ro_zipfs.o)
 .bss           0x000000000803a1d4        0x0 ../MNIST_CNN_Software_bsp//libhal_bsp.a(altera_up_avalon_video_character_buffer_with_dma.o)
 .bss           0x000000000803a1d4        0x0 ../MNIST_CNN_Software_bsp//libhal_bsp.a(altera_up_avalon_video_pixel_buffer_dma.o)
 .bss           0x000000000803a1d4        0x0 ../MNIST_CNN_Software_bsp//libhal_bsp.a(alt_alarm_start.o)
 .bss           0x000000000803a1d4        0x0 ../MNIST_CNN_Software_bsp//libhal_bsp.a(alt_dcache_flush.o)
 .bss           0x000000000803a1d4        0x0 ../MNIST_CNN_Software_bsp//libhal_bsp.a(alt_dcache_flush_all.o)
 .bss           0x000000000803a1d4        0x0 ../MNIST_CNN_Software_bsp//libhal_bsp.a(alt_dev_llist_insert.o)
 .bss           0x000000000803a1d4        0x0 ../MNIST_CNN_Software_bsp//libhal_bsp.a(alt_do_ctors.o)
 .bss           0x000000000803a1d4        0x0 ../MNIST_CNN_Software_bsp//libhal_bsp.a(alt_do_dtors.o)
 .bss           0x000000000803a1d4        0x0 ../MNIST_CNN_Software_bsp//libhal_bsp.a(alt_find_dev.o)
 .bss           0x000000000803a1d4        0x0 ../MNIST_CNN_Software_bsp//libhal_bsp.a(alt_find_file.o)
 .bss           0x000000000803a1d4        0x0 ../MNIST_CNN_Software_bsp//libhal_bsp.a(alt_flash_dev.o)
 .bss           0x000000000803a1d4        0x0 ../MNIST_CNN_Software_bsp//libhal_bsp.a(alt_fs_reg.o)
 .bss           0x000000000803a1d4        0x0 ../MNIST_CNN_Software_bsp//libhal_bsp.a(alt_get_fd.o)
 .bss           0x000000000803a1d4        0x0 ../MNIST_CNN_Software_bsp//libhal_bsp.a(alt_icache_flush_all.o)
 .bss           0x000000000803a1d4        0x0 ../MNIST_CNN_Software_bsp//libhal_bsp.a(alt_iic.o)
 .bss           0x000000000803a1d4        0x0 ../MNIST_CNN_Software_bsp//libhal_bsp.a(alt_iic_isr_register.o)
 .bss           0x000000000803a1d4        0x0 ../MNIST_CNN_Software_bsp//libhal_bsp.a(alt_io_redirect.o)
 .bss           0x000000000803a1d4        0x0 ../MNIST_CNN_Software_bsp//libhal_bsp.a(alt_irq_entry.o)
 .bss           0x000000000803a1d4        0x0 ../MNIST_CNN_Software_bsp//libhal_bsp.a(alt_irq_handler.o)
 .bss           0x000000000803a1d4        0x0 ../MNIST_CNN_Software_bsp//libhal_bsp.a(alt_irq_vars.o)
 .bss           0x000000000803a1d4        0x0 ../MNIST_CNN_Software_bsp//libhal_bsp.a(altera_nios2_qsys_irq.o)
 .bss           0x000000000803a1d4        0x0 ../MNIST_CNN_Software_bsp//libhal_bsp.a(altera_avalon_cfi_flash_amd.o)
 .bss           0x000000000803a1d4        0x0 ../MNIST_CNN_Software_bsp//libhal_bsp.a(altera_avalon_cfi_flash_intel.o)
 .bss           0x000000000803a1d4        0x0 ../MNIST_CNN_Software_bsp//libhal_bsp.a(alt_exception_entry.o)
 .bss           0x000000000803a1d4        0x0 ../MNIST_CNN_Software_bsp//libhal_bsp.a(alt_icache_flush.o)
 .bss           0x000000000803a1d4        0x0 ../MNIST_CNN_Software_bsp//libhal_bsp.a(alt_usleep.o)
 .bss           0x000000000803a1d4        0x0 ../MNIST_CNN_Software_bsp//libhal_bsp.a(alt_busy_sleep.o)
 .bss           0x000000000803a1d4        0x0 /package/eda/altera/altera17.0/nios2eds/bin/gnu/H-x86_64-pc-linux-gnu/bin/../lib/gcc/nios2-elf/5.3.0/../../../../../H-x86_64-pc-linux-gnu/nios2-elf/lib/pg/libc.a(lib_a-atexit.o)
 .bss           0x000000000803a1d4        0x0 /package/eda/altera/altera17.0/nios2eds/bin/gnu/H-x86_64-pc-linux-gnu/bin/../lib/gcc/nios2-elf/5.3.0/../../../../../H-x86_64-pc-linux-gnu/nios2-elf/lib/pg/libc.a(lib_a-memcmp.o)
 .bss           0x000000000803a1d4        0x0 /package/eda/altera/altera17.0/nios2eds/bin/gnu/H-x86_64-pc-linux-gnu/bin/../lib/gcc/nios2-elf/5.3.0/../../../../../H-x86_64-pc-linux-gnu/nios2-elf/lib/pg/libc.a(lib_a-__atexit.o)
 *(COMMON)
 COMMON         0x000000000803a1d4      0x100 ../MNIST_CNN_Software_bsp//libhal_bsp.a(alt_gmon.o)
                0x000000000803a1d4                __mcount_fn_head
 COMMON         0x000000000803a2d4      0x100 ../MNIST_CNN_Software_bsp//libhal_bsp.a(alt_irq_handler.o)
                0x000000000803a2d4                alt_irq
                0x000000000803a3d4                . = ALIGN (0x4)
                0x000000000803a3d4                __bss_end = ABSOLUTE (.)

.new_sdram_controller_0
                0x000000000803a3d4        0x0
                [!provide]                        PROVIDE (_alt_partition_new_sdram_controller_0_start, ABSOLUTE (.))
 *(.new_sdram_controller_0 .new_sdram_controller_0. new_sdram_controller_0.*)
                0x000000000803a3d4                . = ALIGN (0x4)
                [!provide]                        PROVIDE (_alt_partition_new_sdram_controller_0_end, ABSOLUTE (.))
                0x000000000803a3d4                _end = ABSOLUTE (.)
                0x000000000803a3d4                end = ABSOLUTE (.)
                0x000000000803a3d4                __alt_stack_base = ABSOLUTE (.)
                [!provide]                        PROVIDE (_alt_partition_new_sdram_controller_0_load_addr, LOADADDR (.new_sdram_controller_0))

.generic_tristate_controller_0
                0x0000000010000000        0x0 load address 0x000000000803a3d4
                [!provide]                        PROVIDE (_alt_partition_generic_tristate_controller_0_start, ABSOLUTE (.))
 *(.generic_tristate_controller_0 .generic_tristate_controller_0. generic_tristate_controller_0.*)
                0x0000000010000000                . = ALIGN (0x4)
                [!provide]                        PROVIDE (_alt_partition_generic_tristate_controller_0_end, ABSOLUTE (.))
                [!provide]                        PROVIDE (_alt_partition_generic_tristate_controller_0_load_addr, LOADADDR (.generic_tristate_controller_0))

.stab
 *(.stab)

.stabstr
 *(.stabstr)

.stab.excl
 *(.stab.excl)

.stab.exclstr
 *(.stab.exclstr)

.stab.index
 *(.stab.index)

.stab.indexstr
 *(.stab.indexstr)

.comment        0x0000000000000000       0x23
 *(.comment)
 .comment       0x0000000000000000       0x23 obj/default/kann.o
                                         0x24 (size before relaxing)
 .comment       0x0000000000000023       0x24 obj/default/kann_data.o
 .comment       0x0000000000000023       0x24 obj/default/kautodiff.o
 .comment       0x0000000000000023       0x24 obj/default/mnist-cnn.o
 .comment       0x0000000000000023       0x24 /package/eda/altera/altera17.0/nios2eds/bin/gnu/H-x86_64-pc-linux-gnu/bin/../lib/gcc/nios2-elf/5.3.0/../../../../../H-x86_64-pc-linux-gnu/nios2-elf/lib/pg/libm.a(lib_a-sf_cos.o)
 .comment       0x0000000000000023       0x24 /package/eda/altera/altera17.0/nios2eds/bin/gnu/H-x86_64-pc-linux-gnu/bin/../lib/gcc/nios2-elf/5.3.0/../../../../../H-x86_64-pc-linux-gnu/nios2-elf/lib/pg/libm.a(lib_a-sf_sin.o)
 .comment       0x0000000000000023       0x24 /package/eda/altera/altera17.0/nios2eds/bin/gnu/H-x86_64-pc-linux-gnu/bin/../lib/gcc/nios2-elf/5.3.0/../../../../../H-x86_64-pc-linux-gnu/nios2-elf/lib/pg/libm.a(lib_a-w_log.o)
 .comment       0x0000000000000023       0x24 /package/eda/altera/altera17.0/nios2eds/bin/gnu/H-x86_64-pc-linux-gnu/bin/../lib/gcc/nios2-elf/5.3.0/../../../../../H-x86_64-pc-linux-gnu/nios2-elf/lib/pg/libm.a(lib_a-w_sqrt.o)
 .comment       0x0000000000000023       0x24 /package/eda/altera/altera17.0/nios2eds/bin/gnu/H-x86_64-pc-linux-gnu/bin/../lib/gcc/nios2-elf/5.3.0/../../../../../H-x86_64-pc-linux-gnu/nios2-elf/lib/pg/libm.a(lib_a-wf_exp.o)
 .comment       0x0000000000000023       0x24 /package/eda/altera/altera17.0/nios2eds/bin/gnu/H-x86_64-pc-linux-gnu/bin/../lib/gcc/nios2-elf/5.3.0/../../../../../H-x86_64-pc-linux-gnu/nios2-elf/lib/pg/libm.a(lib_a-wf_log.o)
 .comment       0x0000000000000023       0x24 /package/eda/altera/altera17.0/nios2eds/bin/gnu/H-x86_64-pc-linux-gnu/bin/../lib/gcc/nios2-elf/5.3.0/../../../../../H-x86_64-pc-linux-gnu/nios2-elf/lib/pg/libm.a(lib_a-wf_sqrt.o)
 .comment       0x0000000000000023       0x24 /package/eda/altera/altera17.0/nios2eds/bin/gnu/H-x86_64-pc-linux-gnu/bin/../lib/gcc/nios2-elf/5.3.0/../../../../../H-x86_64-pc-linux-gnu/nios2-elf/lib/pg/libm.a(lib_a-e_log.o)
 .comment       0x0000000000000023       0x24 /package/eda/altera/altera17.0/nios2eds/bin/gnu/H-x86_64-pc-linux-gnu/bin/../lib/gcc/nios2-elf/5.3.0/../../../../../H-x86_64-pc-linux-gnu/nios2-elf/lib/pg/libm.a(lib_a-e_sqrt.o)
 .comment       0x0000000000000023       0x24 /package/eda/altera/altera17.0/nios2eds/bin/gnu/H-x86_64-pc-linux-gnu/bin/../lib/gcc/nios2-elf/5.3.0/../../../../../H-x86_64-pc-linux-gnu/nios2-elf/lib/pg/libm.a(lib_a-ef_exp.o)
 .comment       0x0000000000000023       0x24 /package/eda/altera/altera17.0/nios2eds/bin/gnu/H-x86_64-pc-linux-gnu/bin/../lib/gcc/nios2-elf/5.3.0/../../../../../H-x86_64-pc-linux-gnu/nios2-elf/lib/pg/libm.a(lib_a-ef_log.o)
 .comment       0x0000000000000023       0x24 /package/eda/altera/altera17.0/nios2eds/bin/gnu/H-x86_64-pc-linux-gnu/bin/../lib/gcc/nios2-elf/5.3.0/../../../../../H-x86_64-pc-linux-gnu/nios2-elf/lib/pg/libm.a(lib_a-ef_rem_pio2.o)
 .comment       0x0000000000000023       0x24 /package/eda/altera/altera17.0/nios2eds/bin/gnu/H-x86_64-pc-linux-gnu/bin/../lib/gcc/nios2-elf/5.3.0/../../../../../H-x86_64-pc-linux-gnu/nios2-elf/lib/pg/libm.a(lib_a-ef_sqrt.o)
 .comment       0x0000000000000023       0x24 /package/eda/altera/altera17.0/nios2eds/bin/gnu/H-x86_64-pc-linux-gnu/bin/../lib/gcc/nios2-elf/5.3.0/../../../../../H-x86_64-pc-linux-gnu/nios2-elf/lib/pg/libm.a(lib_a-kf_cos.o)
 .comment       0x0000000000000023       0x24 /package/eda/altera/altera17.0/nios2eds/bin/gnu/H-x86_64-pc-linux-gnu/bin/../lib/gcc/nios2-elf/5.3.0/../../../../../H-x86_64-pc-linux-gnu/nios2-elf/lib/pg/libm.a(lib_a-kf_rem_pio2.o)
 .comment       0x0000000000000023       0x24 /package/eda/altera/altera17.0/nios2eds/bin/gnu/H-x86_64-pc-linux-gnu/bin/../lib/gcc/nios2-elf/5.3.0/../../../../../H-x86_64-pc-linux-gnu/nios2-elf/lib/pg/libm.a(lib_a-kf_sin.o)
 .comment       0x0000000000000023       0x24 /package/eda/altera/altera17.0/nios2eds/bin/gnu/H-x86_64-pc-linux-gnu/bin/../lib/gcc/nios2-elf/5.3.0/../../../../../H-x86_64-pc-linux-gnu/nios2-elf/lib/pg/libm.a(lib_a-s_fpclassify.o)
 .comment       0x0000000000000023       0x24 /package/eda/altera/altera17.0/nios2eds/bin/gnu/H-x86_64-pc-linux-gnu/bin/../lib/gcc/nios2-elf/5.3.0/../../../../../H-x86_64-pc-linux-gnu/nios2-elf/lib/pg/libm.a(lib_a-s_lib_ver.o)
 .comment       0x0000000000000023       0x24 /package/eda/altera/altera17.0/nios2eds/bin/gnu/H-x86_64-pc-linux-gnu/bin/../lib/gcc/nios2-elf/5.3.0/../../../../../H-x86_64-pc-linux-gnu/nios2-elf/lib/pg/libm.a(lib_a-s_matherr.o)
 .comment       0x0000000000000023       0x24 /package/eda/altera/altera17.0/nios2eds/bin/gnu/H-x86_64-pc-linux-gnu/bin/../lib/gcc/nios2-elf/5.3.0/../../../../../H-x86_64-pc-linux-gnu/nios2-elf/lib/pg/libm.a(lib_a-s_nan.o)
 .comment       0x0000000000000023       0x24 /package/eda/altera/altera17.0/nios2eds/bin/gnu/H-x86_64-pc-linux-gnu/bin/../lib/gcc/nios2-elf/5.3.0/../../../../../H-x86_64-pc-linux-gnu/nios2-elf/lib/pg/libm.a(lib_a-sf_fabs.o)
 .comment       0x0000000000000023       0x24 /package/eda/altera/altera17.0/nios2eds/bin/gnu/H-x86_64-pc-linux-gnu/bin/../lib/gcc/nios2-elf/5.3.0/../../../../../H-x86_64-pc-linux-gnu/nios2-elf/lib/pg/libm.a(lib_a-sf_finite.o)
 .comment       0x0000000000000023       0x24 /package/eda/altera/altera17.0/nios2eds/bin/gnu/H-x86_64-pc-linux-gnu/bin/../lib/gcc/nios2-elf/5.3.0/../../../../../H-x86_64-pc-linux-gnu/nios2-elf/lib/pg/libm.a(lib_a-sf_floor.o)
 .comment       0x0000000000000023       0x24 /package/eda/altera/altera17.0/nios2eds/bin/gnu/H-x86_64-pc-linux-gnu/bin/../lib/gcc/nios2-elf/5.3.0/../../../../../H-x86_64-pc-linux-gnu/nios2-elf/lib/pg/libm.a(lib_a-sf_fpclassify.o)
 .comment       0x0000000000000023       0x24 /package/eda/altera/altera17.0/nios2eds/bin/gnu/H-x86_64-pc-linux-gnu/bin/../lib/gcc/nios2-elf/5.3.0/../../../../../H-x86_64-pc-linux-gnu/nios2-elf/lib/pg/libm.a(lib_a-sf_scalbn.o)
 .comment       0x0000000000000023       0x24 /package/eda/altera/altera17.0/nios2eds/bin/gnu/H-x86_64-pc-linux-gnu/bin/../lib/gcc/nios2-elf/5.3.0/../../../../../H-x86_64-pc-linux-gnu/nios2-elf/lib/pg/libm.a(lib_a-sf_copysign.o)
 .comment       0x0000000000000023       0x24 /package/eda/altera/altera17.0/nios2eds/bin/gnu/H-x86_64-pc-linux-gnu/bin/../lib/gcc/nios2-elf/5.3.0/pg/libgcc.a(_muldi3.o)
 .comment       0x0000000000000023       0x24 /package/eda/altera/altera17.0/nios2eds/bin/gnu/H-x86_64-pc-linux-gnu/bin/../lib/gcc/nios2-elf/5.3.0/pg/libgcc.a(_fixunssfsi.o)
 .comment       0x0000000000000023       0x24 /package/eda/altera/altera17.0/nios2eds/bin/gnu/H-x86_64-pc-linux-gnu/bin/../lib/gcc/nios2-elf/5.3.0/pg/libgcc.a(lib2-divmod.o)
 .comment       0x0000000000000023       0x24 /package/eda/altera/altera17.0/nios2eds/bin/gnu/H-x86_64-pc-linux-gnu/bin/../lib/gcc/nios2-elf/5.3.0/pg/libgcc.a(lib2-divtable.o)
 .comment       0x0000000000000023       0x24 /package/eda/altera/altera17.0/nios2eds/bin/gnu/H-x86_64-pc-linux-gnu/bin/../lib/gcc/nios2-elf/5.3.0/pg/libgcc.a(addsf3.o)
 .comment       0x0000000000000023       0x24 /package/eda/altera/altera17.0/nios2eds/bin/gnu/H-x86_64-pc-linux-gnu/bin/../lib/gcc/nios2-elf/5.3.0/pg/libgcc.a(divsf3.o)
 .comment       0x0000000000000023       0x24 /package/eda/altera/altera17.0/nios2eds/bin/gnu/H-x86_64-pc-linux-gnu/bin/../lib/gcc/nios2-elf/5.3.0/pg/libgcc.a(eqsf2.o)
 .comment       0x0000000000000023       0x24 /package/eda/altera/altera17.0/nios2eds/bin/gnu/H-x86_64-pc-linux-gnu/bin/../lib/gcc/nios2-elf/5.3.0/pg/libgcc.a(gesf2.o)
 .comment       0x0000000000000023       0x24 /package/eda/altera/altera17.0/nios2eds/bin/gnu/H-x86_64-pc-linux-gnu/bin/../lib/gcc/nios2-elf/5.3.0/pg/libgcc.a(lesf2.o)
 .comment       0x0000000000000023       0x24 /package/eda/altera/altera17.0/nios2eds/bin/gnu/H-x86_64-pc-linux-gnu/bin/../lib/gcc/nios2-elf/5.3.0/pg/libgcc.a(mulsf3.o)
 .comment       0x0000000000000023       0x24 /package/eda/altera/altera17.0/nios2eds/bin/gnu/H-x86_64-pc-linux-gnu/bin/../lib/gcc/nios2-elf/5.3.0/pg/libgcc.a(subsf3.o)
 .comment       0x0000000000000023       0x24 /package/eda/altera/altera17.0/nios2eds/bin/gnu/H-x86_64-pc-linux-gnu/bin/../lib/gcc/nios2-elf/5.3.0/pg/libgcc.a(fixsfsi.o)
 .comment       0x0000000000000023       0x24 /package/eda/altera/altera17.0/nios2eds/bin/gnu/H-x86_64-pc-linux-gnu/bin/../lib/gcc/nios2-elf/5.3.0/pg/libgcc.a(floatsisf.o)
 .comment       0x0000000000000023       0x24 /package/eda/altera/altera17.0/nios2eds/bin/gnu/H-x86_64-pc-linux-gnu/bin/../lib/gcc/nios2-elf/5.3.0/pg/libgcc.a(adddf3.o)
 .comment       0x0000000000000023       0x24 /package/eda/altera/altera17.0/nios2eds/bin/gnu/H-x86_64-pc-linux-gnu/bin/../lib/gcc/nios2-elf/5.3.0/pg/libgcc.a(divdf3.o)
 .comment       0x0000000000000023       0x24 /package/eda/altera/altera17.0/nios2eds/bin/gnu/H-x86_64-pc-linux-gnu/bin/../lib/gcc/nios2-elf/5.3.0/pg/libgcc.a(eqdf2.o)
 .comment       0x0000000000000023       0x24 /package/eda/altera/altera17.0/nios2eds/bin/gnu/H-x86_64-pc-linux-gnu/bin/../lib/gcc/nios2-elf/5.3.0/pg/libgcc.a(gedf2.o)
 .comment       0x0000000000000023       0x24 /package/eda/altera/altera17.0/nios2eds/bin/gnu/H-x86_64-pc-linux-gnu/bin/../lib/gcc/nios2-elf/5.3.0/pg/libgcc.a(ledf2.o)
 .comment       0x0000000000000023       0x24 /package/eda/altera/altera17.0/nios2eds/bin/gnu/H-x86_64-pc-linux-gnu/bin/../lib/gcc/nios2-elf/5.3.0/pg/libgcc.a(muldf3.o)
 .comment       0x0000000000000023       0x24 /package/eda/altera/altera17.0/nios2eds/bin/gnu/H-x86_64-pc-linux-gnu/bin/../lib/gcc/nios2-elf/5.3.0/pg/libgcc.a(subdf3.o)
 .comment       0x0000000000000023       0x24 /package/eda/altera/altera17.0/nios2eds/bin/gnu/H-x86_64-pc-linux-gnu/bin/../lib/gcc/nios2-elf/5.3.0/pg/libgcc.a(fixdfsi.o)
 .comment       0x0000000000000023       0x24 /package/eda/altera/altera17.0/nios2eds/bin/gnu/H-x86_64-pc-linux-gnu/bin/../lib/gcc/nios2-elf/5.3.0/pg/libgcc.a(floatsidf.o)
 .comment       0x0000000000000023       0x24 /package/eda/altera/altera17.0/nios2eds/bin/gnu/H-x86_64-pc-linux-gnu/bin/../lib/gcc/nios2-elf/5.3.0/pg/libgcc.a(extendsfdf2.o)
 .comment       0x0000000000000023       0x24 /package/eda/altera/altera17.0/nios2eds/bin/gnu/H-x86_64-pc-linux-gnu/bin/../lib/gcc/nios2-elf/5.3.0/pg/libgcc.a(truncdfsf2.o)
 .comment       0x0000000000000023       0x24 /package/eda/altera/altera17.0/nios2eds/bin/gnu/H-x86_64-pc-linux-gnu/bin/../lib/gcc/nios2-elf/5.3.0/pg/libgcc.a(_clzsi2.o)
 .comment       0x0000000000000023       0x24 /package/eda/altera/altera17.0/nios2eds/bin/gnu/H-x86_64-pc-linux-gnu/bin/../lib/gcc/nios2-elf/5.3.0/pg/libgcc.a(_clz.o)
 .comment       0x0000000000000023       0x24 /package/eda/altera/altera17.0/nios2eds/bin/gnu/H-x86_64-pc-linux-gnu/bin/../lib/gcc/nios2-elf/5.3.0/../../../../../H-x86_64-pc-linux-gnu/nios2-elf/lib/pg/libc.a(lib_a-abort.o)
 .comment       0x0000000000000023       0x24 /package/eda/altera/altera17.0/nios2eds/bin/gnu/H-x86_64-pc-linux-gnu/bin/../lib/gcc/nios2-elf/5.3.0/../../../../../H-x86_64-pc-linux-gnu/nios2-elf/lib/pg/libc.a(lib_a-assert.o)
 .comment       0x0000000000000023       0x24 /package/eda/altera/altera17.0/nios2eds/bin/gnu/H-x86_64-pc-linux-gnu/bin/../lib/gcc/nios2-elf/5.3.0/../../../../../H-x86_64-pc-linux-gnu/nios2-elf/lib/pg/libc.a(lib_a-calloc.o)
 .comment       0x0000000000000023       0x24 /package/eda/altera/altera17.0/nios2eds/bin/gnu/H-x86_64-pc-linux-gnu/bin/../lib/gcc/nios2-elf/5.3.0/../../../../../H-x86_64-pc-linux-gnu/nios2-elf/lib/pg/libc.a(lib_a-callocr.o)
 .comment       0x0000000000000023       0x24 /package/eda/altera/altera17.0/nios2eds/bin/gnu/H-x86_64-pc-linux-gnu/bin/../lib/gcc/nios2-elf/5.3.0/../../../../../H-x86_64-pc-linux-gnu/nios2-elf/lib/pg/libc.a(lib_a-errno.o)
 .comment       0x0000000000000023       0x24 /package/eda/altera/altera17.0/nios2eds/bin/gnu/H-x86_64-pc-linux-gnu/bin/../lib/gcc/nios2-elf/5.3.0/../../../../../H-x86_64-pc-linux-gnu/nios2-elf/lib/pg/libc.a(lib_a-exit.o)
 .comment       0x0000000000000023       0x24 /package/eda/altera/altera17.0/nios2eds/bin/gnu/H-x86_64-pc-linux-gnu/bin/../lib/gcc/nios2-elf/5.3.0/../../../../../H-x86_64-pc-linux-gnu/nios2-elf/lib/pg/libc.a(lib_a-fclose.o)
 .comment       0x0000000000000023       0x24 /package/eda/altera/altera17.0/nios2eds/bin/gnu/H-x86_64-pc-linux-gnu/bin/../lib/gcc/nios2-elf/5.3.0/../../../../../H-x86_64-pc-linux-gnu/nios2-elf/lib/pg/libc.a(lib_a-fflush.o)
 .comment       0x0000000000000023       0x24 /package/eda/altera/altera17.0/nios2eds/bin/gnu/H-x86_64-pc-linux-gnu/bin/../lib/gcc/nios2-elf/5.3.0/../../../../../H-x86_64-pc-linux-gnu/nios2-elf/lib/pg/libc.a(lib_a-fgets.o)
 .comment       0x0000000000000023       0x24 /package/eda/altera/altera17.0/nios2eds/bin/gnu/H-x86_64-pc-linux-gnu/bin/../lib/gcc/nios2-elf/5.3.0/../../../../../H-x86_64-pc-linux-gnu/nios2-elf/lib/pg/libc.a(lib_a-fileno.o)
 .comment       0x0000000000000023       0x24 /package/eda/altera/altera17.0/nios2eds/bin/gnu/H-x86_64-pc-linux-gnu/bin/../lib/gcc/nios2-elf/5.3.0/../../../../../H-x86_64-pc-linux-gnu/nios2-elf/lib/pg/libc.a(lib_a-findfp.o)
 .comment       0x0000000000000023       0x24 /package/eda/altera/altera17.0/nios2eds/bin/gnu/H-x86_64-pc-linux-gnu/bin/../lib/gcc/nios2-elf/5.3.0/../../../../../H-x86_64-pc-linux-gnu/nios2-elf/lib/pg/libc.a(lib_a-fiprintf.o)
 .comment       0x0000000000000023       0x24 /package/eda/altera/altera17.0/nios2eds/bin/gnu/H-x86_64-pc-linux-gnu/bin/../lib/gcc/nios2-elf/5.3.0/../../../../../H-x86_64-pc-linux-gnu/nios2-elf/lib/pg/libc.a(lib_a-fopen.o)
 .comment       0x0000000000000023       0x24 /package/eda/altera/altera17.0/nios2eds/bin/gnu/H-x86_64-pc-linux-gnu/bin/../lib/gcc/nios2-elf/5.3.0/../../../../../H-x86_64-pc-linux-gnu/nios2-elf/lib/pg/libc.a(lib_a-fprintf.o)
 .comment       0x0000000000000023       0x24 /package/eda/altera/altera17.0/nios2eds/bin/gnu/H-x86_64-pc-linux-gnu/bin/../lib/gcc/nios2-elf/5.3.0/../../../../../H-x86_64-pc-linux-gnu/nios2-elf/lib/pg/libc.a(lib_a-fputc.o)
 .comment       0x0000000000000023       0x24 /package/eda/altera/altera17.0/nios2eds/bin/gnu/H-x86_64-pc-linux-gnu/bin/../lib/gcc/nios2-elf/5.3.0/../../../../../H-x86_64-pc-linux-gnu/nios2-elf/lib/pg/libc.a(lib_a-fputs.o)
 .comment       0x0000000000000023       0x24 /package/eda/altera/altera17.0/nios2eds/bin/gnu/H-x86_64-pc-linux-gnu/bin/../lib/gcc/nios2-elf/5.3.0/../../../../../H-x86_64-pc-linux-gnu/nios2-elf/lib/pg/libc.a(lib_a-fread.o)
 .comment       0x0000000000000023       0x24 /package/eda/altera/altera17.0/nios2eds/bin/gnu/H-x86_64-pc-linux-gnu/bin/../lib/gcc/nios2-elf/5.3.0/../../../../../H-x86_64-pc-linux-gnu/nios2-elf/lib/pg/libc.a(lib_a-freer.o)
 .comment       0x0000000000000023       0x24 /package/eda/altera/altera17.0/nios2eds/bin/gnu/H-x86_64-pc-linux-gnu/bin/../lib/gcc/nios2-elf/5.3.0/../../../../../H-x86_64-pc-linux-gnu/nios2-elf/lib/pg/libc.a(lib_a-fseek.o)
 .comment       0x0000000000000023       0x24 /package/eda/altera/altera17.0/nios2eds/bin/gnu/H-x86_64-pc-linux-gnu/bin/../lib/gcc/nios2-elf/5.3.0/../../../../../H-x86_64-pc-linux-gnu/nios2-elf/lib/pg/libc.a(lib_a-fseeko.o)
 .comment       0x0000000000000023       0x24 /package/eda/altera/altera17.0/nios2eds/bin/gnu/H-x86_64-pc-linux-gnu/bin/../lib/gcc/nios2-elf/5.3.0/../../../../../H-x86_64-pc-linux-gnu/nios2-elf/lib/pg/libc.a(lib_a-fstatr.o)
 .comment       0x0000000000000023       0x24 /package/eda/altera/altera17.0/nios2eds/bin/gnu/H-x86_64-pc-linux-gnu/bin/../lib/gcc/nios2-elf/5.3.0/../../../../../H-x86_64-pc-linux-gnu/nios2-elf/lib/pg/libc.a(lib_a-fvwrite.o)
 .comment       0x0000000000000023       0x24 /package/eda/altera/altera17.0/nios2eds/bin/gnu/H-x86_64-pc-linux-gnu/bin/../lib/gcc/nios2-elf/5.3.0/../../../../../H-x86_64-pc-linux-gnu/nios2-elf/lib/pg/libc.a(lib_a-fwalk.o)
 .comment       0x0000000000000023       0x24 /package/eda/altera/altera17.0/nios2eds/bin/gnu/H-x86_64-pc-linux-gnu/bin/../lib/gcc/nios2-elf/5.3.0/../../../../../H-x86_64-pc-linux-gnu/nios2-elf/lib/pg/libc.a(lib_a-fwrite.o)
 .comment       0x0000000000000023       0x24 /package/eda/altera/altera17.0/nios2eds/bin/gnu/H-x86_64-pc-linux-gnu/bin/../lib/gcc/nios2-elf/5.3.0/../../../../../H-x86_64-pc-linux-gnu/nios2-elf/lib/pg/libc.a(lib_a-impure.o)
 .comment       0x0000000000000023       0x24 /package/eda/altera/altera17.0/nios2eds/bin/gnu/H-x86_64-pc-linux-gnu/bin/../lib/gcc/nios2-elf/5.3.0/../../../../../H-x86_64-pc-linux-gnu/nios2-elf/lib/pg/libc.a(lib_a-int_errno.o)
 .comment       0x0000000000000023       0x24 /package/eda/altera/altera17.0/nios2eds/bin/gnu/H-x86_64-pc-linux-gnu/bin/../lib/gcc/nios2-elf/5.3.0/../../../../../H-x86_64-pc-linux-gnu/nios2-elf/lib/pg/libc.a(lib_a-makebuf.o)
 .comment       0x0000000000000023       0x24 /package/eda/altera/altera17.0/nios2eds/bin/gnu/H-x86_64-pc-linux-gnu/bin/../lib/gcc/nios2-elf/5.3.0/../../../../../H-x86_64-pc-linux-gnu/nios2-elf/lib/pg/libc.a(lib_a-malloc.o)
 .comment       0x0000000000000023       0x24 /package/eda/altera/altera17.0/nios2eds/bin/gnu/H-x86_64-pc-linux-gnu/bin/../lib/gcc/nios2-elf/5.3.0/../../../../../H-x86_64-pc-linux-gnu/nios2-elf/lib/pg/libc.a(lib_a-mallocr.o)
 .comment       0x0000000000000023       0x24 /package/eda/altera/altera17.0/nios2eds/bin/gnu/H-x86_64-pc-linux-gnu/bin/../lib/gcc/nios2-elf/5.3.0/../../../../../H-x86_64-pc-linux-gnu/nios2-elf/lib/pg/libc.a(lib_a-memchr.o)
 .comment       0x0000000000000023       0x24 /package/eda/altera/altera17.0/nios2eds/bin/gnu/H-x86_64-pc-linux-gnu/bin/../lib/gcc/nios2-elf/5.3.0/../../../../../H-x86_64-pc-linux-gnu/nios2-elf/lib/pg/libc.a(lib_a-memcpy.o)
 .comment       0x0000000000000023       0x24 /package/eda/altera/altera17.0/nios2eds/bin/gnu/H-x86_64-pc-linux-gnu/bin/../lib/gcc/nios2-elf/5.3.0/../../../../../H-x86_64-pc-linux-gnu/nios2-elf/lib/pg/libc.a(lib_a-memmove.o)
 .comment       0x0000000000000023       0x24 /package/eda/altera/altera17.0/nios2eds/bin/gnu/H-x86_64-pc-linux-gnu/bin/../lib/gcc/nios2-elf/5.3.0/../../../../../H-x86_64-pc-linux-gnu/nios2-elf/lib/pg/libc.a(lib_a-memset.o)
 .comment       0x0000000000000023       0x24 /package/eda/altera/altera17.0/nios2eds/bin/gnu/H-x86_64-pc-linux-gnu/bin/../lib/gcc/nios2-elf/5.3.0/../../../../../H-x86_64-pc-linux-gnu/nios2-elf/lib/pg/libc.a(lib_a-openr.o)
 .comment       0x0000000000000023       0x24 /package/eda/altera/altera17.0/nios2eds/bin/gnu/H-x86_64-pc-linux-gnu/bin/../lib/gcc/nios2-elf/5.3.0/../../../../../H-x86_64-pc-linux-gnu/nios2-elf/lib/pg/libc.a(lib_a-printf.o)
 .comment       0x0000000000000023       0x24 /package/eda/altera/altera17.0/nios2eds/bin/gnu/H-x86_64-pc-linux-gnu/bin/../lib/gcc/nios2-elf/5.3.0/../../../../../H-x86_64-pc-linux-gnu/nios2-elf/lib/pg/libc.a(lib_a-putc.o)
 .comment       0x0000000000000023       0x24 /package/eda/altera/altera17.0/nios2eds/bin/gnu/H-x86_64-pc-linux-gnu/bin/../lib/gcc/nios2-elf/5.3.0/../../../../../H-x86_64-pc-linux-gnu/nios2-elf/lib/pg/libc.a(lib_a-realloc.o)
 .comment       0x0000000000000023       0x24 /package/eda/altera/altera17.0/nios2eds/bin/gnu/H-x86_64-pc-linux-gnu/bin/../lib/gcc/nios2-elf/5.3.0/../../../../../H-x86_64-pc-linux-gnu/nios2-elf/lib/pg/libc.a(lib_a-reallocr.o)
 .comment       0x0000000000000023       0x24 /package/eda/altera/altera17.0/nios2eds/bin/gnu/H-x86_64-pc-linux-gnu/bin/../lib/gcc/nios2-elf/5.3.0/../../../../../H-x86_64-pc-linux-gnu/nios2-elf/lib/pg/libc.a(lib_a-refill.o)
 .comment       0x0000000000000023       0x24 /package/eda/altera/altera17.0/nios2eds/bin/gnu/H-x86_64-pc-linux-gnu/bin/../lib/gcc/nios2-elf/5.3.0/../../../../../H-x86_64-pc-linux-gnu/nios2-elf/lib/pg/libc.a(lib_a-sbrkr.o)
 .comment       0x0000000000000023       0x24 /package/eda/altera/altera17.0/nios2eds/bin/gnu/H-x86_64-pc-linux-gnu/bin/../lib/gcc/nios2-elf/5.3.0/../../../../../H-x86_64-pc-linux-gnu/nios2-elf/lib/pg/libc.a(lib_a-signal.o)
 .comment       0x0000000000000023       0x24 /package/eda/altera/altera17.0/nios2eds/bin/gnu/H-x86_64-pc-linux-gnu/bin/../lib/gcc/nios2-elf/5.3.0/../../../../../H-x86_64-pc-linux-gnu/nios2-elf/lib/pg/libc.a(lib_a-signalr.o)
 .comment       0x0000000000000023       0x24 /package/eda/altera/altera17.0/nios2eds/bin/gnu/H-x86_64-pc-linux-gnu/bin/../lib/gcc/nios2-elf/5.3.0/../../../../../H-x86_64-pc-linux-gnu/nios2-elf/lib/pg/libc.a(lib_a-stdio.o)
 .comment       0x0000000000000023       0x24 /package/eda/altera/altera17.0/nios2eds/bin/gnu/H-x86_64-pc-linux-gnu/bin/../lib/gcc/nios2-elf/5.3.0/../../../../../H-x86_64-pc-linux-gnu/nios2-elf/lib/pg/libc.a(lib_a-strcmp.o)
 .comment       0x0000000000000023       0x24 /package/eda/altera/altera17.0/nios2eds/bin/gnu/H-x86_64-pc-linux-gnu/bin/../lib/gcc/nios2-elf/5.3.0/../../../../../H-x86_64-pc-linux-gnu/nios2-elf/lib/pg/libc.a(lib_a-strdup.o)
 .comment       0x0000000000000023       0x24 /package/eda/altera/altera17.0/nios2eds/bin/gnu/H-x86_64-pc-linux-gnu/bin/../lib/gcc/nios2-elf/5.3.0/../../../../../H-x86_64-pc-linux-gnu/nios2-elf/lib/pg/libc.a(lib_a-strdup_r.o)
 .comment       0x0000000000000023       0x24 /package/eda/altera/altera17.0/nios2eds/bin/gnu/H-x86_64-pc-linux-gnu/bin/../lib/gcc/nios2-elf/5.3.0/../../../../../H-x86_64-pc-linux-gnu/nios2-elf/lib/pg/libc.a(lib_a-strlen.o)
 .comment       0x0000000000000023       0x24 /package/eda/altera/altera17.0/nios2eds/bin/gnu/H-x86_64-pc-linux-gnu/bin/../lib/gcc/nios2-elf/5.3.0/../../../../../H-x86_64-pc-linux-gnu/nios2-elf/lib/pg/libc.a(lib_a-strncmp.o)
 .comment       0x0000000000000023       0x24 /package/eda/altera/altera17.0/nios2eds/bin/gnu/H-x86_64-pc-linux-gnu/bin/../lib/gcc/nios2-elf/5.3.0/../../../../../H-x86_64-pc-linux-gnu/nios2-elf/lib/pg/libc.a(lib_a-strtod.o)
 .comment       0x0000000000000023       0x24 /package/eda/altera/altera17.0/nios2eds/bin/gnu/H-x86_64-pc-linux-gnu/bin/../lib/gcc/nios2-elf/5.3.0/../../../../../H-x86_64-pc-linux-gnu/nios2-elf/lib/pg/libc.a(lib_a-vfiprintfr_1.o)
 .comment       0x0000000000000023       0x24 /package/eda/altera/altera17.0/nios2eds/bin/gnu/H-x86_64-pc-linux-gnu/bin/../lib/gcc/nios2-elf/5.3.0/../../../../../H-x86_64-pc-linux-gnu/nios2-elf/lib/pg/libc.a(lib_a-vfprintf.o)
 .comment       0x0000000000000023       0x24 /package/eda/altera/altera17.0/nios2eds/bin/gnu/H-x86_64-pc-linux-gnu/bin/../lib/gcc/nios2-elf/5.3.0/../../../../../H-x86_64-pc-linux-gnu/nios2-elf/lib/pg/libc.a(lib_a-wbuf.o)
 .comment       0x0000000000000023       0x24 /package/eda/altera/altera17.0/nios2eds/bin/gnu/H-x86_64-pc-linux-gnu/bin/../lib/gcc/nios2-elf/5.3.0/../../../../../H-x86_64-pc-linux-gnu/nios2-elf/lib/pg/libc.a(lib_a-writer.o)
 .comment       0x0000000000000023       0x24 /package/eda/altera/altera17.0/nios2eds/bin/gnu/H-x86_64-pc-linux-gnu/bin/../lib/gcc/nios2-elf/5.3.0/../../../../../H-x86_64-pc-linux-gnu/nios2-elf/lib/pg/libc.a(lib_a-wsetup.o)
 .comment       0x0000000000000023       0x24 /package/eda/altera/altera17.0/nios2eds/bin/gnu/H-x86_64-pc-linux-gnu/bin/../lib/gcc/nios2-elf/5.3.0/../../../../../H-x86_64-pc-linux-gnu/nios2-elf/lib/pg/libc.a(closer.o)
 .comment       0x0000000000000023       0x24 /package/eda/altera/altera17.0/nios2eds/bin/gnu/H-x86_64-pc-linux-gnu/bin/../lib/gcc/nios2-elf/5.3.0/../../../../../H-x86_64-pc-linux-gnu/nios2-elf/lib/pg/libc.a(lib_a-__call_atexit.o)
 .comment       0x0000000000000023       0x24 /package/eda/altera/altera17.0/nios2eds/bin/gnu/H-x86_64-pc-linux-gnu/bin/../lib/gcc/nios2-elf/5.3.0/../../../../../H-x86_64-pc-linux-gnu/nios2-elf/lib/pg/libc.a(lib_a-dtoa.o)
 .comment       0x0000000000000023       0x24 /package/eda/altera/altera17.0/nios2eds/bin/gnu/H-x86_64-pc-linux-gnu/bin/../lib/gcc/nios2-elf/5.3.0/../../../../../H-x86_64-pc-linux-gnu/nios2-elf/lib/pg/libc.a(lib_a-flags.o)
 .comment       0x0000000000000023       0x24 /package/eda/altera/altera17.0/nios2eds/bin/gnu/H-x86_64-pc-linux-gnu/bin/../lib/gcc/nios2-elf/5.3.0/../../../../../H-x86_64-pc-linux-gnu/nios2-elf/lib/pg/libc.a(lib_a-gdtoa-gethex.o)
 .comment       0x0000000000000023       0x24 /package/eda/altera/altera17.0/nios2eds/bin/gnu/H-x86_64-pc-linux-gnu/bin/../lib/gcc/nios2-elf/5.3.0/../../../../../H-x86_64-pc-linux-gnu/nios2-elf/lib/pg/libc.a(lib_a-gdtoa-hexnan.o)
 .comment       0x0000000000000023       0x24 /package/eda/altera/altera17.0/nios2eds/bin/gnu/H-x86_64-pc-linux-gnu/bin/../lib/gcc/nios2-elf/5.3.0/../../../../../H-x86_64-pc-linux-gnu/nios2-elf/lib/pg/libc.a(lib_a-isattyr.o)
 .comment       0x0000000000000023       0x24 /package/eda/altera/altera17.0/nios2eds/bin/gnu/H-x86_64-pc-linux-gnu/bin/../lib/gcc/nios2-elf/5.3.0/../../../../../H-x86_64-pc-linux-gnu/nios2-elf/lib/pg/libc.a(lib_a-locale.o)
 .comment       0x0000000000000023       0x24 /package/eda/altera/altera17.0/nios2eds/bin/gnu/H-x86_64-pc-linux-gnu/bin/../lib/gcc/nios2-elf/5.3.0/../../../../../H-x86_64-pc-linux-gnu/nios2-elf/lib/pg/libc.a(lib_a-lseekr.o)
 .comment       0x0000000000000023       0x24 /package/eda/altera/altera17.0/nios2eds/bin/gnu/H-x86_64-pc-linux-gnu/bin/../lib/gcc/nios2-elf/5.3.0/../../../../../H-x86_64-pc-linux-gnu/nios2-elf/lib/pg/libc.a(lib_a-mprec.o)
 .comment       0x0000000000000023       0x24 /package/eda/altera/altera17.0/nios2eds/bin/gnu/H-x86_64-pc-linux-gnu/bin/../lib/gcc/nios2-elf/5.3.0/../../../../../H-x86_64-pc-linux-gnu/nios2-elf/lib/pg/libc.a(lib_a-readr.o)
 .comment       0x0000000000000023       0x24 /package/eda/altera/altera17.0/nios2eds/bin/gnu/H-x86_64-pc-linux-gnu/bin/../lib/gcc/nios2-elf/5.3.0/../../../../../H-x86_64-pc-linux-gnu/nios2-elf/lib/pg/libc.a(lib_a-vfiprintf.o)
 .comment       0x0000000000000023       0x24 /package/eda/altera/altera17.0/nios2eds/bin/gnu/H-x86_64-pc-linux-gnu/bin/../lib/gcc/nios2-elf/5.3.0/../../../../../H-x86_64-pc-linux-gnu/nios2-elf/lib/pg/libc.a(lib_a-fputwc.o)
 .comment       0x0000000000000023       0x24 /package/eda/altera/altera17.0/nios2eds/bin/gnu/H-x86_64-pc-linux-gnu/bin/../lib/gcc/nios2-elf/5.3.0/../../../../../H-x86_64-pc-linux-gnu/nios2-elf/lib/pg/libc.a(lib_a-wcrtomb.o)
 .comment       0x0000000000000023       0x24 /package/eda/altera/altera17.0/nios2eds/bin/gnu/H-x86_64-pc-linux-gnu/bin/../lib/gcc/nios2-elf/5.3.0/../../../../../H-x86_64-pc-linux-gnu/nios2-elf/lib/pg/libc.a(lib_a-wctomb_r.o)
 .comment       0x0000000000000023       0x24 /package/eda/altera/altera17.0/nios2eds/bin/gnu/H-x86_64-pc-linux-gnu/bin/../lib/gcc/nios2-elf/5.3.0/pg/libgcc.a(_fixunsdfsi.o)
 .comment       0x0000000000000023       0x24 /package/eda/altera/altera17.0/nios2eds/bin/gnu/H-x86_64-pc-linux-gnu/bin/../lib/gcc/nios2-elf/5.3.0/pg/libgcc.a(_udivdi3.o)
 .comment       0x0000000000000023       0x24 /package/eda/altera/altera17.0/nios2eds/bin/gnu/H-x86_64-pc-linux-gnu/bin/../lib/gcc/nios2-elf/5.3.0/pg/libgcc.a(_umoddi3.o)
 .comment       0x0000000000000023       0x24 /package/eda/altera/altera17.0/nios2eds/bin/gnu/H-x86_64-pc-linux-gnu/bin/../lib/gcc/nios2-elf/5.3.0/pg/libgcc.a(floatunsidf.o)
 .comment       0x0000000000000023       0x24 ../MNIST_CNN_Software_bsp//libhal_bsp.a(alt_close.o)
 .comment       0x0000000000000023       0x24 ../MNIST_CNN_Software_bsp//libhal_bsp.a(alt_dev.o)
 .comment       0x0000000000000023       0x24 ../MNIST_CNN_Software_bsp//libhal_bsp.a(alt_errno.o)
 .comment       0x0000000000000023       0x24 ../MNIST_CNN_Software_bsp//libhal_bsp.a(alt_exit.o)
 .comment       0x0000000000000023       0x24 ../MNIST_CNN_Software_bsp//libhal_bsp.a(alt_fstat.o)
 .comment       0x0000000000000023       0x24 ../MNIST_CNN_Software_bsp//libhal_bsp.a(alt_getpid.o)
 .comment       0x0000000000000023       0x24 ../MNIST_CNN_Software_bsp//libhal_bsp.a(alt_gmon.o)
 .comment       0x0000000000000023       0x24 ../MNIST_CNN_Software_bsp//libhal_bsp.a(alt_isatty.o)
 .comment       0x0000000000000023       0x24 ../MNIST_CNN_Software_bsp//libhal_bsp.a(alt_kill.o)
 .comment       0x0000000000000023       0x24 ../MNIST_CNN_Software_bsp//libhal_bsp.a(alt_load.o)
 .comment       0x0000000000000023       0x24 ../MNIST_CNN_Software_bsp//libhal_bsp.a(alt_lseek.o)
 .comment       0x0000000000000023       0x24 ../MNIST_CNN_Software_bsp//libhal_bsp.a(alt_main.o)
 .comment       0x0000000000000023       0x24 ../MNIST_CNN_Software_bsp//libhal_bsp.a(alt_malloc_lock.o)
 .comment       0x0000000000000023       0x24 ../MNIST_CNN_Software_bsp//libhal_bsp.a(alt_open.o)
 .comment       0x0000000000000023       0x24 ../MNIST_CNN_Software_bsp//libhal_bsp.a(alt_read.o)
 .comment       0x0000000000000023       0x24 ../MNIST_CNN_Software_bsp//libhal_bsp.a(alt_release_fd.o)
 .comment       0x0000000000000023       0x24 ../MNIST_CNN_Software_bsp//libhal_bsp.a(alt_sbrk.o)
 .comment       0x0000000000000023       0x24 ../MNIST_CNN_Software_bsp//libhal_bsp.a(alt_tick.o)
 .comment       0x0000000000000023       0x24 ../MNIST_CNN_Software_bsp//libhal_bsp.a(alt_write.o)
 .comment       0x0000000000000023       0x24 ../MNIST_CNN_Software_bsp//libhal_bsp.a(alt_sys_init.o)
 .comment       0x0000000000000023       0x24 ../MNIST_CNN_Software_bsp//libhal_bsp.a(altera_avalon_cfi_flash.o)
 .comment       0x0000000000000023       0x24 ../MNIST_CNN_Software_bsp//libhal_bsp.a(altera_avalon_cfi_flash_table.o)
 .comment       0x0000000000000023       0x24 ../MNIST_CNN_Software_bsp//libhal_bsp.a(altera_avalon_jtag_uart_fd.o)
 .comment       0x0000000000000023       0x24 ../MNIST_CNN_Software_bsp//libhal_bsp.a(altera_avalon_jtag_uart_init.o)
 .comment       0x0000000000000023       0x24 ../MNIST_CNN_Software_bsp//libhal_bsp.a(altera_avalon_jtag_uart_ioctl.o)
 .comment       0x0000000000000023       0x24 ../MNIST_CNN_Software_bsp//libhal_bsp.a(altera_avalon_jtag_uart_read.o)
 .comment       0x0000000000000023       0x24 ../MNIST_CNN_Software_bsp//libhal_bsp.a(altera_avalon_jtag_uart_write.o)
 .comment       0x0000000000000023       0x24 ../MNIST_CNN_Software_bsp//libhal_bsp.a(altera_avalon_timer_sc.o)
 .comment       0x0000000000000023       0x24 ../MNIST_CNN_Software_bsp//libhal_bsp.a(altera_ro_zipfs.o)
 .comment       0x0000000000000023       0x24 ../MNIST_CNN_Software_bsp//libhal_bsp.a(altera_up_avalon_video_character_buffer_with_dma.o)
 .comment       0x0000000000000023       0x24 ../MNIST_CNN_Software_bsp//libhal_bsp.a(altera_up_avalon_video_pixel_buffer_dma.o)
 .comment       0x0000000000000023       0x24 ../MNIST_CNN_Software_bsp//libhal_bsp.a(alt_alarm_start.o)
 .comment       0x0000000000000023       0x24 ../MNIST_CNN_Software_bsp//libhal_bsp.a(alt_dcache_flush.o)
 .comment       0x0000000000000023       0x24 ../MNIST_CNN_Software_bsp//libhal_bsp.a(alt_dcache_flush_all.o)
 .comment       0x0000000000000023       0x24 ../MNIST_CNN_Software_bsp//libhal_bsp.a(alt_dev_llist_insert.o)
 .comment       0x0000000000000023       0x24 ../MNIST_CNN_Software_bsp//libhal_bsp.a(alt_do_ctors.o)
 .comment       0x0000000000000023       0x24 ../MNIST_CNN_Software_bsp//libhal_bsp.a(alt_do_dtors.o)
 .comment       0x0000000000000023       0x24 ../MNIST_CNN_Software_bsp//libhal_bsp.a(alt_find_dev.o)
 .comment       0x0000000000000023       0x24 ../MNIST_CNN_Software_bsp//libhal_bsp.a(alt_find_file.o)
 .comment       0x0000000000000023       0x24 ../MNIST_CNN_Software_bsp//libhal_bsp.a(alt_flash_dev.o)
 .comment       0x0000000000000023       0x24 ../MNIST_CNN_Software_bsp//libhal_bsp.a(alt_fs_reg.o)
 .comment       0x0000000000000023       0x24 ../MNIST_CNN_Software_bsp//libhal_bsp.a(alt_get_fd.o)
 .comment       0x0000000000000023       0x24 ../MNIST_CNN_Software_bsp//libhal_bsp.a(alt_icache_flush_all.o)
 .comment       0x0000000000000023       0x24 ../MNIST_CNN_Software_bsp//libhal_bsp.a(alt_iic.o)
 .comment       0x0000000000000023       0x24 ../MNIST_CNN_Software_bsp//libhal_bsp.a(alt_iic_isr_register.o)
 .comment       0x0000000000000023       0x24 ../MNIST_CNN_Software_bsp//libhal_bsp.a(alt_io_redirect.o)
 .comment       0x0000000000000023       0x24 ../MNIST_CNN_Software_bsp//libhal_bsp.a(alt_irq_handler.o)
 .comment       0x0000000000000023       0x24 ../MNIST_CNN_Software_bsp//libhal_bsp.a(alt_irq_vars.o)
 .comment       0x0000000000000023       0x24 ../MNIST_CNN_Software_bsp//libhal_bsp.a(altera_nios2_qsys_irq.o)
 .comment       0x0000000000000023       0x24 ../MNIST_CNN_Software_bsp//libhal_bsp.a(altera_avalon_cfi_flash_amd.o)
 .comment       0x0000000000000023       0x24 ../MNIST_CNN_Software_bsp//libhal_bsp.a(altera_avalon_cfi_flash_intel.o)
 .comment       0x0000000000000023       0x24 ../MNIST_CNN_Software_bsp//libhal_bsp.a(alt_icache_flush.o)
 .comment       0x0000000000000023       0x24 ../MNIST_CNN_Software_bsp//libhal_bsp.a(alt_usleep.o)
 .comment       0x0000000000000023       0x24 ../MNIST_CNN_Software_bsp//libhal_bsp.a(alt_busy_sleep.o)
 .comment       0x0000000000000023       0x24 /package/eda/altera/altera17.0/nios2eds/bin/gnu/H-x86_64-pc-linux-gnu/bin/../lib/gcc/nios2-elf/5.3.0/../../../../../H-x86_64-pc-linux-gnu/nios2-elf/lib/pg/libc.a(lib_a-atexit.o)
 .comment       0x0000000000000023       0x24 /package/eda/altera/altera17.0/nios2eds/bin/gnu/H-x86_64-pc-linux-gnu/bin/../lib/gcc/nios2-elf/5.3.0/../../../../../H-x86_64-pc-linux-gnu/nios2-elf/lib/pg/libc.a(lib_a-memcmp.o)
 .comment       0x0000000000000023       0x24 /package/eda/altera/altera17.0/nios2eds/bin/gnu/H-x86_64-pc-linux-gnu/bin/../lib/gcc/nios2-elf/5.3.0/../../../../../H-x86_64-pc-linux-gnu/nios2-elf/lib/pg/libc.a(lib_a-__atexit.o)

.debug
 *(.debug)

.line
 *(.line)

.debug_srcinfo
 *(.debug_srcinfo)

.debug_sfnames
 *(.debug_sfnames)

.debug_aranges  0x0000000000000000     0x1318
 *(.debug_aranges)
 .debug_aranges
                0x0000000000000000       0x28 ../MNIST_CNN_Software_bsp//obj/HAL/src/crt0.o
 .debug_aranges
                0x0000000000000028       0x20 /package/eda/altera/altera17.0/nios2eds/bin/gnu/H-x86_64-pc-linux-gnu/bin/../lib/gcc/nios2-elf/5.3.0/../../../../../H-x86_64-pc-linux-gnu/nios2-elf/lib/pg/libm.a(lib_a-sf_cos.o)
 .debug_aranges
                0x0000000000000048       0x20 /package/eda/altera/altera17.0/nios2eds/bin/gnu/H-x86_64-pc-linux-gnu/bin/../lib/gcc/nios2-elf/5.3.0/../../../../../H-x86_64-pc-linux-gnu/nios2-elf/lib/pg/libm.a(lib_a-sf_sin.o)
 .debug_aranges
                0x0000000000000068       0x20 /package/eda/altera/altera17.0/nios2eds/bin/gnu/H-x86_64-pc-linux-gnu/bin/../lib/gcc/nios2-elf/5.3.0/../../../../../H-x86_64-pc-linux-gnu/nios2-elf/lib/pg/libm.a(lib_a-w_log.o)
 .debug_aranges
                0x0000000000000088       0x20 /package/eda/altera/altera17.0/nios2eds/bin/gnu/H-x86_64-pc-linux-gnu/bin/../lib/gcc/nios2-elf/5.3.0/../../../../../H-x86_64-pc-linux-gnu/nios2-elf/lib/pg/libm.a(lib_a-w_sqrt.o)
 .debug_aranges
                0x00000000000000a8       0x20 /package/eda/altera/altera17.0/nios2eds/bin/gnu/H-x86_64-pc-linux-gnu/bin/../lib/gcc/nios2-elf/5.3.0/../../../../../H-x86_64-pc-linux-gnu/nios2-elf/lib/pg/libm.a(lib_a-wf_exp.o)
 .debug_aranges
                0x00000000000000c8       0x20 /package/eda/altera/altera17.0/nios2eds/bin/gnu/H-x86_64-pc-linux-gnu/bin/../lib/gcc/nios2-elf/5.3.0/../../../../../H-x86_64-pc-linux-gnu/nios2-elf/lib/pg/libm.a(lib_a-wf_log.o)
 .debug_aranges
                0x00000000000000e8       0x20 /package/eda/altera/altera17.0/nios2eds/bin/gnu/H-x86_64-pc-linux-gnu/bin/../lib/gcc/nios2-elf/5.3.0/../../../../../H-x86_64-pc-linux-gnu/nios2-elf/lib/pg/libm.a(lib_a-wf_sqrt.o)
 .debug_aranges
                0x0000000000000108       0x20 /package/eda/altera/altera17.0/nios2eds/bin/gnu/H-x86_64-pc-linux-gnu/bin/../lib/gcc/nios2-elf/5.3.0/../../../../../H-x86_64-pc-linux-gnu/nios2-elf/lib/pg/libm.a(lib_a-e_log.o)
 .debug_aranges
                0x0000000000000128       0x20 /package/eda/altera/altera17.0/nios2eds/bin/gnu/H-x86_64-pc-linux-gnu/bin/../lib/gcc/nios2-elf/5.3.0/../../../../../H-x86_64-pc-linux-gnu/nios2-elf/lib/pg/libm.a(lib_a-e_sqrt.o)
 .debug_aranges
                0x0000000000000148       0x20 /package/eda/altera/altera17.0/nios2eds/bin/gnu/H-x86_64-pc-linux-gnu/bin/../lib/gcc/nios2-elf/5.3.0/../../../../../H-x86_64-pc-linux-gnu/nios2-elf/lib/pg/libm.a(lib_a-ef_exp.o)
 .debug_aranges
                0x0000000000000168       0x20 /package/eda/altera/altera17.0/nios2eds/bin/gnu/H-x86_64-pc-linux-gnu/bin/../lib/gcc/nios2-elf/5.3.0/../../../../../H-x86_64-pc-linux-gnu/nios2-elf/lib/pg/libm.a(lib_a-ef_log.o)
 .debug_aranges
                0x0000000000000188       0x20 /package/eda/altera/altera17.0/nios2eds/bin/gnu/H-x86_64-pc-linux-gnu/bin/../lib/gcc/nios2-elf/5.3.0/../../../../../H-x86_64-pc-linux-gnu/nios2-elf/lib/pg/libm.a(lib_a-ef_rem_pio2.o)
 .debug_aranges
                0x00000000000001a8       0x20 /package/eda/altera/altera17.0/nios2eds/bin/gnu/H-x86_64-pc-linux-gnu/bin/../lib/gcc/nios2-elf/5.3.0/../../../../../H-x86_64-pc-linux-gnu/nios2-elf/lib/pg/libm.a(lib_a-ef_sqrt.o)
 .debug_aranges
                0x00000000000001c8       0x20 /package/eda/altera/altera17.0/nios2eds/bin/gnu/H-x86_64-pc-linux-gnu/bin/../lib/gcc/nios2-elf/5.3.0/../../../../../H-x86_64-pc-linux-gnu/nios2-elf/lib/pg/libm.a(lib_a-kf_cos.o)
 .debug_aranges
                0x00000000000001e8       0x20 /package/eda/altera/altera17.0/nios2eds/bin/gnu/H-x86_64-pc-linux-gnu/bin/../lib/gcc/nios2-elf/5.3.0/../../../../../H-x86_64-pc-linux-gnu/nios2-elf/lib/pg/libm.a(lib_a-kf_rem_pio2.o)
 .debug_aranges
                0x0000000000000208       0x20 /package/eda/altera/altera17.0/nios2eds/bin/gnu/H-x86_64-pc-linux-gnu/bin/../lib/gcc/nios2-elf/5.3.0/../../../../../H-x86_64-pc-linux-gnu/nios2-elf/lib/pg/libm.a(lib_a-kf_sin.o)
 .debug_aranges
                0x0000000000000228       0x20 /package/eda/altera/altera17.0/nios2eds/bin/gnu/H-x86_64-pc-linux-gnu/bin/../lib/gcc/nios2-elf/5.3.0/../../../../../H-x86_64-pc-linux-gnu/nios2-elf/lib/pg/libm.a(lib_a-s_fpclassify.o)
 .debug_aranges
                0x0000000000000248       0x18 /package/eda/altera/altera17.0/nios2eds/bin/gnu/H-x86_64-pc-linux-gnu/bin/../lib/gcc/nios2-elf/5.3.0/../../../../../H-x86_64-pc-linux-gnu/nios2-elf/lib/pg/libm.a(lib_a-s_lib_ver.o)
 .debug_aranges
                0x0000000000000260       0x20 /package/eda/altera/altera17.0/nios2eds/bin/gnu/H-x86_64-pc-linux-gnu/bin/../lib/gcc/nios2-elf/5.3.0/../../../../../H-x86_64-pc-linux-gnu/nios2-elf/lib/pg/libm.a(lib_a-s_matherr.o)
 .debug_aranges
                0x0000000000000280       0x20 /package/eda/altera/altera17.0/nios2eds/bin/gnu/H-x86_64-pc-linux-gnu/bin/../lib/gcc/nios2-elf/5.3.0/../../../../../H-x86_64-pc-linux-gnu/nios2-elf/lib/pg/libm.a(lib_a-s_nan.o)
 .debug_aranges
                0x00000000000002a0       0x20 /package/eda/altera/altera17.0/nios2eds/bin/gnu/H-x86_64-pc-linux-gnu/bin/../lib/gcc/nios2-elf/5.3.0/../../../../../H-x86_64-pc-linux-gnu/nios2-elf/lib/pg/libm.a(lib_a-sf_fabs.o)
 .debug_aranges
                0x00000000000002c0       0x20 /package/eda/altera/altera17.0/nios2eds/bin/gnu/H-x86_64-pc-linux-gnu/bin/../lib/gcc/nios2-elf/5.3.0/../../../../../H-x86_64-pc-linux-gnu/nios2-elf/lib/pg/libm.a(lib_a-sf_finite.o)
 .debug_aranges
                0x00000000000002e0       0x20 /package/eda/altera/altera17.0/nios2eds/bin/gnu/H-x86_64-pc-linux-gnu/bin/../lib/gcc/nios2-elf/5.3.0/../../../../../H-x86_64-pc-linux-gnu/nios2-elf/lib/pg/libm.a(lib_a-sf_floor.o)
 .debug_aranges
                0x0000000000000300       0x20 /package/eda/altera/altera17.0/nios2eds/bin/gnu/H-x86_64-pc-linux-gnu/bin/../lib/gcc/nios2-elf/5.3.0/../../../../../H-x86_64-pc-linux-gnu/nios2-elf/lib/pg/libm.a(lib_a-sf_fpclassify.o)
 .debug_aranges
                0x0000000000000320       0x20 /package/eda/altera/altera17.0/nios2eds/bin/gnu/H-x86_64-pc-linux-gnu/bin/../lib/gcc/nios2-elf/5.3.0/../../../../../H-x86_64-pc-linux-gnu/nios2-elf/lib/pg/libm.a(lib_a-sf_scalbn.o)
 .debug_aranges
                0x0000000000000340       0x20 /package/eda/altera/altera17.0/nios2eds/bin/gnu/H-x86_64-pc-linux-gnu/bin/../lib/gcc/nios2-elf/5.3.0/../../../../../H-x86_64-pc-linux-gnu/nios2-elf/lib/pg/libm.a(lib_a-sf_copysign.o)
 .debug_aranges
                0x0000000000000360       0x20 /package/eda/altera/altera17.0/nios2eds/bin/gnu/H-x86_64-pc-linux-gnu/bin/../lib/gcc/nios2-elf/5.3.0/pg/libgcc.a(_muldi3.o)
 .debug_aranges
                0x0000000000000380       0x20 /package/eda/altera/altera17.0/nios2eds/bin/gnu/H-x86_64-pc-linux-gnu/bin/../lib/gcc/nios2-elf/5.3.0/pg/libgcc.a(_fixunssfsi.o)
 .debug_aranges
                0x00000000000003a0       0x20 /package/eda/altera/altera17.0/nios2eds/bin/gnu/H-x86_64-pc-linux-gnu/bin/../lib/gcc/nios2-elf/5.3.0/pg/libgcc.a(lib2-divmod.o)
 .debug_aranges
                0x00000000000003c0       0x18 /package/eda/altera/altera17.0/nios2eds/bin/gnu/H-x86_64-pc-linux-gnu/bin/../lib/gcc/nios2-elf/5.3.0/pg/libgcc.a(lib2-divtable.o)
 .debug_aranges
                0x00000000000003d8       0x20 /package/eda/altera/altera17.0/nios2eds/bin/gnu/H-x86_64-pc-linux-gnu/bin/../lib/gcc/nios2-elf/5.3.0/pg/libgcc.a(addsf3.o)
 .debug_aranges
                0x00000000000003f8       0x20 /package/eda/altera/altera17.0/nios2eds/bin/gnu/H-x86_64-pc-linux-gnu/bin/../lib/gcc/nios2-elf/5.3.0/pg/libgcc.a(divsf3.o)
 .debug_aranges
                0x0000000000000418       0x20 /package/eda/altera/altera17.0/nios2eds/bin/gnu/H-x86_64-pc-linux-gnu/bin/../lib/gcc/nios2-elf/5.3.0/pg/libgcc.a(eqsf2.o)
 .debug_aranges
                0x0000000000000438       0x20 /package/eda/altera/altera17.0/nios2eds/bin/gnu/H-x86_64-pc-linux-gnu/bin/../lib/gcc/nios2-elf/5.3.0/pg/libgcc.a(gesf2.o)
 .debug_aranges
                0x0000000000000458       0x20 /package/eda/altera/altera17.0/nios2eds/bin/gnu/H-x86_64-pc-linux-gnu/bin/../lib/gcc/nios2-elf/5.3.0/pg/libgcc.a(lesf2.o)
 .debug_aranges
                0x0000000000000478       0x20 /package/eda/altera/altera17.0/nios2eds/bin/gnu/H-x86_64-pc-linux-gnu/bin/../lib/gcc/nios2-elf/5.3.0/pg/libgcc.a(mulsf3.o)
 .debug_aranges
                0x0000000000000498       0x20 /package/eda/altera/altera17.0/nios2eds/bin/gnu/H-x86_64-pc-linux-gnu/bin/../lib/gcc/nios2-elf/5.3.0/pg/libgcc.a(subsf3.o)
 .debug_aranges
                0x00000000000004b8       0x20 /package/eda/altera/altera17.0/nios2eds/bin/gnu/H-x86_64-pc-linux-gnu/bin/../lib/gcc/nios2-elf/5.3.0/pg/libgcc.a(fixsfsi.o)
 .debug_aranges
                0x00000000000004d8       0x20 /package/eda/altera/altera17.0/nios2eds/bin/gnu/H-x86_64-pc-linux-gnu/bin/../lib/gcc/nios2-elf/5.3.0/pg/libgcc.a(floatsisf.o)
 .debug_aranges
                0x00000000000004f8       0x20 /package/eda/altera/altera17.0/nios2eds/bin/gnu/H-x86_64-pc-linux-gnu/bin/../lib/gcc/nios2-elf/5.3.0/pg/libgcc.a(adddf3.o)
 .debug_aranges
                0x0000000000000518       0x20 /package/eda/altera/altera17.0/nios2eds/bin/gnu/H-x86_64-pc-linux-gnu/bin/../lib/gcc/nios2-elf/5.3.0/pg/libgcc.a(divdf3.o)
 .debug_aranges
                0x0000000000000538       0x20 /package/eda/altera/altera17.0/nios2eds/bin/gnu/H-x86_64-pc-linux-gnu/bin/../lib/gcc/nios2-elf/5.3.0/pg/libgcc.a(eqdf2.o)
 .debug_aranges
                0x0000000000000558       0x20 /package/eda/altera/altera17.0/nios2eds/bin/gnu/H-x86_64-pc-linux-gnu/bin/../lib/gcc/nios2-elf/5.3.0/pg/libgcc.a(gedf2.o)
 .debug_aranges
                0x0000000000000578       0x20 /package/eda/altera/altera17.0/nios2eds/bin/gnu/H-x86_64-pc-linux-gnu/bin/../lib/gcc/nios2-elf/5.3.0/pg/libgcc.a(ledf2.o)
 .debug_aranges
                0x0000000000000598       0x20 /package/eda/altera/altera17.0/nios2eds/bin/gnu/H-x86_64-pc-linux-gnu/bin/../lib/gcc/nios2-elf/5.3.0/pg/libgcc.a(muldf3.o)
 .debug_aranges
                0x00000000000005b8       0x20 /package/eda/altera/altera17.0/nios2eds/bin/gnu/H-x86_64-pc-linux-gnu/bin/../lib/gcc/nios2-elf/5.3.0/pg/libgcc.a(subdf3.o)
 .debug_aranges
                0x00000000000005d8       0x20 /package/eda/altera/altera17.0/nios2eds/bin/gnu/H-x86_64-pc-linux-gnu/bin/../lib/gcc/nios2-elf/5.3.0/pg/libgcc.a(fixdfsi.o)
 .debug_aranges
                0x00000000000005f8       0x20 /package/eda/altera/altera17.0/nios2eds/bin/gnu/H-x86_64-pc-linux-gnu/bin/../lib/gcc/nios2-elf/5.3.0/pg/libgcc.a(floatsidf.o)
 .debug_aranges
                0x0000000000000618       0x20 /package/eda/altera/altera17.0/nios2eds/bin/gnu/H-x86_64-pc-linux-gnu/bin/../lib/gcc/nios2-elf/5.3.0/pg/libgcc.a(extendsfdf2.o)
 .debug_aranges
                0x0000000000000638       0x20 /package/eda/altera/altera17.0/nios2eds/bin/gnu/H-x86_64-pc-linux-gnu/bin/../lib/gcc/nios2-elf/5.3.0/pg/libgcc.a(truncdfsf2.o)
 .debug_aranges
                0x0000000000000658       0x20 /package/eda/altera/altera17.0/nios2eds/bin/gnu/H-x86_64-pc-linux-gnu/bin/../lib/gcc/nios2-elf/5.3.0/pg/libgcc.a(_clzsi2.o)
 .debug_aranges
                0x0000000000000678       0x18 /package/eda/altera/altera17.0/nios2eds/bin/gnu/H-x86_64-pc-linux-gnu/bin/../lib/gcc/nios2-elf/5.3.0/pg/libgcc.a(_clz.o)
 .debug_aranges
                0x0000000000000690       0x20 /package/eda/altera/altera17.0/nios2eds/bin/gnu/H-x86_64-pc-linux-gnu/bin/../lib/gcc/nios2-elf/5.3.0/../../../../../H-x86_64-pc-linux-gnu/nios2-elf/lib/pg/libc.a(lib_a-abort.o)
 .debug_aranges
                0x00000000000006b0       0x28 /package/eda/altera/altera17.0/nios2eds/bin/gnu/H-x86_64-pc-linux-gnu/bin/../lib/gcc/nios2-elf/5.3.0/../../../../../H-x86_64-pc-linux-gnu/nios2-elf/lib/pg/libc.a(lib_a-assert.o)
 .debug_aranges
                0x00000000000006d8       0x20 /package/eda/altera/altera17.0/nios2eds/bin/gnu/H-x86_64-pc-linux-gnu/bin/../lib/gcc/nios2-elf/5.3.0/../../../../../H-x86_64-pc-linux-gnu/nios2-elf/lib/pg/libc.a(lib_a-calloc.o)
 .debug_aranges
                0x00000000000006f8       0x20 /package/eda/altera/altera17.0/nios2eds/bin/gnu/H-x86_64-pc-linux-gnu/bin/../lib/gcc/nios2-elf/5.3.0/../../../../../H-x86_64-pc-linux-gnu/nios2-elf/lib/pg/libc.a(lib_a-callocr.o)
 .debug_aranges
                0x0000000000000718       0x20 /package/eda/altera/altera17.0/nios2eds/bin/gnu/H-x86_64-pc-linux-gnu/bin/../lib/gcc/nios2-elf/5.3.0/../../../../../H-x86_64-pc-linux-gnu/nios2-elf/lib/pg/libc.a(lib_a-errno.o)
 .debug_aranges
                0x0000000000000738       0x20 /package/eda/altera/altera17.0/nios2eds/bin/gnu/H-x86_64-pc-linux-gnu/bin/../lib/gcc/nios2-elf/5.3.0/../../../../../H-x86_64-pc-linux-gnu/nios2-elf/lib/pg/libc.a(lib_a-exit.o)
 .debug_aranges
                0x0000000000000758       0x28 /package/eda/altera/altera17.0/nios2eds/bin/gnu/H-x86_64-pc-linux-gnu/bin/../lib/gcc/nios2-elf/5.3.0/../../../../../H-x86_64-pc-linux-gnu/nios2-elf/lib/pg/libc.a(lib_a-fclose.o)
 .debug_aranges
                0x0000000000000780       0x30 /package/eda/altera/altera17.0/nios2eds/bin/gnu/H-x86_64-pc-linux-gnu/bin/../lib/gcc/nios2-elf/5.3.0/../../../../../H-x86_64-pc-linux-gnu/nios2-elf/lib/pg/libc.a(lib_a-fflush.o)
 .debug_aranges
                0x00000000000007b0       0x28 /package/eda/altera/altera17.0/nios2eds/bin/gnu/H-x86_64-pc-linux-gnu/bin/../lib/gcc/nios2-elf/5.3.0/../../../../../H-x86_64-pc-linux-gnu/nios2-elf/lib/pg/libc.a(lib_a-fgets.o)
 .debug_aranges
                0x00000000000007d8       0x20 /package/eda/altera/altera17.0/nios2eds/bin/gnu/H-x86_64-pc-linux-gnu/bin/../lib/gcc/nios2-elf/5.3.0/../../../../../H-x86_64-pc-linux-gnu/nios2-elf/lib/pg/libc.a(lib_a-fileno.o)
 .debug_aranges
                0x00000000000007f8       0x68 /package/eda/altera/altera17.0/nios2eds/bin/gnu/H-x86_64-pc-linux-gnu/bin/../lib/gcc/nios2-elf/5.3.0/../../../../../H-x86_64-pc-linux-gnu/nios2-elf/lib/pg/libc.a(lib_a-findfp.o)
 .debug_aranges
                0x0000000000000860       0x28 /package/eda/altera/altera17.0/nios2eds/bin/gnu/H-x86_64-pc-linux-gnu/bin/../lib/gcc/nios2-elf/5.3.0/../../../../../H-x86_64-pc-linux-gnu/nios2-elf/lib/pg/libc.a(lib_a-fiprintf.o)
 .debug_aranges
                0x0000000000000888       0x28 /package/eda/altera/altera17.0/nios2eds/bin/gnu/H-x86_64-pc-linux-gnu/bin/../lib/gcc/nios2-elf/5.3.0/../../../../../H-x86_64-pc-linux-gnu/nios2-elf/lib/pg/libc.a(lib_a-fopen.o)
 .debug_aranges
                0x00000000000008b0       0x28 /package/eda/altera/altera17.0/nios2eds/bin/gnu/H-x86_64-pc-linux-gnu/bin/../lib/gcc/nios2-elf/5.3.0/../../../../../H-x86_64-pc-linux-gnu/nios2-elf/lib/pg/libc.a(lib_a-fprintf.o)
 .debug_aranges
                0x00000000000008d8       0x28 /package/eda/altera/altera17.0/nios2eds/bin/gnu/H-x86_64-pc-linux-gnu/bin/../lib/gcc/nios2-elf/5.3.0/../../../../../H-x86_64-pc-linux-gnu/nios2-elf/lib/pg/libc.a(lib_a-fputc.o)
 .debug_aranges
                0x0000000000000900       0x28 /package/eda/altera/altera17.0/nios2eds/bin/gnu/H-x86_64-pc-linux-gnu/bin/../lib/gcc/nios2-elf/5.3.0/../../../../../H-x86_64-pc-linux-gnu/nios2-elf/lib/pg/libc.a(lib_a-fputs.o)
 .debug_aranges
                0x0000000000000928       0x28 /package/eda/altera/altera17.0/nios2eds/bin/gnu/H-x86_64-pc-linux-gnu/bin/../lib/gcc/nios2-elf/5.3.0/../../../../../H-x86_64-pc-linux-gnu/nios2-elf/lib/pg/libc.a(lib_a-fread.o)
 .debug_aranges
                0x0000000000000950       0x28 /package/eda/altera/altera17.0/nios2eds/bin/gnu/H-x86_64-pc-linux-gnu/bin/../lib/gcc/nios2-elf/5.3.0/../../../../../H-x86_64-pc-linux-gnu/nios2-elf/lib/pg/libc.a(lib_a-freer.o)
 .debug_aranges
                0x0000000000000978       0x28 /package/eda/altera/altera17.0/nios2eds/bin/gnu/H-x86_64-pc-linux-gnu/bin/../lib/gcc/nios2-elf/5.3.0/../../../../../H-x86_64-pc-linux-gnu/nios2-elf/lib/pg/libc.a(lib_a-fseek.o)
 .debug_aranges
                0x00000000000009a0       0x28 /package/eda/altera/altera17.0/nios2eds/bin/gnu/H-x86_64-pc-linux-gnu/bin/../lib/gcc/nios2-elf/5.3.0/../../../../../H-x86_64-pc-linux-gnu/nios2-elf/lib/pg/libc.a(lib_a-fseeko.o)
 .debug_aranges
                0x00000000000009c8       0x20 /package/eda/altera/altera17.0/nios2eds/bin/gnu/H-x86_64-pc-linux-gnu/bin/../lib/gcc/nios2-elf/5.3.0/../../../../../H-x86_64-pc-linux-gnu/nios2-elf/lib/pg/libc.a(lib_a-fstatr.o)
 .debug_aranges
                0x00000000000009e8       0x20 /package/eda/altera/altera17.0/nios2eds/bin/gnu/H-x86_64-pc-linux-gnu/bin/../lib/gcc/nios2-elf/5.3.0/../../../../../H-x86_64-pc-linux-gnu/nios2-elf/lib/pg/libc.a(lib_a-fvwrite.o)
 .debug_aranges
                0x0000000000000a08       0x28 /package/eda/altera/altera17.0/nios2eds/bin/gnu/H-x86_64-pc-linux-gnu/bin/../lib/gcc/nios2-elf/5.3.0/../../../../../H-x86_64-pc-linux-gnu/nios2-elf/lib/pg/libc.a(lib_a-fwalk.o)
 .debug_aranges
                0x0000000000000a30       0x28 /package/eda/altera/altera17.0/nios2eds/bin/gnu/H-x86_64-pc-linux-gnu/bin/../lib/gcc/nios2-elf/5.3.0/../../../../../H-x86_64-pc-linux-gnu/nios2-elf/lib/pg/libc.a(lib_a-fwrite.o)
 .debug_aranges
                0x0000000000000a58       0x18 /package/eda/altera/altera17.0/nios2eds/bin/gnu/H-x86_64-pc-linux-gnu/bin/../lib/gcc/nios2-elf/5.3.0/../../../../../H-x86_64-pc-linux-gnu/nios2-elf/lib/pg/libc.a(lib_a-impure.o)
 .debug_aranges
                0x0000000000000a70       0x18 /package/eda/altera/altera17.0/nios2eds/bin/gnu/H-x86_64-pc-linux-gnu/bin/../lib/gcc/nios2-elf/5.3.0/../../../../../H-x86_64-pc-linux-gnu/nios2-elf/lib/pg/libc.a(lib_a-int_errno.o)
 .debug_aranges
                0x0000000000000a88       0x20 /package/eda/altera/altera17.0/nios2eds/bin/gnu/H-x86_64-pc-linux-gnu/bin/../lib/gcc/nios2-elf/5.3.0/../../../../../H-x86_64-pc-linux-gnu/nios2-elf/lib/pg/libc.a(lib_a-makebuf.o)
 .debug_aranges
                0x0000000000000aa8       0x28 /package/eda/altera/altera17.0/nios2eds/bin/gnu/H-x86_64-pc-linux-gnu/bin/../lib/gcc/nios2-elf/5.3.0/../../../../../H-x86_64-pc-linux-gnu/nios2-elf/lib/pg/libc.a(lib_a-malloc.o)
 .debug_aranges
                0x0000000000000ad0       0x20 /package/eda/altera/altera17.0/nios2eds/bin/gnu/H-x86_64-pc-linux-gnu/bin/../lib/gcc/nios2-elf/5.3.0/../../../../../H-x86_64-pc-linux-gnu/nios2-elf/lib/pg/libc.a(lib_a-mallocr.o)
 .debug_aranges
                0x0000000000000af0       0x20 /package/eda/altera/altera17.0/nios2eds/bin/gnu/H-x86_64-pc-linux-gnu/bin/../lib/gcc/nios2-elf/5.3.0/../../../../../H-x86_64-pc-linux-gnu/nios2-elf/lib/pg/libc.a(lib_a-memchr.o)
 .debug_aranges
                0x0000000000000b10       0x20 /package/eda/altera/altera17.0/nios2eds/bin/gnu/H-x86_64-pc-linux-gnu/bin/../lib/gcc/nios2-elf/5.3.0/../../../../../H-x86_64-pc-linux-gnu/nios2-elf/lib/pg/libc.a(lib_a-memcpy.o)
 .debug_aranges
                0x0000000000000b30       0x20 /package/eda/altera/altera17.0/nios2eds/bin/gnu/H-x86_64-pc-linux-gnu/bin/../lib/gcc/nios2-elf/5.3.0/../../../../../H-x86_64-pc-linux-gnu/nios2-elf/lib/pg/libc.a(lib_a-memmove.o)
 .debug_aranges
                0x0000000000000b50       0x20 /package/eda/altera/altera17.0/nios2eds/bin/gnu/H-x86_64-pc-linux-gnu/bin/../lib/gcc/nios2-elf/5.3.0/../../../../../H-x86_64-pc-linux-gnu/nios2-elf/lib/pg/libc.a(lib_a-memset.o)
 .debug_aranges
                0x0000000000000b70       0x20 /package/eda/altera/altera17.0/nios2eds/bin/gnu/H-x86_64-pc-linux-gnu/bin/../lib/gcc/nios2-elf/5.3.0/../../../../../H-x86_64-pc-linux-gnu/nios2-elf/lib/pg/libc.a(lib_a-openr.o)
 .debug_aranges
                0x0000000000000b90       0x28 /package/eda/altera/altera17.0/nios2eds/bin/gnu/H-x86_64-pc-linux-gnu/bin/../lib/gcc/nios2-elf/5.3.0/../../../../../H-x86_64-pc-linux-gnu/nios2-elf/lib/pg/libc.a(lib_a-printf.o)
 .debug_aranges
                0x0000000000000bb8       0x28 /package/eda/altera/altera17.0/nios2eds/bin/gnu/H-x86_64-pc-linux-gnu/bin/../lib/gcc/nios2-elf/5.3.0/../../../../../H-x86_64-pc-linux-gnu/nios2-elf/lib/pg/libc.a(lib_a-putc.o)
 .debug_aranges
                0x0000000000000be0       0x20 /package/eda/altera/altera17.0/nios2eds/bin/gnu/H-x86_64-pc-linux-gnu/bin/../lib/gcc/nios2-elf/5.3.0/../../../../../H-x86_64-pc-linux-gnu/nios2-elf/lib/pg/libc.a(lib_a-realloc.o)
 .debug_aranges
                0x0000000000000c00       0x20 /package/eda/altera/altera17.0/nios2eds/bin/gnu/H-x86_64-pc-linux-gnu/bin/../lib/gcc/nios2-elf/5.3.0/../../../../../H-x86_64-pc-linux-gnu/nios2-elf/lib/pg/libc.a(lib_a-reallocr.o)
 .debug_aranges
                0x0000000000000c20       0x28 /package/eda/altera/altera17.0/nios2eds/bin/gnu/H-x86_64-pc-linux-gnu/bin/../lib/gcc/nios2-elf/5.3.0/../../../../../H-x86_64-pc-linux-gnu/nios2-elf/lib/pg/libc.a(lib_a-refill.o)
 .debug_aranges
                0x0000000000000c48       0x20 /package/eda/altera/altera17.0/nios2eds/bin/gnu/H-x86_64-pc-linux-gnu/bin/../lib/gcc/nios2-elf/5.3.0/../../../../../H-x86_64-pc-linux-gnu/nios2-elf/lib/pg/libc.a(lib_a-sbrkr.o)
 .debug_aranges
                0x0000000000000c68       0x58 /package/eda/altera/altera17.0/nios2eds/bin/gnu/H-x86_64-pc-linux-gnu/bin/../lib/gcc/nios2-elf/5.3.0/../../../../../H-x86_64-pc-linux-gnu/nios2-elf/lib/pg/libc.a(lib_a-signal.o)
 .debug_aranges
                0x0000000000000cc0       0x28 /package/eda/altera/altera17.0/nios2eds/bin/gnu/H-x86_64-pc-linux-gnu/bin/../lib/gcc/nios2-elf/5.3.0/../../../../../H-x86_64-pc-linux-gnu/nios2-elf/lib/pg/libc.a(lib_a-signalr.o)
 .debug_aranges
                0x0000000000000ce8       0x40 /package/eda/altera/altera17.0/nios2eds/bin/gnu/H-x86_64-pc-linux-gnu/bin/../lib/gcc/nios2-elf/5.3.0/../../../../../H-x86_64-pc-linux-gnu/nios2-elf/lib/pg/libc.a(lib_a-stdio.o)
 .debug_aranges
                0x0000000000000d28       0x20 /package/eda/altera/altera17.0/nios2eds/bin/gnu/H-x86_64-pc-linux-gnu/bin/../lib/gcc/nios2-elf/5.3.0/../../../../../H-x86_64-pc-linux-gnu/nios2-elf/lib/pg/libc.a(lib_a-strcmp.o)
 .debug_aranges
                0x0000000000000d48       0x20 /package/eda/altera/altera17.0/nios2eds/bin/gnu/H-x86_64-pc-linux-gnu/bin/../lib/gcc/nios2-elf/5.3.0/../../../../../H-x86_64-pc-linux-gnu/nios2-elf/lib/pg/libc.a(lib_a-strdup.o)
 .debug_aranges
                0x0000000000000d68       0x20 /package/eda/altera/altera17.0/nios2eds/bin/gnu/H-x86_64-pc-linux-gnu/bin/../lib/gcc/nios2-elf/5.3.0/../../../../../H-x86_64-pc-linux-gnu/nios2-elf/lib/pg/libc.a(lib_a-strdup_r.o)
 .debug_aranges
                0x0000000000000d88       0x20 /package/eda/altera/altera17.0/nios2eds/bin/gnu/H-x86_64-pc-linux-gnu/bin/../lib/gcc/nios2-elf/5.3.0/../../../../../H-x86_64-pc-linux-gnu/nios2-elf/lib/pg/libc.a(lib_a-strlen.o)
 .debug_aranges
                0x0000000000000da8       0x20 /package/eda/altera/altera17.0/nios2eds/bin/gnu/H-x86_64-pc-linux-gnu/bin/../lib/gcc/nios2-elf/5.3.0/../../../../../H-x86_64-pc-linux-gnu/nios2-elf/lib/pg/libc.a(lib_a-strncmp.o)
 .debug_aranges
                0x0000000000000dc8       0x38 /package/eda/altera/altera17.0/nios2eds/bin/gnu/H-x86_64-pc-linux-gnu/bin/../lib/gcc/nios2-elf/5.3.0/../../../../../H-x86_64-pc-linux-gnu/nios2-elf/lib/pg/libc.a(lib_a-strtod.o)
 .debug_aranges
                0x0000000000000e00       0x20 /package/eda/altera/altera17.0/nios2eds/bin/gnu/H-x86_64-pc-linux-gnu/bin/../lib/gcc/nios2-elf/5.3.0/../../../../../H-x86_64-pc-linux-gnu/nios2-elf/lib/pg/libc.a(lib_a-vfiprintfr_1.o)
 .debug_aranges
                0x0000000000000e20       0x30 /package/eda/altera/altera17.0/nios2eds/bin/gnu/H-x86_64-pc-linux-gnu/bin/../lib/gcc/nios2-elf/5.3.0/../../../../../H-x86_64-pc-linux-gnu/nios2-elf/lib/pg/libc.a(lib_a-vfprintf.o)
 .debug_aranges
                0x0000000000000e50       0x28 /package/eda/altera/altera17.0/nios2eds/bin/gnu/H-x86_64-pc-linux-gnu/bin/../lib/gcc/nios2-elf/5.3.0/../../../../../H-x86_64-pc-linux-gnu/nios2-elf/lib/pg/libc.a(lib_a-wbuf.o)
 .debug_aranges
                0x0000000000000e78       0x20 /package/eda/altera/altera17.0/nios2eds/bin/gnu/H-x86_64-pc-linux-gnu/bin/../lib/gcc/nios2-elf/5.3.0/../../../../../H-x86_64-pc-linux-gnu/nios2-elf/lib/pg/libc.a(lib_a-writer.o)
 .debug_aranges
                0x0000000000000e98       0x20 /package/eda/altera/altera17.0/nios2eds/bin/gnu/H-x86_64-pc-linux-gnu/bin/../lib/gcc/nios2-elf/5.3.0/../../../../../H-x86_64-pc-linux-gnu/nios2-elf/lib/pg/libc.a(lib_a-wsetup.o)
 .debug_aranges
                0x0000000000000eb8       0x20 /package/eda/altera/altera17.0/nios2eds/bin/gnu/H-x86_64-pc-linux-gnu/bin/../lib/gcc/nios2-elf/5.3.0/../../../../../H-x86_64-pc-linux-gnu/nios2-elf/lib/pg/libc.a(closer.o)
 .debug_aranges
                0x0000000000000ed8       0x20 /package/eda/altera/altera17.0/nios2eds/bin/gnu/H-x86_64-pc-linux-gnu/bin/../lib/gcc/nios2-elf/5.3.0/../../../../../H-x86_64-pc-linux-gnu/nios2-elf/lib/pg/libc.a(lib_a-__call_atexit.o)
 .debug_aranges
                0x0000000000000ef8       0x28 /package/eda/altera/altera17.0/nios2eds/bin/gnu/H-x86_64-pc-linux-gnu/bin/../lib/gcc/nios2-elf/5.3.0/../../../../../H-x86_64-pc-linux-gnu/nios2-elf/lib/pg/libc.a(lib_a-dtoa.o)
 .debug_aranges
                0x0000000000000f20       0x20 /package/eda/altera/altera17.0/nios2eds/bin/gnu/H-x86_64-pc-linux-gnu/bin/../lib/gcc/nios2-elf/5.3.0/../../../../../H-x86_64-pc-linux-gnu/nios2-elf/lib/pg/libc.a(lib_a-flags.o)
 .debug_aranges
                0x0000000000000f40       0x28 /package/eda/altera/altera17.0/nios2eds/bin/gnu/H-x86_64-pc-linux-gnu/bin/../lib/gcc/nios2-elf/5.3.0/../../../../../H-x86_64-pc-linux-gnu/nios2-elf/lib/pg/libc.a(lib_a-gdtoa-gethex.o)
 .debug_aranges
                0x0000000000000f68       0x20 /package/eda/altera/altera17.0/nios2eds/bin/gnu/H-x86_64-pc-linux-gnu/bin/../lib/gcc/nios2-elf/5.3.0/../../../../../H-x86_64-pc-linux-gnu/nios2-elf/lib/pg/libc.a(lib_a-gdtoa-hexnan.o)
 .debug_aranges
                0x0000000000000f88       0x20 /package/eda/altera/altera17.0/nios2eds/bin/gnu/H-x86_64-pc-linux-gnu/bin/../lib/gcc/nios2-elf/5.3.0/../../../../../H-x86_64-pc-linux-gnu/nios2-elf/lib/pg/libc.a(lib_a-isattyr.o)
 .debug_aranges
                0x0000000000000fa8       0x58 /package/eda/altera/altera17.0/nios2eds/bin/gnu/H-x86_64-pc-linux-gnu/bin/../lib/gcc/nios2-elf/5.3.0/../../../../../H-x86_64-pc-linux-gnu/nios2-elf/lib/pg/libc.a(lib_a-locale.o)
 .debug_aranges
                0x0000000000001000       0x20 /package/eda/altera/altera17.0/nios2eds/bin/gnu/H-x86_64-pc-linux-gnu/bin/../lib/gcc/nios2-elf/5.3.0/../../../../../H-x86_64-pc-linux-gnu/nios2-elf/lib/pg/libc.a(lib_a-lseekr.o)
 .debug_aranges
                0x0000000000001020       0xb0 /package/eda/altera/altera17.0/nios2eds/bin/gnu/H-x86_64-pc-linux-gnu/bin/../lib/gcc/nios2-elf/5.3.0/../../../../../H-x86_64-pc-linux-gnu/nios2-elf/lib/pg/libc.a(lib_a-mprec.o)
 .debug_aranges
                0x00000000000010d0       0x20 /package/eda/altera/altera17.0/nios2eds/bin/gnu/H-x86_64-pc-linux-gnu/bin/../lib/gcc/nios2-elf/5.3.0/../../../../../H-x86_64-pc-linux-gnu/nios2-elf/lib/pg/libc.a(lib_a-readr.o)
 .debug_aranges
                0x00000000000010f0       0x40 /package/eda/altera/altera17.0/nios2eds/bin/gnu/H-x86_64-pc-linux-gnu/bin/../lib/gcc/nios2-elf/5.3.0/../../../../../H-x86_64-pc-linux-gnu/nios2-elf/lib/pg/libc.a(lib_a-vfiprintf.o)
 .debug_aranges
                0x0000000000001130       0x30 /package/eda/altera/altera17.0/nios2eds/bin/gnu/H-x86_64-pc-linux-gnu/bin/../lib/gcc/nios2-elf/5.3.0/../../../../../H-x86_64-pc-linux-gnu/nios2-elf/lib/pg/libc.a(lib_a-fputwc.o)
 .debug_aranges
                0x0000000000001160       0x28 /package/eda/altera/altera17.0/nios2eds/bin/gnu/H-x86_64-pc-linux-gnu/bin/../lib/gcc/nios2-elf/5.3.0/../../../../../H-x86_64-pc-linux-gnu/nios2-elf/lib/pg/libc.a(lib_a-wcrtomb.o)
 .debug_aranges
                0x0000000000001188       0x28 /package/eda/altera/altera17.0/nios2eds/bin/gnu/H-x86_64-pc-linux-gnu/bin/../lib/gcc/nios2-elf/5.3.0/../../../../../H-x86_64-pc-linux-gnu/nios2-elf/lib/pg/libc.a(lib_a-wctomb_r.o)
 .debug_aranges
                0x00000000000011b0       0x20 /package/eda/altera/altera17.0/nios2eds/bin/gnu/H-x86_64-pc-linux-gnu/bin/../lib/gcc/nios2-elf/5.3.0/pg/libgcc.a(_fixunsdfsi.o)
 .debug_aranges
                0x00000000000011d0       0x20 /package/eda/altera/altera17.0/nios2eds/bin/gnu/H-x86_64-pc-linux-gnu/bin/../lib/gcc/nios2-elf/5.3.0/pg/libgcc.a(_udivdi3.o)
 .debug_aranges
                0x00000000000011f0       0x20 /package/eda/altera/altera17.0/nios2eds/bin/gnu/H-x86_64-pc-linux-gnu/bin/../lib/gcc/nios2-elf/5.3.0/pg/libgcc.a(_umoddi3.o)
 .debug_aranges
                0x0000000000001210       0x20 /package/eda/altera/altera17.0/nios2eds/bin/gnu/H-x86_64-pc-linux-gnu/bin/../lib/gcc/nios2-elf/5.3.0/pg/libgcc.a(floatunsidf.o)
 .debug_aranges
                0x0000000000001230       0x20 ../MNIST_CNN_Software_bsp//libhal_bsp.a(alt_mcount.o)
 .debug_aranges
                0x0000000000001250       0x30 ../MNIST_CNN_Software_bsp//libhal_bsp.a(alt_irq_entry.o)
 .debug_aranges
                0x0000000000001280       0x38 ../MNIST_CNN_Software_bsp//libhal_bsp.a(alt_exception_entry.o)
 .debug_aranges
                0x00000000000012b8       0x20 /package/eda/altera/altera17.0/nios2eds/bin/gnu/H-x86_64-pc-linux-gnu/bin/../lib/gcc/nios2-elf/5.3.0/../../../../../H-x86_64-pc-linux-gnu/nios2-elf/lib/pg/libc.a(lib_a-atexit.o)
 .debug_aranges
                0x00000000000012d8       0x20 /package/eda/altera/altera17.0/nios2eds/bin/gnu/H-x86_64-pc-linux-gnu/bin/../lib/gcc/nios2-elf/5.3.0/../../../../../H-x86_64-pc-linux-gnu/nios2-elf/lib/pg/libc.a(lib_a-memcmp.o)
 .debug_aranges
                0x00000000000012f8       0x20 /package/eda/altera/altera17.0/nios2eds/bin/gnu/H-x86_64-pc-linux-gnu/bin/../lib/gcc/nios2-elf/5.3.0/../../../../../H-x86_64-pc-linux-gnu/nios2-elf/lib/pg/libc.a(lib_a-__atexit.o)

.debug_pubnames
 *(.debug_pubnames)

.debug_info     0x0000000000000000    0x32435
 *(.debug_info .gnu.linkonce.wi.*)
 .debug_info    0x0000000000000000       0xb9 ../MNIST_CNN_Software_bsp//obj/HAL/src/crt0.o
 .debug_info    0x00000000000000b9      0x188 /package/eda/altera/altera17.0/nios2eds/bin/gnu/H-x86_64-pc-linux-gnu/bin/../lib/gcc/nios2-elf/5.3.0/../../../../../H-x86_64-pc-linux-gnu/nios2-elf/lib/pg/libm.a(lib_a-sf_cos.o)
 .debug_info    0x0000000000000241      0x173 /package/eda/altera/altera17.0/nios2eds/bin/gnu/H-x86_64-pc-linux-gnu/bin/../lib/gcc/nios2-elf/5.3.0/../../../../../H-x86_64-pc-linux-gnu/nios2-elf/lib/pg/libm.a(lib_a-sf_sin.o)
 .debug_info    0x00000000000003b4      0x221 /package/eda/altera/altera17.0/nios2eds/bin/gnu/H-x86_64-pc-linux-gnu/bin/../lib/gcc/nios2-elf/5.3.0/../../../../../H-x86_64-pc-linux-gnu/nios2-elf/lib/pg/libm.a(lib_a-w_log.o)
 .debug_info    0x00000000000005d5      0x1e1 /package/eda/altera/altera17.0/nios2eds/bin/gnu/H-x86_64-pc-linux-gnu/bin/../lib/gcc/nios2-elf/5.3.0/../../../../../H-x86_64-pc-linux-gnu/nios2-elf/lib/pg/libm.a(lib_a-w_sqrt.o)
 .debug_info    0x00000000000007b6      0x203 /package/eda/altera/altera17.0/nios2eds/bin/gnu/H-x86_64-pc-linux-gnu/bin/../lib/gcc/nios2-elf/5.3.0/../../../../../H-x86_64-pc-linux-gnu/nios2-elf/lib/pg/libm.a(lib_a-wf_exp.o)
 .debug_info    0x00000000000009b9      0x21d /package/eda/altera/altera17.0/nios2eds/bin/gnu/H-x86_64-pc-linux-gnu/bin/../lib/gcc/nios2-elf/5.3.0/../../../../../H-x86_64-pc-linux-gnu/nios2-elf/lib/pg/libm.a(lib_a-wf_log.o)
 .debug_info    0x0000000000000bd6      0x1dd /package/eda/altera/altera17.0/nios2eds/bin/gnu/H-x86_64-pc-linux-gnu/bin/../lib/gcc/nios2-elf/5.3.0/../../../../../H-x86_64-pc-linux-gnu/nios2-elf/lib/pg/libm.a(lib_a-wf_sqrt.o)
 .debug_info    0x0000000000000db3      0x2c9 /package/eda/altera/altera17.0/nios2eds/bin/gnu/H-x86_64-pc-linux-gnu/bin/../lib/gcc/nios2-elf/5.3.0/../../../../../H-x86_64-pc-linux-gnu/nios2-elf/lib/pg/libm.a(lib_a-e_log.o)
 .debug_info    0x000000000000107c      0x22d /package/eda/altera/altera17.0/nios2eds/bin/gnu/H-x86_64-pc-linux-gnu/bin/../lib/gcc/nios2-elf/5.3.0/../../../../../H-x86_64-pc-linux-gnu/nios2-elf/lib/pg/libm.a(lib_a-e_sqrt.o)
 .debug_info    0x00000000000012a9      0x2d2 /package/eda/altera/altera17.0/nios2eds/bin/gnu/H-x86_64-pc-linux-gnu/bin/../lib/gcc/nios2-elf/5.3.0/../../../../../H-x86_64-pc-linux-gnu/nios2-elf/lib/pg/libm.a(lib_a-ef_exp.o)
 .debug_info    0x000000000000157b      0x280 /package/eda/altera/altera17.0/nios2eds/bin/gnu/H-x86_64-pc-linux-gnu/bin/../lib/gcc/nios2-elf/5.3.0/../../../../../H-x86_64-pc-linux-gnu/nios2-elf/lib/pg/libm.a(lib_a-ef_log.o)
 .debug_info    0x00000000000017fb      0x33e /package/eda/altera/altera17.0/nios2eds/bin/gnu/H-x86_64-pc-linux-gnu/bin/../lib/gcc/nios2-elf/5.3.0/../../../../../H-x86_64-pc-linux-gnu/nios2-elf/lib/pg/libm.a(lib_a-ef_rem_pio2.o)
 .debug_info    0x0000000000001b39      0x1c0 /package/eda/altera/altera17.0/nios2eds/bin/gnu/H-x86_64-pc-linux-gnu/bin/../lib/gcc/nios2-elf/5.3.0/../../../../../H-x86_64-pc-linux-gnu/nios2-elf/lib/pg/libm.a(lib_a-ef_sqrt.o)
 .debug_info    0x0000000000001cf9      0x1d8 /package/eda/altera/altera17.0/nios2eds/bin/gnu/H-x86_64-pc-linux-gnu/bin/../lib/gcc/nios2-elf/5.3.0/../../../../../H-x86_64-pc-linux-gnu/nios2-elf/lib/pg/libm.a(lib_a-kf_cos.o)
 .debug_info    0x0000000000001ed1      0x34a /package/eda/altera/altera17.0/nios2eds/bin/gnu/H-x86_64-pc-linux-gnu/bin/../lib/gcc/nios2-elf/5.3.0/../../../../../H-x86_64-pc-linux-gnu/nios2-elf/lib/pg/libm.a(lib_a-kf_rem_pio2.o)
 .debug_info    0x000000000000221b      0x180 /package/eda/altera/altera17.0/nios2eds/bin/gnu/H-x86_64-pc-linux-gnu/bin/../lib/gcc/nios2-elf/5.3.0/../../../../../H-x86_64-pc-linux-gnu/nios2-elf/lib/pg/libm.a(lib_a-kf_sin.o)
 .debug_info    0x000000000000239b       0xdc /package/eda/altera/altera17.0/nios2eds/bin/gnu/H-x86_64-pc-linux-gnu/bin/../lib/gcc/nios2-elf/5.3.0/../../../../../H-x86_64-pc-linux-gnu/nios2-elf/lib/pg/libm.a(lib_a-s_fpclassify.o)
 .debug_info    0x0000000000002477       0xc2 /package/eda/altera/altera17.0/nios2eds/bin/gnu/H-x86_64-pc-linux-gnu/bin/../lib/gcc/nios2-elf/5.3.0/../../../../../H-x86_64-pc-linux-gnu/nios2-elf/lib/pg/libm.a(lib_a-s_lib_ver.o)
 .debug_info    0x0000000000002539      0x127 /package/eda/altera/altera17.0/nios2eds/bin/gnu/H-x86_64-pc-linux-gnu/bin/../lib/gcc/nios2-elf/5.3.0/../../../../../H-x86_64-pc-linux-gnu/nios2-elf/lib/pg/libm.a(lib_a-s_matherr.o)
 .debug_info    0x0000000000002660       0xd0 /package/eda/altera/altera17.0/nios2eds/bin/gnu/H-x86_64-pc-linux-gnu/bin/../lib/gcc/nios2-elf/5.3.0/../../../../../H-x86_64-pc-linux-gnu/nios2-elf/lib/pg/libm.a(lib_a-s_nan.o)
 .debug_info    0x0000000000002730      0x10d /package/eda/altera/altera17.0/nios2eds/bin/gnu/H-x86_64-pc-linux-gnu/bin/../lib/gcc/nios2-elf/5.3.0/../../../../../H-x86_64-pc-linux-gnu/nios2-elf/lib/pg/libm.a(lib_a-sf_fabs.o)
 .debug_info    0x000000000000283d       0xd0 /package/eda/altera/altera17.0/nios2eds/bin/gnu/H-x86_64-pc-linux-gnu/bin/../lib/gcc/nios2-elf/5.3.0/../../../../../H-x86_64-pc-linux-gnu/nios2-elf/lib/pg/libm.a(lib_a-sf_finite.o)
 .debug_info    0x000000000000290d      0x15c /package/eda/altera/altera17.0/nios2eds/bin/gnu/H-x86_64-pc-linux-gnu/bin/../lib/gcc/nios2-elf/5.3.0/../../../../../H-x86_64-pc-linux-gnu/nios2-elf/lib/pg/libm.a(lib_a-sf_floor.o)
 .debug_info    0x0000000000002a69       0xca /package/eda/altera/altera17.0/nios2eds/bin/gnu/H-x86_64-pc-linux-gnu/bin/../lib/gcc/nios2-elf/5.3.0/../../../../../H-x86_64-pc-linux-gnu/nios2-elf/lib/pg/libm.a(lib_a-sf_fpclassify.o)
 .debug_info    0x0000000000002b33      0x1d6 /package/eda/altera/altera17.0/nios2eds/bin/gnu/H-x86_64-pc-linux-gnu/bin/../lib/gcc/nios2-elf/5.3.0/../../../../../H-x86_64-pc-linux-gnu/nios2-elf/lib/pg/libm.a(lib_a-sf_scalbn.o)
 .debug_info    0x0000000000002d09      0x126 /package/eda/altera/altera17.0/nios2eds/bin/gnu/H-x86_64-pc-linux-gnu/bin/../lib/gcc/nios2-elf/5.3.0/../../../../../H-x86_64-pc-linux-gnu/nios2-elf/lib/pg/libm.a(lib_a-sf_copysign.o)
 .debug_info    0x0000000000002e2f      0x1eb /package/eda/altera/altera17.0/nios2eds/bin/gnu/H-x86_64-pc-linux-gnu/bin/../lib/gcc/nios2-elf/5.3.0/pg/libgcc.a(_muldi3.o)
 .debug_info    0x000000000000301a       0xc7 /package/eda/altera/altera17.0/nios2eds/bin/gnu/H-x86_64-pc-linux-gnu/bin/../lib/gcc/nios2-elf/5.3.0/pg/libgcc.a(_fixunssfsi.o)
 .debug_info    0x00000000000030e1      0x2c6 /package/eda/altera/altera17.0/nios2eds/bin/gnu/H-x86_64-pc-linux-gnu/bin/../lib/gcc/nios2-elf/5.3.0/pg/libgcc.a(lib2-divmod.o)
 .debug_info    0x00000000000033a7       0x7b /package/eda/altera/altera17.0/nios2eds/bin/gnu/H-x86_64-pc-linux-gnu/bin/../lib/gcc/nios2-elf/5.3.0/pg/libgcc.a(lib2-divtable.o)
 .debug_info    0x0000000000003422      0x2b7 /package/eda/altera/altera17.0/nios2eds/bin/gnu/H-x86_64-pc-linux-gnu/bin/../lib/gcc/nios2-elf/5.3.0/pg/libgcc.a(addsf3.o)
 .debug_info    0x00000000000036d9      0x2bb /package/eda/altera/altera17.0/nios2eds/bin/gnu/H-x86_64-pc-linux-gnu/bin/../lib/gcc/nios2-elf/5.3.0/pg/libgcc.a(divsf3.o)
 .debug_info    0x0000000000003994      0x1b3 /package/eda/altera/altera17.0/nios2eds/bin/gnu/H-x86_64-pc-linux-gnu/bin/../lib/gcc/nios2-elf/5.3.0/pg/libgcc.a(eqsf2.o)
 .debug_info    0x0000000000003b47      0x1d3 /package/eda/altera/altera17.0/nios2eds/bin/gnu/H-x86_64-pc-linux-gnu/bin/../lib/gcc/nios2-elf/5.3.0/pg/libgcc.a(gesf2.o)
 .debug_info    0x0000000000003d1a      0x1d5 /package/eda/altera/altera17.0/nios2eds/bin/gnu/H-x86_64-pc-linux-gnu/bin/../lib/gcc/nios2-elf/5.3.0/pg/libgcc.a(lesf2.o)
 .debug_info    0x0000000000003eef      0x321 /package/eda/altera/altera17.0/nios2eds/bin/gnu/H-x86_64-pc-linux-gnu/bin/../lib/gcc/nios2-elf/5.3.0/pg/libgcc.a(mulsf3.o)
 .debug_info    0x0000000000004210      0x2b7 /package/eda/altera/altera17.0/nios2eds/bin/gnu/H-x86_64-pc-linux-gnu/bin/../lib/gcc/nios2-elf/5.3.0/pg/libgcc.a(subsf3.o)
 .debug_info    0x00000000000044c7      0x188 /package/eda/altera/altera17.0/nios2eds/bin/gnu/H-x86_64-pc-linux-gnu/bin/../lib/gcc/nios2-elf/5.3.0/pg/libgcc.a(fixsfsi.o)
 .debug_info    0x000000000000464f      0x1c7 /package/eda/altera/altera17.0/nios2eds/bin/gnu/H-x86_64-pc-linux-gnu/bin/../lib/gcc/nios2-elf/5.3.0/pg/libgcc.a(floatsisf.o)
 .debug_info    0x0000000000004816      0x4a2 /package/eda/altera/altera17.0/nios2eds/bin/gnu/H-x86_64-pc-linux-gnu/bin/../lib/gcc/nios2-elf/5.3.0/pg/libgcc.a(adddf3.o)
 .debug_info    0x0000000000004cb8      0x5cb /package/eda/altera/altera17.0/nios2eds/bin/gnu/H-x86_64-pc-linux-gnu/bin/../lib/gcc/nios2-elf/5.3.0/pg/libgcc.a(divdf3.o)
 .debug_info    0x0000000000005283      0x1e2 /package/eda/altera/altera17.0/nios2eds/bin/gnu/H-x86_64-pc-linux-gnu/bin/../lib/gcc/nios2-elf/5.3.0/pg/libgcc.a(eqdf2.o)
 .debug_info    0x0000000000005465      0x202 /package/eda/altera/altera17.0/nios2eds/bin/gnu/H-x86_64-pc-linux-gnu/bin/../lib/gcc/nios2-elf/5.3.0/pg/libgcc.a(gedf2.o)
 .debug_info    0x0000000000005667      0x204 /package/eda/altera/altera17.0/nios2eds/bin/gnu/H-x86_64-pc-linux-gnu/bin/../lib/gcc/nios2-elf/5.3.0/pg/libgcc.a(ledf2.o)
 .debug_info    0x000000000000586b      0x5f9 /package/eda/altera/altera17.0/nios2eds/bin/gnu/H-x86_64-pc-linux-gnu/bin/../lib/gcc/nios2-elf/5.3.0/pg/libgcc.a(muldf3.o)
 .debug_info    0x0000000000005e64      0x4a2 /package/eda/altera/altera17.0/nios2eds/bin/gnu/H-x86_64-pc-linux-gnu/bin/../lib/gcc/nios2-elf/5.3.0/pg/libgcc.a(subdf3.o)
 .debug_info    0x0000000000006306      0x1ab /package/eda/altera/altera17.0/nios2eds/bin/gnu/H-x86_64-pc-linux-gnu/bin/../lib/gcc/nios2-elf/5.3.0/pg/libgcc.a(fixdfsi.o)
 .debug_info    0x00000000000064b1      0x1bc /package/eda/altera/altera17.0/nios2eds/bin/gnu/H-x86_64-pc-linux-gnu/bin/../lib/gcc/nios2-elf/5.3.0/pg/libgcc.a(floatsidf.o)
 .debug_info    0x000000000000666d      0x248 /package/eda/altera/altera17.0/nios2eds/bin/gnu/H-x86_64-pc-linux-gnu/bin/../lib/gcc/nios2-elf/5.3.0/pg/libgcc.a(extendsfdf2.o)
 .debug_info    0x00000000000068b5      0x248 /package/eda/altera/altera17.0/nios2eds/bin/gnu/H-x86_64-pc-linux-gnu/bin/../lib/gcc/nios2-elf/5.3.0/pg/libgcc.a(truncdfsf2.o)
 .debug_info    0x0000000000006afd      0x124 /package/eda/altera/altera17.0/nios2eds/bin/gnu/H-x86_64-pc-linux-gnu/bin/../lib/gcc/nios2-elf/5.3.0/pg/libgcc.a(_clzsi2.o)
 .debug_info    0x0000000000006c21       0xb2 /package/eda/altera/altera17.0/nios2eds/bin/gnu/H-x86_64-pc-linux-gnu/bin/../lib/gcc/nios2-elf/5.3.0/pg/libgcc.a(_clz.o)
 .debug_info    0x0000000000006cd3       0xcf /package/eda/altera/altera17.0/nios2eds/bin/gnu/H-x86_64-pc-linux-gnu/bin/../lib/gcc/nios2-elf/5.3.0/../../../../../H-x86_64-pc-linux-gnu/nios2-elf/lib/pg/libc.a(lib_a-abort.o)
 .debug_info    0x0000000000006da2      0x986 /package/eda/altera/altera17.0/nios2eds/bin/gnu/H-x86_64-pc-linux-gnu/bin/../lib/gcc/nios2-elf/5.3.0/../../../../../H-x86_64-pc-linux-gnu/nios2-elf/lib/pg/libc.a(lib_a-assert.o)
 .debug_info    0x0000000000007728      0x8e5 /package/eda/altera/altera17.0/nios2eds/bin/gnu/H-x86_64-pc-linux-gnu/bin/../lib/gcc/nios2-elf/5.3.0/../../../../../H-x86_64-pc-linux-gnu/nios2-elf/lib/pg/libc.a(lib_a-calloc.o)
 .debug_info    0x000000000000800d      0x9d9 /package/eda/altera/altera17.0/nios2eds/bin/gnu/H-x86_64-pc-linux-gnu/bin/../lib/gcc/nios2-elf/5.3.0/../../../../../H-x86_64-pc-linux-gnu/nios2-elf/lib/pg/libc.a(lib_a-callocr.o)
 .debug_info    0x00000000000089e6      0x89b /package/eda/altera/altera17.0/nios2eds/bin/gnu/H-x86_64-pc-linux-gnu/bin/../lib/gcc/nios2-elf/5.3.0/../../../../../H-x86_64-pc-linux-gnu/nios2-elf/lib/pg/libc.a(lib_a-errno.o)
 .debug_info    0x0000000000009281      0x8e4 /package/eda/altera/altera17.0/nios2eds/bin/gnu/H-x86_64-pc-linux-gnu/bin/../lib/gcc/nios2-elf/5.3.0/../../../../../H-x86_64-pc-linux-gnu/nios2-elf/lib/pg/libc.a(lib_a-exit.o)
 .debug_info    0x0000000000009b65      0xa23 /package/eda/altera/altera17.0/nios2eds/bin/gnu/H-x86_64-pc-linux-gnu/bin/../lib/gcc/nios2-elf/5.3.0/../../../../../H-x86_64-pc-linux-gnu/nios2-elf/lib/pg/libc.a(lib_a-fclose.o)
 .debug_info    0x000000000000a588      0xa93 /package/eda/altera/altera17.0/nios2eds/bin/gnu/H-x86_64-pc-linux-gnu/bin/../lib/gcc/nios2-elf/5.3.0/../../../../../H-x86_64-pc-linux-gnu/nios2-elf/lib/pg/libc.a(lib_a-fflush.o)
 .debug_info    0x000000000000b01b      0xa39 /package/eda/altera/altera17.0/nios2eds/bin/gnu/H-x86_64-pc-linux-gnu/bin/../lib/gcc/nios2-elf/5.3.0/../../../../../H-x86_64-pc-linux-gnu/nios2-elf/lib/pg/libc.a(lib_a-fgets.o)
 .debug_info    0x000000000000ba54      0x8f1 /package/eda/altera/altera17.0/nios2eds/bin/gnu/H-x86_64-pc-linux-gnu/bin/../lib/gcc/nios2-elf/5.3.0/../../../../../H-x86_64-pc-linux-gnu/nios2-elf/lib/pg/libc.a(lib_a-fileno.o)
 .debug_info    0x000000000000c345      0xd37 /package/eda/altera/altera17.0/nios2eds/bin/gnu/H-x86_64-pc-linux-gnu/bin/../lib/gcc/nios2-elf/5.3.0/../../../../../H-x86_64-pc-linux-gnu/nios2-elf/lib/pg/libc.a(lib_a-findfp.o)
 .debug_info    0x000000000000d07c      0x9b3 /package/eda/altera/altera17.0/nios2eds/bin/gnu/H-x86_64-pc-linux-gnu/bin/../lib/gcc/nios2-elf/5.3.0/../../../../../H-x86_64-pc-linux-gnu/nios2-elf/lib/pg/libc.a(lib_a-fiprintf.o)
 .debug_info    0x000000000000da2f      0xa34 /package/eda/altera/altera17.0/nios2eds/bin/gnu/H-x86_64-pc-linux-gnu/bin/../lib/gcc/nios2-elf/5.3.0/../../../../../H-x86_64-pc-linux-gnu/nios2-elf/lib/pg/libc.a(lib_a-fopen.o)
 .debug_info    0x000000000000e463      0x9a8 /package/eda/altera/altera17.0/nios2eds/bin/gnu/H-x86_64-pc-linux-gnu/bin/../lib/gcc/nios2-elf/5.3.0/../../../../../H-x86_64-pc-linux-gnu/nios2-elf/lib/pg/libc.a(lib_a-fprintf.o)
 .debug_info    0x000000000000ee0b      0x9c7 /package/eda/altera/altera17.0/nios2eds/bin/gnu/H-x86_64-pc-linux-gnu/bin/../lib/gcc/nios2-elf/5.3.0/../../../../../H-x86_64-pc-linux-gnu/nios2-elf/lib/pg/libc.a(lib_a-fputc.o)
 .debug_info    0x000000000000f7d2      0xa41 /package/eda/altera/altera17.0/nios2eds/bin/gnu/H-x86_64-pc-linux-gnu/bin/../lib/gcc/nios2-elf/5.3.0/../../../../../H-x86_64-pc-linux-gnu/nios2-elf/lib/pg/libc.a(lib_a-fputs.o)
 .debug_info    0x0000000000010213      0xae7 /package/eda/altera/altera17.0/nios2eds/bin/gnu/H-x86_64-pc-linux-gnu/bin/../lib/gcc/nios2-elf/5.3.0/../../../../../H-x86_64-pc-linux-gnu/nios2-elf/lib/pg/libc.a(lib_a-fread.o)
 .debug_info    0x0000000000010cfa      0xbf7 /package/eda/altera/altera17.0/nios2eds/bin/gnu/H-x86_64-pc-linux-gnu/bin/../lib/gcc/nios2-elf/5.3.0/../../../../../H-x86_64-pc-linux-gnu/nios2-elf/lib/pg/libc.a(lib_a-freer.o)
 .debug_info    0x00000000000118f1      0x9cd /package/eda/altera/altera17.0/nios2eds/bin/gnu/H-x86_64-pc-linux-gnu/bin/../lib/gcc/nios2-elf/5.3.0/../../../../../H-x86_64-pc-linux-gnu/nios2-elf/lib/pg/libc.a(lib_a-fseek.o)
 .debug_info    0x00000000000122be      0xd60 /package/eda/altera/altera17.0/nios2eds/bin/gnu/H-x86_64-pc-linux-gnu/bin/../lib/gcc/nios2-elf/5.3.0/../../../../../H-x86_64-pc-linux-gnu/nios2-elf/lib/pg/libc.a(lib_a-fseeko.o)
 .debug_info    0x000000000001301e      0xa5d /package/eda/altera/altera17.0/nios2eds/bin/gnu/H-x86_64-pc-linux-gnu/bin/../lib/gcc/nios2-elf/5.3.0/../../../../../H-x86_64-pc-linux-gnu/nios2-elf/lib/pg/libc.a(lib_a-fstatr.o)
 .debug_info    0x0000000000013a7b      0xbb8 /package/eda/altera/altera17.0/nios2eds/bin/gnu/H-x86_64-pc-linux-gnu/bin/../lib/gcc/nios2-elf/5.3.0/../../../../../H-x86_64-pc-linux-gnu/nios2-elf/lib/pg/libc.a(lib_a-fvwrite.o)
 .debug_info    0x0000000000014633      0x9b0 /package/eda/altera/altera17.0/nios2eds/bin/gnu/H-x86_64-pc-linux-gnu/bin/../lib/gcc/nios2-elf/5.3.0/../../../../../H-x86_64-pc-linux-gnu/nios2-elf/lib/pg/libc.a(lib_a-fwalk.o)
 .debug_info    0x0000000000014fe3      0xa61 /package/eda/altera/altera17.0/nios2eds/bin/gnu/H-x86_64-pc-linux-gnu/bin/../lib/gcc/nios2-elf/5.3.0/../../../../../H-x86_64-pc-linux-gnu/nios2-elf/lib/pg/libc.a(lib_a-fwrite.o)
 .debug_info    0x0000000000015a44      0x8a1 /package/eda/altera/altera17.0/nios2eds/bin/gnu/H-x86_64-pc-linux-gnu/bin/../lib/gcc/nios2-elf/5.3.0/../../../../../H-x86_64-pc-linux-gnu/nios2-elf/lib/pg/libc.a(lib_a-impure.o)
 .debug_info    0x00000000000162e5       0x8a /package/eda/altera/altera17.0/nios2eds/bin/gnu/H-x86_64-pc-linux-gnu/bin/../lib/gcc/nios2-elf/5.3.0/../../../../../H-x86_64-pc-linux-gnu/nios2-elf/lib/pg/libc.a(lib_a-int_errno.o)
 .debug_info    0x000000000001636f      0xad8 /package/eda/altera/altera17.0/nios2eds/bin/gnu/H-x86_64-pc-linux-gnu/bin/../lib/gcc/nios2-elf/5.3.0/../../../../../H-x86_64-pc-linux-gnu/nios2-elf/lib/pg/libc.a(lib_a-makebuf.o)
 .debug_info    0x0000000000016e47      0x911 /package/eda/altera/altera17.0/nios2eds/bin/gnu/H-x86_64-pc-linux-gnu/bin/../lib/gcc/nios2-elf/5.3.0/../../../../../H-x86_64-pc-linux-gnu/nios2-elf/lib/pg/libc.a(lib_a-malloc.o)
 .debug_info    0x0000000000017758      0xd57 /package/eda/altera/altera17.0/nios2eds/bin/gnu/H-x86_64-pc-linux-gnu/bin/../lib/gcc/nios2-elf/5.3.0/../../../../../H-x86_64-pc-linux-gnu/nios2-elf/lib/pg/libc.a(lib_a-mallocr.o)
 .debug_info    0x00000000000184af      0x132 /package/eda/altera/altera17.0/nios2eds/bin/gnu/H-x86_64-pc-linux-gnu/bin/../lib/gcc/nios2-elf/5.3.0/../../../../../H-x86_64-pc-linux-gnu/nios2-elf/lib/pg/libc.a(lib_a-memchr.o)
 .debug_info    0x00000000000185e1      0x144 /package/eda/altera/altera17.0/nios2eds/bin/gnu/H-x86_64-pc-linux-gnu/bin/../lib/gcc/nios2-elf/5.3.0/../../../../../H-x86_64-pc-linux-gnu/nios2-elf/lib/pg/libc.a(lib_a-memcpy.o)
 .debug_info    0x0000000000018725      0x13a /package/eda/altera/altera17.0/nios2eds/bin/gnu/H-x86_64-pc-linux-gnu/bin/../lib/gcc/nios2-elf/5.3.0/../../../../../H-x86_64-pc-linux-gnu/nios2-elf/lib/pg/libc.a(lib_a-memmove.o)
 .debug_info    0x000000000001885f      0x121 /package/eda/altera/altera17.0/nios2eds/bin/gnu/H-x86_64-pc-linux-gnu/bin/../lib/gcc/nios2-elf/5.3.0/../../../../../H-x86_64-pc-linux-gnu/nios2-elf/lib/pg/libc.a(lib_a-memset.o)
 .debug_info    0x0000000000018980      0x90c /package/eda/altera/altera17.0/nios2eds/bin/gnu/H-x86_64-pc-linux-gnu/bin/../lib/gcc/nios2-elf/5.3.0/../../../../../H-x86_64-pc-linux-gnu/nios2-elf/lib/pg/libc.a(lib_a-openr.o)
 .debug_info    0x000000000001928c      0x991 /package/eda/altera/altera17.0/nios2eds/bin/gnu/H-x86_64-pc-linux-gnu/bin/../lib/gcc/nios2-elf/5.3.0/../../../../../H-x86_64-pc-linux-gnu/nios2-elf/lib/pg/libc.a(lib_a-printf.o)
 .debug_info    0x0000000000019c1d      0x9b4 /package/eda/altera/altera17.0/nios2eds/bin/gnu/H-x86_64-pc-linux-gnu/bin/../lib/gcc/nios2-elf/5.3.0/../../../../../H-x86_64-pc-linux-gnu/nios2-elf/lib/pg/libc.a(lib_a-putc.o)
 .debug_info    0x000000000001a5d1      0x8e5 /package/eda/altera/altera17.0/nios2eds/bin/gnu/H-x86_64-pc-linux-gnu/bin/../lib/gcc/nios2-elf/5.3.0/../../../../../H-x86_64-pc-linux-gnu/nios2-elf/lib/pg/libc.a(lib_a-realloc.o)
 .debug_info    0x000000000001aeb6      0xc6b /package/eda/altera/altera17.0/nios2eds/bin/gnu/H-x86_64-pc-linux-gnu/bin/../lib/gcc/nios2-elf/5.3.0/../../../../../H-x86_64-pc-linux-gnu/nios2-elf/lib/pg/libc.a(lib_a-reallocr.o)
 .debug_info    0x000000000001bb21      0xa08 /package/eda/altera/altera17.0/nios2eds/bin/gnu/H-x86_64-pc-linux-gnu/bin/../lib/gcc/nios2-elf/5.3.0/../../../../../H-x86_64-pc-linux-gnu/nios2-elf/lib/pg/libc.a(lib_a-refill.o)
 .debug_info    0x000000000001c529      0x900 /package/eda/altera/altera17.0/nios2eds/bin/gnu/H-x86_64-pc-linux-gnu/bin/../lib/gcc/nios2-elf/5.3.0/../../../../../H-x86_64-pc-linux-gnu/nios2-elf/lib/pg/libc.a(lib_a-sbrkr.o)
 .debug_info    0x000000000001ce29      0xb92 /package/eda/altera/altera17.0/nios2eds/bin/gnu/H-x86_64-pc-linux-gnu/bin/../lib/gcc/nios2-elf/5.3.0/../../../../../H-x86_64-pc-linux-gnu/nios2-elf/lib/pg/libc.a(lib_a-signal.o)
 .debug_info    0x000000000001d9bb      0x955 /package/eda/altera/altera17.0/nios2eds/bin/gnu/H-x86_64-pc-linux-gnu/bin/../lib/gcc/nios2-elf/5.3.0/../../../../../H-x86_64-pc-linux-gnu/nios2-elf/lib/pg/libc.a(lib_a-signalr.o)
 .debug_info    0x000000000001e310      0xb32 /package/eda/altera/altera17.0/nios2eds/bin/gnu/H-x86_64-pc-linux-gnu/bin/../lib/gcc/nios2-elf/5.3.0/../../../../../H-x86_64-pc-linux-gnu/nios2-elf/lib/pg/libc.a(lib_a-stdio.o)
 .debug_info    0x000000000001ee42       0xe4 /package/eda/altera/altera17.0/nios2eds/bin/gnu/H-x86_64-pc-linux-gnu/bin/../lib/gcc/nios2-elf/5.3.0/../../../../../H-x86_64-pc-linux-gnu/nios2-elf/lib/pg/libc.a(lib_a-strcmp.o)
 .debug_info    0x000000000001ef26      0x8c5 /package/eda/altera/altera17.0/nios2eds/bin/gnu/H-x86_64-pc-linux-gnu/bin/../lib/gcc/nios2-elf/5.3.0/../../../../../H-x86_64-pc-linux-gnu/nios2-elf/lib/pg/libc.a(lib_a-strdup.o)
 .debug_info    0x000000000001f7eb      0x941 /package/eda/altera/altera17.0/nios2eds/bin/gnu/H-x86_64-pc-linux-gnu/bin/../lib/gcc/nios2-elf/5.3.0/../../../../../H-x86_64-pc-linux-gnu/nios2-elf/lib/pg/libc.a(lib_a-strdup_r.o)
 .debug_info    0x000000000002012c       0xe2 /package/eda/altera/altera17.0/nios2eds/bin/gnu/H-x86_64-pc-linux-gnu/bin/../lib/gcc/nios2-elf/5.3.0/../../../../../H-x86_64-pc-linux-gnu/nios2-elf/lib/pg/libc.a(lib_a-strlen.o)
 .debug_info    0x000000000002020e       0xfc /package/eda/altera/altera17.0/nios2eds/bin/gnu/H-x86_64-pc-linux-gnu/bin/../lib/gcc/nios2-elf/5.3.0/../../../../../H-x86_64-pc-linux-gnu/nios2-elf/lib/pg/libc.a(lib_a-strncmp.o)
 .debug_info    0x000000000002030a     0x14f0 /package/eda/altera/altera17.0/nios2eds/bin/gnu/H-x86_64-pc-linux-gnu/bin/../lib/gcc/nios2-elf/5.3.0/../../../../../H-x86_64-pc-linux-gnu/nios2-elf/lib/pg/libc.a(lib_a-strtod.o)
 .debug_info    0x00000000000217fa      0x945 /package/eda/altera/altera17.0/nios2eds/bin/gnu/H-x86_64-pc-linux-gnu/bin/../lib/gcc/nios2-elf/5.3.0/../../../../../H-x86_64-pc-linux-gnu/nios2-elf/lib/pg/libc.a(lib_a-vfiprintfr_1.o)
 .debug_info    0x000000000002213f     0x16b8 /package/eda/altera/altera17.0/nios2eds/bin/gnu/H-x86_64-pc-linux-gnu/bin/../lib/gcc/nios2-elf/5.3.0/../../../../../H-x86_64-pc-linux-gnu/nios2-elf/lib/pg/libc.a(lib_a-vfprintf.o)
 .debug_info    0x00000000000237f7      0x9be /package/eda/altera/altera17.0/nios2eds/bin/gnu/H-x86_64-pc-linux-gnu/bin/../lib/gcc/nios2-elf/5.3.0/../../../../../H-x86_64-pc-linux-gnu/nios2-elf/lib/pg/libc.a(lib_a-wbuf.o)
 .debug_info    0x00000000000241b5      0x928 /package/eda/altera/altera17.0/nios2eds/bin/gnu/H-x86_64-pc-linux-gnu/bin/../lib/gcc/nios2-elf/5.3.0/../../../../../H-x86_64-pc-linux-gnu/nios2-elf/lib/pg/libc.a(lib_a-writer.o)
 .debug_info    0x0000000000024add      0x936 /package/eda/altera/altera17.0/nios2eds/bin/gnu/H-x86_64-pc-linux-gnu/bin/../lib/gcc/nios2-elf/5.3.0/../../../../../H-x86_64-pc-linux-gnu/nios2-elf/lib/pg/libc.a(lib_a-wsetup.o)
 .debug_info    0x0000000000025413      0x8df /package/eda/altera/altera17.0/nios2eds/bin/gnu/H-x86_64-pc-linux-gnu/bin/../lib/gcc/nios2-elf/5.3.0/../../../../../H-x86_64-pc-linux-gnu/nios2-elf/lib/pg/libc.a(closer.o)
 .debug_info    0x0000000000025cf2      0x965 /package/eda/altera/altera17.0/nios2eds/bin/gnu/H-x86_64-pc-linux-gnu/bin/../lib/gcc/nios2-elf/5.3.0/../../../../../H-x86_64-pc-linux-gnu/nios2-elf/lib/pg/libc.a(lib_a-__call_atexit.o)
 .debug_info    0x0000000000026657     0x1247 /package/eda/altera/altera17.0/nios2eds/bin/gnu/H-x86_64-pc-linux-gnu/bin/../lib/gcc/nios2-elf/5.3.0/../../../../../H-x86_64-pc-linux-gnu/nios2-elf/lib/pg/libc.a(lib_a-dtoa.o)
 .debug_info    0x000000000002789e      0x8e8 /package/eda/altera/altera17.0/nios2eds/bin/gnu/H-x86_64-pc-linux-gnu/bin/../lib/gcc/nios2-elf/5.3.0/../../../../../H-x86_64-pc-linux-gnu/nios2-elf/lib/pg/libc.a(lib_a-flags.o)
 .debug_info    0x0000000000028186      0xf01 /package/eda/altera/altera17.0/nios2eds/bin/gnu/H-x86_64-pc-linux-gnu/bin/../lib/gcc/nios2-elf/5.3.0/../../../../../H-x86_64-pc-linux-gnu/nios2-elf/lib/pg/libc.a(lib_a-gdtoa-gethex.o)
 .debug_info    0x0000000000029087      0x308 /package/eda/altera/altera17.0/nios2eds/bin/gnu/H-x86_64-pc-linux-gnu/bin/../lib/gcc/nios2-elf/5.3.0/../../../../../H-x86_64-pc-linux-gnu/nios2-elf/lib/pg/libc.a(lib_a-gdtoa-hexnan.o)
 .debug_info    0x000000000002938f      0x8df /package/eda/altera/altera17.0/nios2eds/bin/gnu/H-x86_64-pc-linux-gnu/bin/../lib/gcc/nios2-elf/5.3.0/../../../../../H-x86_64-pc-linux-gnu/nios2-elf/lib/pg/libc.a(lib_a-isattyr.o)
 .debug_info    0x0000000000029c6e      0xc25 /package/eda/altera/altera17.0/nios2eds/bin/gnu/H-x86_64-pc-linux-gnu/bin/../lib/gcc/nios2-elf/5.3.0/../../../../../H-x86_64-pc-linux-gnu/nios2-elf/lib/pg/libc.a(lib_a-locale.o)
 .debug_info    0x000000000002a893      0x90b /package/eda/altera/altera17.0/nios2eds/bin/gnu/H-x86_64-pc-linux-gnu/bin/../lib/gcc/nios2-elf/5.3.0/../../../../../H-x86_64-pc-linux-gnu/nios2-elf/lib/pg/libc.a(lib_a-lseekr.o)
 .debug_info    0x000000000002b19e     0x16b7 /package/eda/altera/altera17.0/nios2eds/bin/gnu/H-x86_64-pc-linux-gnu/bin/../lib/gcc/nios2-elf/5.3.0/../../../../../H-x86_64-pc-linux-gnu/nios2-elf/lib/pg/libc.a(lib_a-mprec.o)
 .debug_info    0x000000000002c855      0x921 /package/eda/altera/altera17.0/nios2eds/bin/gnu/H-x86_64-pc-linux-gnu/bin/../lib/gcc/nios2-elf/5.3.0/../../../../../H-x86_64-pc-linux-gnu/nios2-elf/lib/pg/libc.a(lib_a-readr.o)
 .debug_info    0x000000000002d176     0x1535 /package/eda/altera/altera17.0/nios2eds/bin/gnu/H-x86_64-pc-linux-gnu/bin/../lib/gcc/nios2-elf/5.3.0/../../../../../H-x86_64-pc-linux-gnu/nios2-elf/lib/pg/libc.a(lib_a-vfiprintf.o)
 .debug_info    0x000000000002e6ab      0xad4 /package/eda/altera/altera17.0/nios2eds/bin/gnu/H-x86_64-pc-linux-gnu/bin/../lib/gcc/nios2-elf/5.3.0/../../../../../H-x86_64-pc-linux-gnu/nios2-elf/lib/pg/libc.a(lib_a-fputwc.o)
 .debug_info    0x000000000002f17f      0xa82 /package/eda/altera/altera17.0/nios2eds/bin/gnu/H-x86_64-pc-linux-gnu/bin/../lib/gcc/nios2-elf/5.3.0/../../../../../H-x86_64-pc-linux-gnu/nios2-elf/lib/pg/libc.a(lib_a-wcrtomb.o)
 .debug_info    0x000000000002fc01      0x9b1 /package/eda/altera/altera17.0/nios2eds/bin/gnu/H-x86_64-pc-linux-gnu/bin/../lib/gcc/nios2-elf/5.3.0/../../../../../H-x86_64-pc-linux-gnu/nios2-elf/lib/pg/libc.a(lib_a-wctomb_r.o)
 .debug_info    0x00000000000305b2       0xc7 /package/eda/altera/altera17.0/nios2eds/bin/gnu/H-x86_64-pc-linux-gnu/bin/../lib/gcc/nios2-elf/5.3.0/pg/libgcc.a(_fixunsdfsi.o)
 .debug_info    0x0000000000030679      0x70e /package/eda/altera/altera17.0/nios2eds/bin/gnu/H-x86_64-pc-linux-gnu/bin/../lib/gcc/nios2-elf/5.3.0/pg/libgcc.a(_udivdi3.o)
 .debug_info    0x0000000000030d87      0x765 /package/eda/altera/altera17.0/nios2eds/bin/gnu/H-x86_64-pc-linux-gnu/bin/../lib/gcc/nios2-elf/5.3.0/pg/libgcc.a(_umoddi3.o)
 .debug_info    0x00000000000314ec      0x1b0 /package/eda/altera/altera17.0/nios2eds/bin/gnu/H-x86_64-pc-linux-gnu/bin/../lib/gcc/nios2-elf/5.3.0/pg/libgcc.a(floatunsidf.o)
 .debug_info    0x000000000003169c       0xc3 ../MNIST_CNN_Software_bsp//libhal_bsp.a(alt_mcount.o)
 .debug_info    0x000000000003175f       0xc2 ../MNIST_CNN_Software_bsp//libhal_bsp.a(alt_irq_entry.o)
 .debug_info    0x0000000000031821       0xc8 ../MNIST_CNN_Software_bsp//libhal_bsp.a(alt_exception_entry.o)
 .debug_info    0x00000000000318e9       0xfe /package/eda/altera/altera17.0/nios2eds/bin/gnu/H-x86_64-pc-linux-gnu/bin/../lib/gcc/nios2-elf/5.3.0/../../../../../H-x86_64-pc-linux-gnu/nios2-elf/lib/pg/libc.a(lib_a-atexit.o)
 .debug_info    0x00000000000319e7      0x11a /package/eda/altera/altera17.0/nios2eds/bin/gnu/H-x86_64-pc-linux-gnu/bin/../lib/gcc/nios2-elf/5.3.0/../../../../../H-x86_64-pc-linux-gnu/nios2-elf/lib/pg/libc.a(lib_a-memcmp.o)
 .debug_info    0x0000000000031b01      0x934 /package/eda/altera/altera17.0/nios2eds/bin/gnu/H-x86_64-pc-linux-gnu/bin/../lib/gcc/nios2-elf/5.3.0/../../../../../H-x86_64-pc-linux-gnu/nios2-elf/lib/pg/libc.a(lib_a-__atexit.o)

.debug_abbrev   0x0000000000000000     0xc89c
 *(.debug_abbrev)
 .debug_abbrev  0x0000000000000000       0x12 ../MNIST_CNN_Software_bsp//obj/HAL/src/crt0.o
 .debug_abbrev  0x0000000000000012       0xdd /package/eda/altera/altera17.0/nios2eds/bin/gnu/H-x86_64-pc-linux-gnu/bin/../lib/gcc/nios2-elf/5.3.0/../../../../../H-x86_64-pc-linux-gnu/nios2-elf/lib/pg/libm.a(lib_a-sf_cos.o)
 .debug_abbrev  0x00000000000000ef       0xd6 /package/eda/altera/altera17.0/nios2eds/bin/gnu/H-x86_64-pc-linux-gnu/bin/../lib/gcc/nios2-elf/5.3.0/../../../../../H-x86_64-pc-linux-gnu/nios2-elf/lib/pg/libm.a(lib_a-sf_sin.o)
 .debug_abbrev  0x00000000000001c5      0x134 /package/eda/altera/altera17.0/nios2eds/bin/gnu/H-x86_64-pc-linux-gnu/bin/../lib/gcc/nios2-elf/5.3.0/../../../../../H-x86_64-pc-linux-gnu/nios2-elf/lib/pg/libm.a(lib_a-w_log.o)
 .debug_abbrev  0x00000000000002f9      0x123 /package/eda/altera/altera17.0/nios2eds/bin/gnu/H-x86_64-pc-linux-gnu/bin/../lib/gcc/nios2-elf/5.3.0/../../../../../H-x86_64-pc-linux-gnu/nios2-elf/lib/pg/libm.a(lib_a-w_sqrt.o)
 .debug_abbrev  0x000000000000041c      0x139 /package/eda/altera/altera17.0/nios2eds/bin/gnu/H-x86_64-pc-linux-gnu/bin/../lib/gcc/nios2-elf/5.3.0/../../../../../H-x86_64-pc-linux-gnu/nios2-elf/lib/pg/libm.a(lib_a-wf_exp.o)
 .debug_abbrev  0x0000000000000555      0x134 /package/eda/altera/altera17.0/nios2eds/bin/gnu/H-x86_64-pc-linux-gnu/bin/../lib/gcc/nios2-elf/5.3.0/../../../../../H-x86_64-pc-linux-gnu/nios2-elf/lib/pg/libm.a(lib_a-wf_log.o)
 .debug_abbrev  0x0000000000000689      0x123 /package/eda/altera/altera17.0/nios2eds/bin/gnu/H-x86_64-pc-linux-gnu/bin/../lib/gcc/nios2-elf/5.3.0/../../../../../H-x86_64-pc-linux-gnu/nios2-elf/lib/pg/libm.a(lib_a-wf_sqrt.o)
 .debug_abbrev  0x00000000000007ac      0x10b /package/eda/altera/altera17.0/nios2eds/bin/gnu/H-x86_64-pc-linux-gnu/bin/../lib/gcc/nios2-elf/5.3.0/../../../../../H-x86_64-pc-linux-gnu/nios2-elf/lib/pg/libm.a(lib_a-e_log.o)
 .debug_abbrev  0x00000000000008b7      0x109 /package/eda/altera/altera17.0/nios2eds/bin/gnu/H-x86_64-pc-linux-gnu/bin/../lib/gcc/nios2-elf/5.3.0/../../../../../H-x86_64-pc-linux-gnu/nios2-elf/lib/pg/libm.a(lib_a-e_sqrt.o)
 .debug_abbrev  0x00000000000009c0      0x10e /package/eda/altera/altera17.0/nios2eds/bin/gnu/H-x86_64-pc-linux-gnu/bin/../lib/gcc/nios2-elf/5.3.0/../../../../../H-x86_64-pc-linux-gnu/nios2-elf/lib/pg/libm.a(lib_a-ef_exp.o)
 .debug_abbrev  0x0000000000000ace       0xfa /package/eda/altera/altera17.0/nios2eds/bin/gnu/H-x86_64-pc-linux-gnu/bin/../lib/gcc/nios2-elf/5.3.0/../../../../../H-x86_64-pc-linux-gnu/nios2-elf/lib/pg/libm.a(lib_a-ef_log.o)
 .debug_abbrev  0x0000000000000bc8      0x15d /package/eda/altera/altera17.0/nios2eds/bin/gnu/H-x86_64-pc-linux-gnu/bin/../lib/gcc/nios2-elf/5.3.0/../../../../../H-x86_64-pc-linux-gnu/nios2-elf/lib/pg/libm.a(lib_a-ef_rem_pio2.o)
 .debug_abbrev  0x0000000000000d25       0xe9 /package/eda/altera/altera17.0/nios2eds/bin/gnu/H-x86_64-pc-linux-gnu/bin/../lib/gcc/nios2-elf/5.3.0/../../../../../H-x86_64-pc-linux-gnu/nios2-elf/lib/pg/libm.a(lib_a-ef_sqrt.o)
 .debug_abbrev  0x0000000000000e0e       0xd1 /package/eda/altera/altera17.0/nios2eds/bin/gnu/H-x86_64-pc-linux-gnu/bin/../lib/gcc/nios2-elf/5.3.0/../../../../../H-x86_64-pc-linux-gnu/nios2-elf/lib/pg/libm.a(lib_a-kf_cos.o)
 .debug_abbrev  0x0000000000000edf      0x138 /package/eda/altera/altera17.0/nios2eds/bin/gnu/H-x86_64-pc-linux-gnu/bin/../lib/gcc/nios2-elf/5.3.0/../../../../../H-x86_64-pc-linux-gnu/nios2-elf/lib/pg/libm.a(lib_a-kf_rem_pio2.o)
 .debug_abbrev  0x0000000000001017       0x96 /package/eda/altera/altera17.0/nios2eds/bin/gnu/H-x86_64-pc-linux-gnu/bin/../lib/gcc/nios2-elf/5.3.0/../../../../../H-x86_64-pc-linux-gnu/nios2-elf/lib/pg/libm.a(lib_a-kf_sin.o)
 .debug_abbrev  0x00000000000010ad       0x7e /package/eda/altera/altera17.0/nios2eds/bin/gnu/H-x86_64-pc-linux-gnu/bin/../lib/gcc/nios2-elf/5.3.0/../../../../../H-x86_64-pc-linux-gnu/nios2-elf/lib/pg/libm.a(lib_a-s_fpclassify.o)
 .debug_abbrev  0x000000000000112b       0x5a /package/eda/altera/altera17.0/nios2eds/bin/gnu/H-x86_64-pc-linux-gnu/bin/../lib/gcc/nios2-elf/5.3.0/../../../../../H-x86_64-pc-linux-gnu/nios2-elf/lib/pg/libm.a(lib_a-s_lib_ver.o)
 .debug_abbrev  0x0000000000001185       0x9a /package/eda/altera/altera17.0/nios2eds/bin/gnu/H-x86_64-pc-linux-gnu/bin/../lib/gcc/nios2-elf/5.3.0/../../../../../H-x86_64-pc-linux-gnu/nios2-elf/lib/pg/libm.a(lib_a-s_matherr.o)
 .debug_abbrev  0x000000000000121f       0x72 /package/eda/altera/altera17.0/nios2eds/bin/gnu/H-x86_64-pc-linux-gnu/bin/../lib/gcc/nios2-elf/5.3.0/../../../../../H-x86_64-pc-linux-gnu/nios2-elf/lib/pg/libm.a(lib_a-s_nan.o)
 .debug_abbrev  0x0000000000001291       0xac /package/eda/altera/altera17.0/nios2eds/bin/gnu/H-x86_64-pc-linux-gnu/bin/../lib/gcc/nios2-elf/5.3.0/../../../../../H-x86_64-pc-linux-gnu/nios2-elf/lib/pg/libm.a(lib_a-sf_fabs.o)
 .debug_abbrev  0x000000000000133d       0x6f /package/eda/altera/altera17.0/nios2eds/bin/gnu/H-x86_64-pc-linux-gnu/bin/../lib/gcc/nios2-elf/5.3.0/../../../../../H-x86_64-pc-linux-gnu/nios2-elf/lib/pg/libm.a(lib_a-sf_finite.o)
 .debug_abbrev  0x00000000000013ac       0xc4 /package/eda/altera/altera17.0/nios2eds/bin/gnu/H-x86_64-pc-linux-gnu/bin/../lib/gcc/nios2-elf/5.3.0/../../../../../H-x86_64-pc-linux-gnu/nios2-elf/lib/pg/libm.a(lib_a-sf_floor.o)
 .debug_abbrev  0x0000000000001470       0x6f /package/eda/altera/altera17.0/nios2eds/bin/gnu/H-x86_64-pc-linux-gnu/bin/../lib/gcc/nios2-elf/5.3.0/../../../../../H-x86_64-pc-linux-gnu/nios2-elf/lib/pg/libm.a(lib_a-sf_fpclassify.o)
 .debug_abbrev  0x00000000000014df       0xe2 /package/eda/altera/altera17.0/nios2eds/bin/gnu/H-x86_64-pc-linux-gnu/bin/../lib/gcc/nios2-elf/5.3.0/../../../../../H-x86_64-pc-linux-gnu/nios2-elf/lib/pg/libm.a(lib_a-sf_scalbn.o)
 .debug_abbrev  0x00000000000015c1       0xca /package/eda/altera/altera17.0/nios2eds/bin/gnu/H-x86_64-pc-linux-gnu/bin/../lib/gcc/nios2-elf/5.3.0/../../../../../H-x86_64-pc-linux-gnu/nios2-elf/lib/pg/libm.a(lib_a-sf_copysign.o)
 .debug_abbrev  0x000000000000168b       0xef /package/eda/altera/altera17.0/nios2eds/bin/gnu/H-x86_64-pc-linux-gnu/bin/../lib/gcc/nios2-elf/5.3.0/pg/libgcc.a(_muldi3.o)
 .debug_abbrev  0x000000000000177a       0x60 /package/eda/altera/altera17.0/nios2eds/bin/gnu/H-x86_64-pc-linux-gnu/bin/../lib/gcc/nios2-elf/5.3.0/pg/libgcc.a(_fixunssfsi.o)
 .debug_abbrev  0x00000000000017da      0x10e /package/eda/altera/altera17.0/nios2eds/bin/gnu/H-x86_64-pc-linux-gnu/bin/../lib/gcc/nios2-elf/5.3.0/pg/libgcc.a(lib2-divmod.o)
 .debug_abbrev  0x00000000000018e8       0x56 /package/eda/altera/altera17.0/nios2eds/bin/gnu/H-x86_64-pc-linux-gnu/bin/../lib/gcc/nios2-elf/5.3.0/pg/libgcc.a(lib2-divtable.o)
 .debug_abbrev  0x000000000000193e      0x13c /package/eda/altera/altera17.0/nios2eds/bin/gnu/H-x86_64-pc-linux-gnu/bin/../lib/gcc/nios2-elf/5.3.0/pg/libgcc.a(addsf3.o)
 .debug_abbrev  0x0000000000001a7a      0x120 /package/eda/altera/altera17.0/nios2eds/bin/gnu/H-x86_64-pc-linux-gnu/bin/../lib/gcc/nios2-elf/5.3.0/pg/libgcc.a(divsf3.o)
 .debug_abbrev  0x0000000000001b9a      0x119 /package/eda/altera/altera17.0/nios2eds/bin/gnu/H-x86_64-pc-linux-gnu/bin/../lib/gcc/nios2-elf/5.3.0/pg/libgcc.a(eqsf2.o)
 .debug_abbrev  0x0000000000001cb3      0x128 /package/eda/altera/altera17.0/nios2eds/bin/gnu/H-x86_64-pc-linux-gnu/bin/../lib/gcc/nios2-elf/5.3.0/pg/libgcc.a(gesf2.o)
 .debug_abbrev  0x0000000000001ddb      0x128 /package/eda/altera/altera17.0/nios2eds/bin/gnu/H-x86_64-pc-linux-gnu/bin/../lib/gcc/nios2-elf/5.3.0/pg/libgcc.a(lesf2.o)
 .debug_abbrev  0x0000000000001f03      0x12d /package/eda/altera/altera17.0/nios2eds/bin/gnu/H-x86_64-pc-linux-gnu/bin/../lib/gcc/nios2-elf/5.3.0/pg/libgcc.a(mulsf3.o)
 .debug_abbrev  0x0000000000002030      0x13a /package/eda/altera/altera17.0/nios2eds/bin/gnu/H-x86_64-pc-linux-gnu/bin/../lib/gcc/nios2-elf/5.3.0/pg/libgcc.a(subsf3.o)
 .debug_abbrev  0x000000000000216a      0x135 /package/eda/altera/altera17.0/nios2eds/bin/gnu/H-x86_64-pc-linux-gnu/bin/../lib/gcc/nios2-elf/5.3.0/pg/libgcc.a(fixsfsi.o)
 .debug_abbrev  0x000000000000229f      0x147 /package/eda/altera/altera17.0/nios2eds/bin/gnu/H-x86_64-pc-linux-gnu/bin/../lib/gcc/nios2-elf/5.3.0/pg/libgcc.a(floatsisf.o)
 .debug_abbrev  0x00000000000023e6      0x13a /package/eda/altera/altera17.0/nios2eds/bin/gnu/H-x86_64-pc-linux-gnu/bin/../lib/gcc/nios2-elf/5.3.0/pg/libgcc.a(adddf3.o)
 .debug_abbrev  0x0000000000002520      0x12d /package/eda/altera/altera17.0/nios2eds/bin/gnu/H-x86_64-pc-linux-gnu/bin/../lib/gcc/nios2-elf/5.3.0/pg/libgcc.a(divdf3.o)
 .debug_abbrev  0x000000000000264d      0x128 /package/eda/altera/altera17.0/nios2eds/bin/gnu/H-x86_64-pc-linux-gnu/bin/../lib/gcc/nios2-elf/5.3.0/pg/libgcc.a(eqdf2.o)
 .debug_abbrev  0x0000000000002775      0x137 /package/eda/altera/altera17.0/nios2eds/bin/gnu/H-x86_64-pc-linux-gnu/bin/../lib/gcc/nios2-elf/5.3.0/pg/libgcc.a(gedf2.o)
 .debug_abbrev  0x00000000000028ac      0x137 /package/eda/altera/altera17.0/nios2eds/bin/gnu/H-x86_64-pc-linux-gnu/bin/../lib/gcc/nios2-elf/5.3.0/pg/libgcc.a(ledf2.o)
 .debug_abbrev  0x00000000000029e3      0x13f /package/eda/altera/altera17.0/nios2eds/bin/gnu/H-x86_64-pc-linux-gnu/bin/../lib/gcc/nios2-elf/5.3.0/pg/libgcc.a(muldf3.o)
 .debug_abbrev  0x0000000000002b22      0x133 /package/eda/altera/altera17.0/nios2eds/bin/gnu/H-x86_64-pc-linux-gnu/bin/../lib/gcc/nios2-elf/5.3.0/pg/libgcc.a(subdf3.o)
 .debug_abbrev  0x0000000000002c55      0x126 /package/eda/altera/altera17.0/nios2eds/bin/gnu/H-x86_64-pc-linux-gnu/bin/../lib/gcc/nios2-elf/5.3.0/pg/libgcc.a(fixdfsi.o)
 .debug_abbrev  0x0000000000002d7b      0x124 /package/eda/altera/altera17.0/nios2eds/bin/gnu/H-x86_64-pc-linux-gnu/bin/../lib/gcc/nios2-elf/5.3.0/pg/libgcc.a(floatsidf.o)
 .debug_abbrev  0x0000000000002e9f      0x124 /package/eda/altera/altera17.0/nios2eds/bin/gnu/H-x86_64-pc-linux-gnu/bin/../lib/gcc/nios2-elf/5.3.0/pg/libgcc.a(extendsfdf2.o)
 .debug_abbrev  0x0000000000002fc3      0x11b /package/eda/altera/altera17.0/nios2eds/bin/gnu/H-x86_64-pc-linux-gnu/bin/../lib/gcc/nios2-elf/5.3.0/pg/libgcc.a(truncdfsf2.o)
 .debug_abbrev  0x00000000000030de       0xbe /package/eda/altera/altera17.0/nios2eds/bin/gnu/H-x86_64-pc-linux-gnu/bin/../lib/gcc/nios2-elf/5.3.0/pg/libgcc.a(_clzsi2.o)
 .debug_abbrev  0x000000000000319c       0x5d /package/eda/altera/altera17.0/nios2eds/bin/gnu/H-x86_64-pc-linux-gnu/bin/../lib/gcc/nios2-elf/5.3.0/pg/libgcc.a(_clz.o)
 .debug_abbrev  0x00000000000031f9       0x7c /package/eda/altera/altera17.0/nios2eds/bin/gnu/H-x86_64-pc-linux-gnu/bin/../lib/gcc/nios2-elf/5.3.0/../../../../../H-x86_64-pc-linux-gnu/nios2-elf/lib/pg/libc.a(lib_a-abort.o)
 .debug_abbrev  0x0000000000003275      0x201 /package/eda/altera/altera17.0/nios2eds/bin/gnu/H-x86_64-pc-linux-gnu/bin/../lib/gcc/nios2-elf/5.3.0/../../../../../H-x86_64-pc-linux-gnu/nios2-elf/lib/pg/libc.a(lib_a-assert.o)
 .debug_abbrev  0x0000000000003476      0x1e9 /package/eda/altera/altera17.0/nios2eds/bin/gnu/H-x86_64-pc-linux-gnu/bin/../lib/gcc/nios2-elf/5.3.0/../../../../../H-x86_64-pc-linux-gnu/nios2-elf/lib/pg/libc.a(lib_a-calloc.o)
 .debug_abbrev  0x000000000000365f      0x1fc /package/eda/altera/altera17.0/nios2eds/bin/gnu/H-x86_64-pc-linux-gnu/bin/../lib/gcc/nios2-elf/5.3.0/../../../../../H-x86_64-pc-linux-gnu/nios2-elf/lib/pg/libc.a(lib_a-callocr.o)
 .debug_abbrev  0x000000000000385b      0x19e /package/eda/altera/altera17.0/nios2eds/bin/gnu/H-x86_64-pc-linux-gnu/bin/../lib/gcc/nios2-elf/5.3.0/../../../../../H-x86_64-pc-linux-gnu/nios2-elf/lib/pg/libc.a(lib_a-errno.o)
 .debug_abbrev  0x00000000000039f9      0x1e5 /package/eda/altera/altera17.0/nios2eds/bin/gnu/H-x86_64-pc-linux-gnu/bin/../lib/gcc/nios2-elf/5.3.0/../../../../../H-x86_64-pc-linux-gnu/nios2-elf/lib/pg/libc.a(lib_a-exit.o)
 .debug_abbrev  0x0000000000003bde      0x2a2 /package/eda/altera/altera17.0/nios2eds/bin/gnu/H-x86_64-pc-linux-gnu/bin/../lib/gcc/nios2-elf/5.3.0/../../../../../H-x86_64-pc-linux-gnu/nios2-elf/lib/pg/libc.a(lib_a-fclose.o)
 .debug_abbrev  0x0000000000003e80      0x2a0 /package/eda/altera/altera17.0/nios2eds/bin/gnu/H-x86_64-pc-linux-gnu/bin/../lib/gcc/nios2-elf/5.3.0/../../../../../H-x86_64-pc-linux-gnu/nios2-elf/lib/pg/libc.a(lib_a-fflush.o)
 .debug_abbrev  0x0000000000004120      0x247 /package/eda/altera/altera17.0/nios2eds/bin/gnu/H-x86_64-pc-linux-gnu/bin/../lib/gcc/nios2-elf/5.3.0/../../../../../H-x86_64-pc-linux-gnu/nios2-elf/lib/pg/libc.a(lib_a-fgets.o)
 .debug_abbrev  0x0000000000004367      0x1e1 /package/eda/altera/altera17.0/nios2eds/bin/gnu/H-x86_64-pc-linux-gnu/bin/../lib/gcc/nios2-elf/5.3.0/../../../../../H-x86_64-pc-linux-gnu/nios2-elf/lib/pg/libc.a(lib_a-fileno.o)
 .debug_abbrev  0x0000000000004548      0x391 /package/eda/altera/altera17.0/nios2eds/bin/gnu/H-x86_64-pc-linux-gnu/bin/../lib/gcc/nios2-elf/5.3.0/../../../../../H-x86_64-pc-linux-gnu/nios2-elf/lib/pg/libc.a(lib_a-findfp.o)
 .debug_abbrev  0x00000000000048d9      0x203 /package/eda/altera/altera17.0/nios2eds/bin/gnu/H-x86_64-pc-linux-gnu/bin/../lib/gcc/nios2-elf/5.3.0/../../../../../H-x86_64-pc-linux-gnu/nios2-elf/lib/pg/libc.a(lib_a-fiprintf.o)
 .debug_abbrev  0x0000000000004adc      0x251 /package/eda/altera/altera17.0/nios2eds/bin/gnu/H-x86_64-pc-linux-gnu/bin/../lib/gcc/nios2-elf/5.3.0/../../../../../H-x86_64-pc-linux-gnu/nios2-elf/lib/pg/libc.a(lib_a-fopen.o)
 .debug_abbrev  0x0000000000004d2d      0x215 /package/eda/altera/altera17.0/nios2eds/bin/gnu/H-x86_64-pc-linux-gnu/bin/../lib/gcc/nios2-elf/5.3.0/../../../../../H-x86_64-pc-linux-gnu/nios2-elf/lib/pg/libc.a(lib_a-fprintf.o)
 .debug_abbrev  0x0000000000004f42      0x248 /package/eda/altera/altera17.0/nios2eds/bin/gnu/H-x86_64-pc-linux-gnu/bin/../lib/gcc/nios2-elf/5.3.0/../../../../../H-x86_64-pc-linux-gnu/nios2-elf/lib/pg/libc.a(lib_a-fputc.o)
 .debug_abbrev  0x000000000000518a      0x241 /package/eda/altera/altera17.0/nios2eds/bin/gnu/H-x86_64-pc-linux-gnu/bin/../lib/gcc/nios2-elf/5.3.0/../../../../../H-x86_64-pc-linux-gnu/nios2-elf/lib/pg/libc.a(lib_a-fputs.o)
 .debug_abbrev  0x00000000000053cb      0x282 /package/eda/altera/altera17.0/nios2eds/bin/gnu/H-x86_64-pc-linux-gnu/bin/../lib/gcc/nios2-elf/5.3.0/../../../../../H-x86_64-pc-linux-gnu/nios2-elf/lib/pg/libc.a(lib_a-fread.o)
 .debug_abbrev  0x000000000000564d      0x264 /package/eda/altera/altera17.0/nios2eds/bin/gnu/H-x86_64-pc-linux-gnu/bin/../lib/gcc/nios2-elf/5.3.0/../../../../../H-x86_64-pc-linux-gnu/nios2-elf/lib/pg/libc.a(lib_a-freer.o)
 .debug_abbrev  0x00000000000058b1      0x249 /package/eda/altera/altera17.0/nios2eds/bin/gnu/H-x86_64-pc-linux-gnu/bin/../lib/gcc/nios2-elf/5.3.0/../../../../../H-x86_64-pc-linux-gnu/nios2-elf/lib/pg/libc.a(lib_a-fseek.o)
 .debug_abbrev  0x0000000000005afa      0x2ac /package/eda/altera/altera17.0/nios2eds/bin/gnu/H-x86_64-pc-linux-gnu/bin/../lib/gcc/nios2-elf/5.3.0/../../../../../H-x86_64-pc-linux-gnu/nios2-elf/lib/pg/libc.a(lib_a-fseeko.o)
 .debug_abbrev  0x0000000000005da6      0x1f5 /package/eda/altera/altera17.0/nios2eds/bin/gnu/H-x86_64-pc-linux-gnu/bin/../lib/gcc/nios2-elf/5.3.0/../../../../../H-x86_64-pc-linux-gnu/nios2-elf/lib/pg/libc.a(lib_a-fstatr.o)
 .debug_abbrev  0x0000000000005f9b      0x228 /package/eda/altera/altera17.0/nios2eds/bin/gnu/H-x86_64-pc-linux-gnu/bin/../lib/gcc/nios2-elf/5.3.0/../../../../../H-x86_64-pc-linux-gnu/nios2-elf/lib/pg/libc.a(lib_a-fvwrite.o)
 .debug_abbrev  0x00000000000061c3      0x1d1 /package/eda/altera/altera17.0/nios2eds/bin/gnu/H-x86_64-pc-linux-gnu/bin/../lib/gcc/nios2-elf/5.3.0/../../../../../H-x86_64-pc-linux-gnu/nios2-elf/lib/pg/libc.a(lib_a-fwalk.o)
 .debug_abbrev  0x0000000000006394      0x24f /package/eda/altera/altera17.0/nios2eds/bin/gnu/H-x86_64-pc-linux-gnu/bin/../lib/gcc/nios2-elf/5.3.0/../../../../../H-x86_64-pc-linux-gnu/nios2-elf/lib/pg/libc.a(lib_a-fwrite.o)
 .debug_abbrev  0x00000000000065e3      0x18f /package/eda/altera/altera17.0/nios2eds/bin/gnu/H-x86_64-pc-linux-gnu/bin/../lib/gcc/nios2-elf/5.3.0/../../../../../H-x86_64-pc-linux-gnu/nios2-elf/lib/pg/libc.a(lib_a-impure.o)
 .debug_abbrev  0x0000000000006772       0x37 /package/eda/altera/altera17.0/nios2eds/bin/gnu/H-x86_64-pc-linux-gnu/bin/../lib/gcc/nios2-elf/5.3.0/../../../../../H-x86_64-pc-linux-gnu/nios2-elf/lib/pg/libc.a(lib_a-int_errno.o)
 .debug_abbrev  0x00000000000067a9      0x20f /package/eda/altera/altera17.0/nios2eds/bin/gnu/H-x86_64-pc-linux-gnu/bin/../lib/gcc/nios2-elf/5.3.0/../../../../../H-x86_64-pc-linux-gnu/nios2-elf/lib/pg/libc.a(lib_a-makebuf.o)
 .debug_abbrev  0x00000000000069b8      0x1f4 /package/eda/altera/altera17.0/nios2eds/bin/gnu/H-x86_64-pc-linux-gnu/bin/../lib/gcc/nios2-elf/5.3.0/../../../../../H-x86_64-pc-linux-gnu/nios2-elf/lib/pg/libc.a(lib_a-malloc.o)
 .debug_abbrev  0x0000000000006bac      0x29d /package/eda/altera/altera17.0/nios2eds/bin/gnu/H-x86_64-pc-linux-gnu/bin/../lib/gcc/nios2-elf/5.3.0/../../../../../H-x86_64-pc-linux-gnu/nios2-elf/lib/pg/libc.a(lib_a-mallocr.o)
 .debug_abbrev  0x0000000000006e49       0xab /package/eda/altera/altera17.0/nios2eds/bin/gnu/H-x86_64-pc-linux-gnu/bin/../lib/gcc/nios2-elf/5.3.0/../../../../../H-x86_64-pc-linux-gnu/nios2-elf/lib/pg/libc.a(lib_a-memchr.o)
 .debug_abbrev  0x0000000000006ef4       0xa3 /package/eda/altera/altera17.0/nios2eds/bin/gnu/H-x86_64-pc-linux-gnu/bin/../lib/gcc/nios2-elf/5.3.0/../../../../../H-x86_64-pc-linux-gnu/nios2-elf/lib/pg/libc.a(lib_a-memcpy.o)
 .debug_abbrev  0x0000000000006f97       0x9c /package/eda/altera/altera17.0/nios2eds/bin/gnu/H-x86_64-pc-linux-gnu/bin/../lib/gcc/nios2-elf/5.3.0/../../../../../H-x86_64-pc-linux-gnu/nios2-elf/lib/pg/libc.a(lib_a-memmove.o)
 .debug_abbrev  0x0000000000007033       0xae /package/eda/altera/altera17.0/nios2eds/bin/gnu/H-x86_64-pc-linux-gnu/bin/../lib/gcc/nios2-elf/5.3.0/../../../../../H-x86_64-pc-linux-gnu/nios2-elf/lib/pg/libc.a(lib_a-memset.o)
 .debug_abbrev  0x00000000000070e1      0x1f5 /package/eda/altera/altera17.0/nios2eds/bin/gnu/H-x86_64-pc-linux-gnu/bin/../lib/gcc/nios2-elf/5.3.0/../../../../../H-x86_64-pc-linux-gnu/nios2-elf/lib/pg/libc.a(lib_a-openr.o)
 .debug_abbrev  0x00000000000072d6      0x233 /package/eda/altera/altera17.0/nios2eds/bin/gnu/H-x86_64-pc-linux-gnu/bin/../lib/gcc/nios2-elf/5.3.0/../../../../../H-x86_64-pc-linux-gnu/nios2-elf/lib/pg/libc.a(lib_a-printf.o)
 .debug_abbrev  0x0000000000007509      0x243 /package/eda/altera/altera17.0/nios2eds/bin/gnu/H-x86_64-pc-linux-gnu/bin/../lib/gcc/nios2-elf/5.3.0/../../../../../H-x86_64-pc-linux-gnu/nios2-elf/lib/pg/libc.a(lib_a-putc.o)
 .debug_abbrev  0x000000000000774c      0x1e9 /package/eda/altera/altera17.0/nios2eds/bin/gnu/H-x86_64-pc-linux-gnu/bin/../lib/gcc/nios2-elf/5.3.0/../../../../../H-x86_64-pc-linux-gnu/nios2-elf/lib/pg/libc.a(lib_a-realloc.o)
 .debug_abbrev  0x0000000000007935      0x231 /package/eda/altera/altera17.0/nios2eds/bin/gnu/H-x86_64-pc-linux-gnu/bin/../lib/gcc/nios2-elf/5.3.0/../../../../../H-x86_64-pc-linux-gnu/nios2-elf/lib/pg/libc.a(lib_a-reallocr.o)
 .debug_abbrev  0x0000000000007b66      0x256 /package/eda/altera/altera17.0/nios2eds/bin/gnu/H-x86_64-pc-linux-gnu/bin/../lib/gcc/nios2-elf/5.3.0/../../../../../H-x86_64-pc-linux-gnu/nios2-elf/lib/pg/libc.a(lib_a-refill.o)
 .debug_abbrev  0x0000000000007dbc      0x20a /package/eda/altera/altera17.0/nios2eds/bin/gnu/H-x86_64-pc-linux-gnu/bin/../lib/gcc/nios2-elf/5.3.0/../../../../../H-x86_64-pc-linux-gnu/nios2-elf/lib/pg/libc.a(lib_a-sbrkr.o)
 .debug_abbrev  0x0000000000007fc6      0x2e0 /package/eda/altera/altera17.0/nios2eds/bin/gnu/H-x86_64-pc-linux-gnu/bin/../lib/gcc/nios2-elf/5.3.0/../../../../../H-x86_64-pc-linux-gnu/nios2-elf/lib/pg/libc.a(lib_a-signal.o)
 .debug_abbrev  0x00000000000082a6      0x220 /package/eda/altera/altera17.0/nios2eds/bin/gnu/H-x86_64-pc-linux-gnu/bin/../lib/gcc/nios2-elf/5.3.0/../../../../../H-x86_64-pc-linux-gnu/nios2-elf/lib/pg/libc.a(lib_a-signalr.o)
 .debug_abbrev  0x00000000000084c6      0x239 /package/eda/altera/altera17.0/nios2eds/bin/gnu/H-x86_64-pc-linux-gnu/bin/../lib/gcc/nios2-elf/5.3.0/../../../../../H-x86_64-pc-linux-gnu/nios2-elf/lib/pg/libc.a(lib_a-stdio.o)
 .debug_abbrev  0x00000000000086ff       0x74 /package/eda/altera/altera17.0/nios2eds/bin/gnu/H-x86_64-pc-linux-gnu/bin/../lib/gcc/nios2-elf/5.3.0/../../../../../H-x86_64-pc-linux-gnu/nios2-elf/lib/pg/libc.a(lib_a-strcmp.o)
 .debug_abbrev  0x0000000000008773      0x1da /package/eda/altera/altera17.0/nios2eds/bin/gnu/H-x86_64-pc-linux-gnu/bin/../lib/gcc/nios2-elf/5.3.0/../../../../../H-x86_64-pc-linux-gnu/nios2-elf/lib/pg/libc.a(lib_a-strdup.o)
 .debug_abbrev  0x000000000000894d      0x211 /package/eda/altera/altera17.0/nios2eds/bin/gnu/H-x86_64-pc-linux-gnu/bin/../lib/gcc/nios2-elf/5.3.0/../../../../../H-x86_64-pc-linux-gnu/nios2-elf/lib/pg/libc.a(lib_a-strdup_r.o)
 .debug_abbrev  0x0000000000008b5e       0x90 /package/eda/altera/altera17.0/nios2eds/bin/gnu/H-x86_64-pc-linux-gnu/bin/../lib/gcc/nios2-elf/5.3.0/../../../../../H-x86_64-pc-linux-gnu/nios2-elf/lib/pg/libc.a(lib_a-strlen.o)
 .debug_abbrev  0x0000000000008bee       0x81 /package/eda/altera/altera17.0/nios2eds/bin/gnu/H-x86_64-pc-linux-gnu/bin/../lib/gcc/nios2-elf/5.3.0/../../../../../H-x86_64-pc-linux-gnu/nios2-elf/lib/pg/libc.a(lib_a-strncmp.o)
 .debug_abbrev  0x0000000000008c6f      0x3ea /package/eda/altera/altera17.0/nios2eds/bin/gnu/H-x86_64-pc-linux-gnu/bin/../lib/gcc/nios2-elf/5.3.0/../../../../../H-x86_64-pc-linux-gnu/nios2-elf/lib/pg/libc.a(lib_a-strtod.o)
 .debug_abbrev  0x0000000000009059      0x205 /package/eda/altera/altera17.0/nios2eds/bin/gnu/H-x86_64-pc-linux-gnu/bin/../lib/gcc/nios2-elf/5.3.0/../../../../../H-x86_64-pc-linux-gnu/nios2-elf/lib/pg/libc.a(lib_a-vfiprintfr_1.o)
 .debug_abbrev  0x000000000000925e      0x3bf /package/eda/altera/altera17.0/nios2eds/bin/gnu/H-x86_64-pc-linux-gnu/bin/../lib/gcc/nios2-elf/5.3.0/../../../../../H-x86_64-pc-linux-gnu/nios2-elf/lib/pg/libc.a(lib_a-vfprintf.o)
 .debug_abbrev  0x000000000000961d      0x251 /package/eda/altera/altera17.0/nios2eds/bin/gnu/H-x86_64-pc-linux-gnu/bin/../lib/gcc/nios2-elf/5.3.0/../../../../../H-x86_64-pc-linux-gnu/nios2-elf/lib/pg/libc.a(lib_a-wbuf.o)
 .debug_abbrev  0x000000000000986e      0x1eb /package/eda/altera/altera17.0/nios2eds/bin/gnu/H-x86_64-pc-linux-gnu/bin/../lib/gcc/nios2-elf/5.3.0/../../../../../H-x86_64-pc-linux-gnu/nios2-elf/lib/pg/libc.a(lib_a-writer.o)
 .debug_abbrev  0x0000000000009a59      0x218 /package/eda/altera/altera17.0/nios2eds/bin/gnu/H-x86_64-pc-linux-gnu/bin/../lib/gcc/nios2-elf/5.3.0/../../../../../H-x86_64-pc-linux-gnu/nios2-elf/lib/pg/libc.a(lib_a-wsetup.o)
 .debug_abbrev  0x0000000000009c71      0x1e6 /package/eda/altera/altera17.0/nios2eds/bin/gnu/H-x86_64-pc-linux-gnu/bin/../lib/gcc/nios2-elf/5.3.0/../../../../../H-x86_64-pc-linux-gnu/nios2-elf/lib/pg/libc.a(closer.o)
 .debug_abbrev  0x0000000000009e57      0x22e /package/eda/altera/altera17.0/nios2eds/bin/gnu/H-x86_64-pc-linux-gnu/bin/../lib/gcc/nios2-elf/5.3.0/../../../../../H-x86_64-pc-linux-gnu/nios2-elf/lib/pg/libc.a(lib_a-__call_atexit.o)
 .debug_abbrev  0x000000000000a085      0x2b8 /package/eda/altera/altera17.0/nios2eds/bin/gnu/H-x86_64-pc-linux-gnu/bin/../lib/gcc/nios2-elf/5.3.0/../../../../../H-x86_64-pc-linux-gnu/nios2-elf/lib/pg/libc.a(lib_a-dtoa.o)
 .debug_abbrev  0x000000000000a33d      0x1cb /package/eda/altera/altera17.0/nios2eds/bin/gnu/H-x86_64-pc-linux-gnu/bin/../lib/gcc/nios2-elf/5.3.0/../../../../../H-x86_64-pc-linux-gnu/nios2-elf/lib/pg/libc.a(lib_a-flags.o)
 .debug_abbrev  0x000000000000a508      0x2f9 /package/eda/altera/altera17.0/nios2eds/bin/gnu/H-x86_64-pc-linux-gnu/bin/../lib/gcc/nios2-elf/5.3.0/../../../../../H-x86_64-pc-linux-gnu/nios2-elf/lib/pg/libc.a(lib_a-gdtoa-gethex.o)
 .debug_abbrev  0x000000000000a801      0x179 /package/eda/altera/altera17.0/nios2eds/bin/gnu/H-x86_64-pc-linux-gnu/bin/../lib/gcc/nios2-elf/5.3.0/../../../../../H-x86_64-pc-linux-gnu/nios2-elf/lib/pg/libc.a(lib_a-gdtoa-hexnan.o)
 .debug_abbrev  0x000000000000a97a      0x1e6 /package/eda/altera/altera17.0/nios2eds/bin/gnu/H-x86_64-pc-linux-gnu/bin/../lib/gcc/nios2-elf/5.3.0/../../../../../H-x86_64-pc-linux-gnu/nios2-elf/lib/pg/libc.a(lib_a-isattyr.o)
 .debug_abbrev  0x000000000000ab60      0x2c0 /package/eda/altera/altera17.0/nios2eds/bin/gnu/H-x86_64-pc-linux-gnu/bin/../lib/gcc/nios2-elf/5.3.0/../../../../../H-x86_64-pc-linux-gnu/nios2-elf/lib/pg/libc.a(lib_a-locale.o)
 .debug_abbrev  0x000000000000ae20      0x1f5 /package/eda/altera/altera17.0/nios2eds/bin/gnu/H-x86_64-pc-linux-gnu/bin/../lib/gcc/nios2-elf/5.3.0/../../../../../H-x86_64-pc-linux-gnu/nios2-elf/lib/pg/libc.a(lib_a-lseekr.o)
 .debug_abbrev  0x000000000000b015      0x3d7 /package/eda/altera/altera17.0/nios2eds/bin/gnu/H-x86_64-pc-linux-gnu/bin/../lib/gcc/nios2-elf/5.3.0/../../../../../H-x86_64-pc-linux-gnu/nios2-elf/lib/pg/libc.a(lib_a-mprec.o)
 .debug_abbrev  0x000000000000b3ec      0x1e6 /package/eda/altera/altera17.0/nios2eds/bin/gnu/H-x86_64-pc-linux-gnu/bin/../lib/gcc/nios2-elf/5.3.0/../../../../../H-x86_64-pc-linux-gnu/nios2-elf/lib/pg/libc.a(lib_a-readr.o)
 .debug_abbrev  0x000000000000b5d2      0x3ce /package/eda/altera/altera17.0/nios2eds/bin/gnu/H-x86_64-pc-linux-gnu/bin/../lib/gcc/nios2-elf/5.3.0/../../../../../H-x86_64-pc-linux-gnu/nios2-elf/lib/pg/libc.a(lib_a-vfiprintf.o)
 .debug_abbrev  0x000000000000b9a0      0x2b9 /package/eda/altera/altera17.0/nios2eds/bin/gnu/H-x86_64-pc-linux-gnu/bin/../lib/gcc/nios2-elf/5.3.0/../../../../../H-x86_64-pc-linux-gnu/nios2-elf/lib/pg/libc.a(lib_a-fputwc.o)
 .debug_abbrev  0x000000000000bc59      0x230 /package/eda/altera/altera17.0/nios2eds/bin/gnu/H-x86_64-pc-linux-gnu/bin/../lib/gcc/nios2-elf/5.3.0/../../../../../H-x86_64-pc-linux-gnu/nios2-elf/lib/pg/libc.a(lib_a-wcrtomb.o)
 .debug_abbrev  0x000000000000be89      0x21f /package/eda/altera/altera17.0/nios2eds/bin/gnu/H-x86_64-pc-linux-gnu/bin/../lib/gcc/nios2-elf/5.3.0/../../../../../H-x86_64-pc-linux-gnu/nios2-elf/lib/pg/libc.a(lib_a-wctomb_r.o)
 .debug_abbrev  0x000000000000c0a8       0x60 /package/eda/altera/altera17.0/nios2eds/bin/gnu/H-x86_64-pc-linux-gnu/bin/../lib/gcc/nios2-elf/5.3.0/pg/libgcc.a(_fixunsdfsi.o)
 .debug_abbrev  0x000000000000c108      0x167 /package/eda/altera/altera17.0/nios2eds/bin/gnu/H-x86_64-pc-linux-gnu/bin/../lib/gcc/nios2-elf/5.3.0/pg/libgcc.a(_udivdi3.o)
 .debug_abbrev  0x000000000000c26f      0x18a /package/eda/altera/altera17.0/nios2eds/bin/gnu/H-x86_64-pc-linux-gnu/bin/../lib/gcc/nios2-elf/5.3.0/pg/libgcc.a(_umoddi3.o)
 .debug_abbrev  0x000000000000c3f9      0x124 /package/eda/altera/altera17.0/nios2eds/bin/gnu/H-x86_64-pc-linux-gnu/bin/../lib/gcc/nios2-elf/5.3.0/pg/libgcc.a(floatunsidf.o)
 .debug_abbrev  0x000000000000c51d       0x14 ../MNIST_CNN_Software_bsp//libhal_bsp.a(alt_mcount.o)
 .debug_abbrev  0x000000000000c531       0x12 ../MNIST_CNN_Software_bsp//libhal_bsp.a(alt_irq_entry.o)
 .debug_abbrev  0x000000000000c543       0x12 ../MNIST_CNN_Software_bsp//libhal_bsp.a(alt_exception_entry.o)
 .debug_abbrev  0x000000000000c555       0xaa /package/eda/altera/altera17.0/nios2eds/bin/gnu/H-x86_64-pc-linux-gnu/bin/../lib/gcc/nios2-elf/5.3.0/../../../../../H-x86_64-pc-linux-gnu/nios2-elf/lib/pg/libc.a(lib_a-atexit.o)
 .debug_abbrev  0x000000000000c5ff       0x7f /package/eda/altera/altera17.0/nios2eds/bin/gnu/H-x86_64-pc-linux-gnu/bin/../lib/gcc/nios2-elf/5.3.0/../../../../../H-x86_64-pc-linux-gnu/nios2-elf/lib/pg/libc.a(lib_a-memcmp.o)
 .debug_abbrev  0x000000000000c67e      0x21e /package/eda/altera/altera17.0/nios2eds/bin/gnu/H-x86_64-pc-linux-gnu/bin/../lib/gcc/nios2-elf/5.3.0/../../../../../H-x86_64-pc-linux-gnu/nios2-elf/lib/pg/libc.a(lib_a-__atexit.o)

.debug_line     0x0000000000000000    0x109d7
 *(.debug_line)
 .debug_line    0x0000000000000000       0x72 ../MNIST_CNN_Software_bsp//obj/HAL/src/crt0.o
 .debug_line    0x0000000000000072      0x1c1 /package/eda/altera/altera17.0/nios2eds/bin/gnu/H-x86_64-pc-linux-gnu/bin/../lib/gcc/nios2-elf/5.3.0/../../../../../H-x86_64-pc-linux-gnu/nios2-elf/lib/pg/libm.a(lib_a-sf_cos.o)
 .debug_line    0x0000000000000233      0x1c0 /package/eda/altera/altera17.0/nios2eds/bin/gnu/H-x86_64-pc-linux-gnu/bin/../lib/gcc/nios2-elf/5.3.0/../../../../../H-x86_64-pc-linux-gnu/nios2-elf/lib/pg/libm.a(lib_a-sf_sin.o)
 .debug_line    0x00000000000003f3      0x1d0 /package/eda/altera/altera17.0/nios2eds/bin/gnu/H-x86_64-pc-linux-gnu/bin/../lib/gcc/nios2-elf/5.3.0/../../../../../H-x86_64-pc-linux-gnu/nios2-elf/lib/pg/libm.a(lib_a-w_log.o)
 .debug_line    0x00000000000005c3      0x1b6 /package/eda/altera/altera17.0/nios2eds/bin/gnu/H-x86_64-pc-linux-gnu/bin/../lib/gcc/nios2-elf/5.3.0/../../../../../H-x86_64-pc-linux-gnu/nios2-elf/lib/pg/libm.a(lib_a-w_sqrt.o)
 .debug_line    0x0000000000000779      0x1be /package/eda/altera/altera17.0/nios2eds/bin/gnu/H-x86_64-pc-linux-gnu/bin/../lib/gcc/nios2-elf/5.3.0/../../../../../H-x86_64-pc-linux-gnu/nios2-elf/lib/pg/libm.a(lib_a-wf_exp.o)
 .debug_line    0x0000000000000937      0x1cf /package/eda/altera/altera17.0/nios2eds/bin/gnu/H-x86_64-pc-linux-gnu/bin/../lib/gcc/nios2-elf/5.3.0/../../../../../H-x86_64-pc-linux-gnu/nios2-elf/lib/pg/libm.a(lib_a-wf_log.o)
 .debug_line    0x0000000000000b06      0x1b8 /package/eda/altera/altera17.0/nios2eds/bin/gnu/H-x86_64-pc-linux-gnu/bin/../lib/gcc/nios2-elf/5.3.0/../../../../../H-x86_64-pc-linux-gnu/nios2-elf/lib/pg/libm.a(lib_a-wf_sqrt.o)
 .debug_line    0x0000000000000cbe      0x1f2 /package/eda/altera/altera17.0/nios2eds/bin/gnu/H-x86_64-pc-linux-gnu/bin/../lib/gcc/nios2-elf/5.3.0/../../../../../H-x86_64-pc-linux-gnu/nios2-elf/lib/pg/libm.a(lib_a-e_log.o)
 .debug_line    0x0000000000000eb0      0x1d0 /package/eda/altera/altera17.0/nios2eds/bin/gnu/H-x86_64-pc-linux-gnu/bin/../lib/gcc/nios2-elf/5.3.0/../../../../../H-x86_64-pc-linux-gnu/nios2-elf/lib/pg/libm.a(lib_a-e_sqrt.o)
 .debug_line    0x0000000000001080      0x189 /package/eda/altera/altera17.0/nios2eds/bin/gnu/H-x86_64-pc-linux-gnu/bin/../lib/gcc/nios2-elf/5.3.0/../../../../../H-x86_64-pc-linux-gnu/nios2-elf/lib/pg/libm.a(lib_a-ef_exp.o)
 .debug_line    0x0000000000001209      0x1da /package/eda/altera/altera17.0/nios2eds/bin/gnu/H-x86_64-pc-linux-gnu/bin/../lib/gcc/nios2-elf/5.3.0/../../../../../H-x86_64-pc-linux-gnu/nios2-elf/lib/pg/libm.a(lib_a-ef_log.o)
 .debug_line    0x00000000000013e3      0x25c /package/eda/altera/altera17.0/nios2eds/bin/gnu/H-x86_64-pc-linux-gnu/bin/../lib/gcc/nios2-elf/5.3.0/../../../../../H-x86_64-pc-linux-gnu/nios2-elf/lib/pg/libm.a(lib_a-ef_rem_pio2.o)
 .debug_line    0x000000000000163f      0x18a /package/eda/altera/altera17.0/nios2eds/bin/gnu/H-x86_64-pc-linux-gnu/bin/../lib/gcc/nios2-elf/5.3.0/../../../../../H-x86_64-pc-linux-gnu/nios2-elf/lib/pg/libm.a(lib_a-ef_sqrt.o)
 .debug_line    0x00000000000017c9      0x158 /package/eda/altera/altera17.0/nios2eds/bin/gnu/H-x86_64-pc-linux-gnu/bin/../lib/gcc/nios2-elf/5.3.0/../../../../../H-x86_64-pc-linux-gnu/nios2-elf/lib/pg/libm.a(lib_a-kf_cos.o)
 .debug_line    0x0000000000001921      0x3e5 /package/eda/altera/altera17.0/nios2eds/bin/gnu/H-x86_64-pc-linux-gnu/bin/../lib/gcc/nios2-elf/5.3.0/../../../../../H-x86_64-pc-linux-gnu/nios2-elf/lib/pg/libm.a(lib_a-kf_rem_pio2.o)
 .debug_line    0x0000000000001d06      0x105 /package/eda/altera/altera17.0/nios2eds/bin/gnu/H-x86_64-pc-linux-gnu/bin/../lib/gcc/nios2-elf/5.3.0/../../../../../H-x86_64-pc-linux-gnu/nios2-elf/lib/pg/libm.a(lib_a-kf_sin.o)
 .debug_line    0x0000000000001e0b      0x179 /package/eda/altera/altera17.0/nios2eds/bin/gnu/H-x86_64-pc-linux-gnu/bin/../lib/gcc/nios2-elf/5.3.0/../../../../../H-x86_64-pc-linux-gnu/nios2-elf/lib/pg/libm.a(lib_a-s_fpclassify.o)
 .debug_line    0x0000000000001f84       0xca /package/eda/altera/altera17.0/nios2eds/bin/gnu/H-x86_64-pc-linux-gnu/bin/../lib/gcc/nios2-elf/5.3.0/../../../../../H-x86_64-pc-linux-gnu/nios2-elf/lib/pg/libm.a(lib_a-s_lib_ver.o)
 .debug_line    0x000000000000204e       0xdb /package/eda/altera/altera17.0/nios2eds/bin/gnu/H-x86_64-pc-linux-gnu/bin/../lib/gcc/nios2-elf/5.3.0/../../../../../H-x86_64-pc-linux-gnu/nios2-elf/lib/pg/libm.a(lib_a-s_matherr.o)
 .debug_line    0x0000000000002129       0xd8 /package/eda/altera/altera17.0/nios2eds/bin/gnu/H-x86_64-pc-linux-gnu/bin/../lib/gcc/nios2-elf/5.3.0/../../../../../H-x86_64-pc-linux-gnu/nios2-elf/lib/pg/libm.a(lib_a-s_nan.o)
 .debug_line    0x0000000000002201      0x19b /package/eda/altera/altera17.0/nios2eds/bin/gnu/H-x86_64-pc-linux-gnu/bin/../lib/gcc/nios2-elf/5.3.0/../../../../../H-x86_64-pc-linux-gnu/nios2-elf/lib/pg/libm.a(lib_a-sf_fabs.o)
 .debug_line    0x000000000000239c      0x157 /package/eda/altera/altera17.0/nios2eds/bin/gnu/H-x86_64-pc-linux-gnu/bin/../lib/gcc/nios2-elf/5.3.0/../../../../../H-x86_64-pc-linux-gnu/nios2-elf/lib/pg/libm.a(lib_a-sf_finite.o)
 .debug_line    0x00000000000024f3      0x1c9 /package/eda/altera/altera17.0/nios2eds/bin/gnu/H-x86_64-pc-linux-gnu/bin/../lib/gcc/nios2-elf/5.3.0/../../../../../H-x86_64-pc-linux-gnu/nios2-elf/lib/pg/libm.a(lib_a-sf_floor.o)
 .debug_line    0x00000000000026bc      0x168 /package/eda/altera/altera17.0/nios2eds/bin/gnu/H-x86_64-pc-linux-gnu/bin/../lib/gcc/nios2-elf/5.3.0/../../../../../H-x86_64-pc-linux-gnu/nios2-elf/lib/pg/libm.a(lib_a-sf_fpclassify.o)
 .debug_line    0x0000000000002824      0x199 /package/eda/altera/altera17.0/nios2eds/bin/gnu/H-x86_64-pc-linux-gnu/bin/../lib/gcc/nios2-elf/5.3.0/../../../../../H-x86_64-pc-linux-gnu/nios2-elf/lib/pg/libm.a(lib_a-sf_scalbn.o)
 .debug_line    0x00000000000029bd      0x165 /package/eda/altera/altera17.0/nios2eds/bin/gnu/H-x86_64-pc-linux-gnu/bin/../lib/gcc/nios2-elf/5.3.0/../../../../../H-x86_64-pc-linux-gnu/nios2-elf/lib/pg/libm.a(lib_a-sf_copysign.o)
 .debug_line    0x0000000000002b22       0x89 /package/eda/altera/altera17.0/nios2eds/bin/gnu/H-x86_64-pc-linux-gnu/bin/../lib/gcc/nios2-elf/5.3.0/pg/libgcc.a(_muldi3.o)
 .debug_line    0x0000000000002bab       0x6e /package/eda/altera/altera17.0/nios2eds/bin/gnu/H-x86_64-pc-linux-gnu/bin/../lib/gcc/nios2-elf/5.3.0/pg/libgcc.a(_fixunssfsi.o)
 .debug_line    0x0000000000002c19      0x10d /package/eda/altera/altera17.0/nios2eds/bin/gnu/H-x86_64-pc-linux-gnu/bin/../lib/gcc/nios2-elf/5.3.0/pg/libgcc.a(lib2-divmod.o)
 .debug_line    0x0000000000002d26       0x6c /package/eda/altera/altera17.0/nios2eds/bin/gnu/H-x86_64-pc-linux-gnu/bin/../lib/gcc/nios2-elf/5.3.0/pg/libgcc.a(lib2-divtable.o)
 .debug_line    0x0000000000002d92      0x281 /package/eda/altera/altera17.0/nios2eds/bin/gnu/H-x86_64-pc-linux-gnu/bin/../lib/gcc/nios2-elf/5.3.0/pg/libgcc.a(addsf3.o)
 .debug_line    0x0000000000003013      0x161 /package/eda/altera/altera17.0/nios2eds/bin/gnu/H-x86_64-pc-linux-gnu/bin/../lib/gcc/nios2-elf/5.3.0/pg/libgcc.a(divsf3.o)
 .debug_line    0x0000000000003174       0xa2 /package/eda/altera/altera17.0/nios2eds/bin/gnu/H-x86_64-pc-linux-gnu/bin/../lib/gcc/nios2-elf/5.3.0/pg/libgcc.a(eqsf2.o)
 .debug_line    0x0000000000003216       0xc1 /package/eda/altera/altera17.0/nios2eds/bin/gnu/H-x86_64-pc-linux-gnu/bin/../lib/gcc/nios2-elf/5.3.0/pg/libgcc.a(gesf2.o)
 .debug_line    0x00000000000032d7       0xd5 /package/eda/altera/altera17.0/nios2eds/bin/gnu/H-x86_64-pc-linux-gnu/bin/../lib/gcc/nios2-elf/5.3.0/pg/libgcc.a(lesf2.o)
 .debug_line    0x00000000000033ac      0x14d /package/eda/altera/altera17.0/nios2eds/bin/gnu/H-x86_64-pc-linux-gnu/bin/../lib/gcc/nios2-elf/5.3.0/pg/libgcc.a(mulsf3.o)
 .debug_line    0x00000000000034f9      0x28b /package/eda/altera/altera17.0/nios2eds/bin/gnu/H-x86_64-pc-linux-gnu/bin/../lib/gcc/nios2-elf/5.3.0/pg/libgcc.a(subsf3.o)
 .debug_line    0x0000000000003784       0xa0 /package/eda/altera/altera17.0/nios2eds/bin/gnu/H-x86_64-pc-linux-gnu/bin/../lib/gcc/nios2-elf/5.3.0/pg/libgcc.a(fixsfsi.o)
 .debug_line    0x0000000000003824       0xb4 /package/eda/altera/altera17.0/nios2eds/bin/gnu/H-x86_64-pc-linux-gnu/bin/../lib/gcc/nios2-elf/5.3.0/pg/libgcc.a(floatsisf.o)
 .debug_line    0x00000000000038d8      0x37c /package/eda/altera/altera17.0/nios2eds/bin/gnu/H-x86_64-pc-linux-gnu/bin/../lib/gcc/nios2-elf/5.3.0/pg/libgcc.a(adddf3.o)
 .debug_line    0x0000000000003c54      0x2a1 /package/eda/altera/altera17.0/nios2eds/bin/gnu/H-x86_64-pc-linux-gnu/bin/../lib/gcc/nios2-elf/5.3.0/pg/libgcc.a(divdf3.o)
 .debug_line    0x0000000000003ef5       0xa7 /package/eda/altera/altera17.0/nios2eds/bin/gnu/H-x86_64-pc-linux-gnu/bin/../lib/gcc/nios2-elf/5.3.0/pg/libgcc.a(eqdf2.o)
 .debug_line    0x0000000000003f9c       0xd0 /package/eda/altera/altera17.0/nios2eds/bin/gnu/H-x86_64-pc-linux-gnu/bin/../lib/gcc/nios2-elf/5.3.0/pg/libgcc.a(gedf2.o)
 .debug_line    0x000000000000406c       0xe7 /package/eda/altera/altera17.0/nios2eds/bin/gnu/H-x86_64-pc-linux-gnu/bin/../lib/gcc/nios2-elf/5.3.0/pg/libgcc.a(ledf2.o)
 .debug_line    0x0000000000004153      0x1d7 /package/eda/altera/altera17.0/nios2eds/bin/gnu/H-x86_64-pc-linux-gnu/bin/../lib/gcc/nios2-elf/5.3.0/pg/libgcc.a(muldf3.o)
 .debug_line    0x000000000000432a      0x39e /package/eda/altera/altera17.0/nios2eds/bin/gnu/H-x86_64-pc-linux-gnu/bin/../lib/gcc/nios2-elf/5.3.0/pg/libgcc.a(subdf3.o)
 .debug_line    0x00000000000046c8       0xa1 /package/eda/altera/altera17.0/nios2eds/bin/gnu/H-x86_64-pc-linux-gnu/bin/../lib/gcc/nios2-elf/5.3.0/pg/libgcc.a(fixdfsi.o)
 .debug_line    0x0000000000004769       0xa3 /package/eda/altera/altera17.0/nios2eds/bin/gnu/H-x86_64-pc-linux-gnu/bin/../lib/gcc/nios2-elf/5.3.0/pg/libgcc.a(floatsidf.o)
 .debug_line    0x000000000000480c       0xb6 /package/eda/altera/altera17.0/nios2eds/bin/gnu/H-x86_64-pc-linux-gnu/bin/../lib/gcc/nios2-elf/5.3.0/pg/libgcc.a(extendsfdf2.o)
 .debug_line    0x00000000000048c2       0xfa /package/eda/altera/altera17.0/nios2eds/bin/gnu/H-x86_64-pc-linux-gnu/bin/../lib/gcc/nios2-elf/5.3.0/pg/libgcc.a(truncdfsf2.o)
 .debug_line    0x00000000000049bc       0xbd /package/eda/altera/altera17.0/nios2eds/bin/gnu/H-x86_64-pc-linux-gnu/bin/../lib/gcc/nios2-elf/5.3.0/pg/libgcc.a(_clzsi2.o)
 .debug_line    0x0000000000004a79       0x56 /package/eda/altera/altera17.0/nios2eds/bin/gnu/H-x86_64-pc-linux-gnu/bin/../lib/gcc/nios2-elf/5.3.0/pg/libgcc.a(_clz.o)
 .debug_line    0x0000000000004acf      0x156 /package/eda/altera/altera17.0/nios2eds/bin/gnu/H-x86_64-pc-linux-gnu/bin/../lib/gcc/nios2-elf/5.3.0/../../../../../H-x86_64-pc-linux-gnu/nios2-elf/lib/pg/libc.a(lib_a-abort.o)
 .debug_line    0x0000000000004c25      0x218 /package/eda/altera/altera17.0/nios2eds/bin/gnu/H-x86_64-pc-linux-gnu/bin/../lib/gcc/nios2-elf/5.3.0/../../../../../H-x86_64-pc-linux-gnu/nios2-elf/lib/pg/libc.a(lib_a-assert.o)
 .debug_line    0x0000000000004e3d      0x1e0 /package/eda/altera/altera17.0/nios2eds/bin/gnu/H-x86_64-pc-linux-gnu/bin/../lib/gcc/nios2-elf/5.3.0/../../../../../H-x86_64-pc-linux-gnu/nios2-elf/lib/pg/libc.a(lib_a-calloc.o)
 .debug_line    0x000000000000501d      0x1a6 /package/eda/altera/altera17.0/nios2eds/bin/gnu/H-x86_64-pc-linux-gnu/bin/../lib/gcc/nios2-elf/5.3.0/../../../../../H-x86_64-pc-linux-gnu/nios2-elf/lib/pg/libc.a(lib_a-callocr.o)
 .debug_line    0x00000000000051c3      0x17b /package/eda/altera/altera17.0/nios2eds/bin/gnu/H-x86_64-pc-linux-gnu/bin/../lib/gcc/nios2-elf/5.3.0/../../../../../H-x86_64-pc-linux-gnu/nios2-elf/lib/pg/libc.a(lib_a-errno.o)
 .debug_line    0x000000000000533e      0x1fc /package/eda/altera/altera17.0/nios2eds/bin/gnu/H-x86_64-pc-linux-gnu/bin/../lib/gcc/nios2-elf/5.3.0/../../../../../H-x86_64-pc-linux-gnu/nios2-elf/lib/pg/libc.a(lib_a-exit.o)
 .debug_line    0x000000000000553a      0x239 /package/eda/altera/altera17.0/nios2eds/bin/gnu/H-x86_64-pc-linux-gnu/bin/../lib/gcc/nios2-elf/5.3.0/../../../../../H-x86_64-pc-linux-gnu/nios2-elf/lib/pg/libc.a(lib_a-fclose.o)
 .debug_line    0x0000000000005773      0x2e8 /package/eda/altera/altera17.0/nios2eds/bin/gnu/H-x86_64-pc-linux-gnu/bin/../lib/gcc/nios2-elf/5.3.0/../../../../../H-x86_64-pc-linux-gnu/nios2-elf/lib/pg/libc.a(lib_a-fflush.o)
 .debug_line    0x0000000000005a5b      0x257 /package/eda/altera/altera17.0/nios2eds/bin/gnu/H-x86_64-pc-linux-gnu/bin/../lib/gcc/nios2-elf/5.3.0/../../../../../H-x86_64-pc-linux-gnu/nios2-elf/lib/pg/libc.a(lib_a-fgets.o)
 .debug_line    0x0000000000005cb2      0x1ff /package/eda/altera/altera17.0/nios2eds/bin/gnu/H-x86_64-pc-linux-gnu/bin/../lib/gcc/nios2-elf/5.3.0/../../../../../H-x86_64-pc-linux-gnu/nios2-elf/lib/pg/libc.a(lib_a-fileno.o)
 .debug_line    0x0000000000005eb1      0x368 /package/eda/altera/altera17.0/nios2eds/bin/gnu/H-x86_64-pc-linux-gnu/bin/../lib/gcc/nios2-elf/5.3.0/../../../../../H-x86_64-pc-linux-gnu/nios2-elf/lib/pg/libc.a(lib_a-findfp.o)
 .debug_line    0x0000000000006219      0x201 /package/eda/altera/altera17.0/nios2eds/bin/gnu/H-x86_64-pc-linux-gnu/bin/../lib/gcc/nios2-elf/5.3.0/../../../../../H-x86_64-pc-linux-gnu/nios2-elf/lib/pg/libc.a(lib_a-fiprintf.o)
 .debug_line    0x000000000000641a      0x226 /package/eda/altera/altera17.0/nios2eds/bin/gnu/H-x86_64-pc-linux-gnu/bin/../lib/gcc/nios2-elf/5.3.0/../../../../../H-x86_64-pc-linux-gnu/nios2-elf/lib/pg/libc.a(lib_a-fopen.o)
 .debug_line    0x0000000000006640      0x20d /package/eda/altera/altera17.0/nios2eds/bin/gnu/H-x86_64-pc-linux-gnu/bin/../lib/gcc/nios2-elf/5.3.0/../../../../../H-x86_64-pc-linux-gnu/nios2-elf/lib/pg/libc.a(lib_a-fprintf.o)
 .debug_line    0x000000000000684d      0x21d /package/eda/altera/altera17.0/nios2eds/bin/gnu/H-x86_64-pc-linux-gnu/bin/../lib/gcc/nios2-elf/5.3.0/../../../../../H-x86_64-pc-linux-gnu/nios2-elf/lib/pg/libc.a(lib_a-fputc.o)
 .debug_line    0x0000000000006a6a      0x23c /package/eda/altera/altera17.0/nios2eds/bin/gnu/H-x86_64-pc-linux-gnu/bin/../lib/gcc/nios2-elf/5.3.0/../../../../../H-x86_64-pc-linux-gnu/nios2-elf/lib/pg/libc.a(lib_a-fputs.o)
 .debug_line    0x0000000000006ca6      0x29e /package/eda/altera/altera17.0/nios2eds/bin/gnu/H-x86_64-pc-linux-gnu/bin/../lib/gcc/nios2-elf/5.3.0/../../../../../H-x86_64-pc-linux-gnu/nios2-elf/lib/pg/libc.a(lib_a-fread.o)
 .debug_line    0x0000000000006f44      0x2f8 /package/eda/altera/altera17.0/nios2eds/bin/gnu/H-x86_64-pc-linux-gnu/bin/../lib/gcc/nios2-elf/5.3.0/../../../../../H-x86_64-pc-linux-gnu/nios2-elf/lib/pg/libc.a(lib_a-freer.o)
 .debug_line    0x000000000000723c      0x1f6 /package/eda/altera/altera17.0/nios2eds/bin/gnu/H-x86_64-pc-linux-gnu/bin/../lib/gcc/nios2-elf/5.3.0/../../../../../H-x86_64-pc-linux-gnu/nios2-elf/lib/pg/libc.a(lib_a-fseek.o)
 .debug_line    0x0000000000007432      0x34c /package/eda/altera/altera17.0/nios2eds/bin/gnu/H-x86_64-pc-linux-gnu/bin/../lib/gcc/nios2-elf/5.3.0/../../../../../H-x86_64-pc-linux-gnu/nios2-elf/lib/pg/libc.a(lib_a-fseeko.o)
 .debug_line    0x000000000000777e      0x1ff /package/eda/altera/altera17.0/nios2eds/bin/gnu/H-x86_64-pc-linux-gnu/bin/../lib/gcc/nios2-elf/5.3.0/../../../../../H-x86_64-pc-linux-gnu/nios2-elf/lib/pg/libc.a(lib_a-fstatr.o)
 .debug_line    0x000000000000797d      0x344 /package/eda/altera/altera17.0/nios2eds/bin/gnu/H-x86_64-pc-linux-gnu/bin/../lib/gcc/nios2-elf/5.3.0/../../../../../H-x86_64-pc-linux-gnu/nios2-elf/lib/pg/libc.a(lib_a-fvwrite.o)
 .debug_line    0x0000000000007cc1      0x23a /package/eda/altera/altera17.0/nios2eds/bin/gnu/H-x86_64-pc-linux-gnu/bin/../lib/gcc/nios2-elf/5.3.0/../../../../../H-x86_64-pc-linux-gnu/nios2-elf/lib/pg/libc.a(lib_a-fwalk.o)
 .debug_line    0x0000000000007efb      0x238 /package/eda/altera/altera17.0/nios2eds/bin/gnu/H-x86_64-pc-linux-gnu/bin/../lib/gcc/nios2-elf/5.3.0/../../../../../H-x86_64-pc-linux-gnu/nios2-elf/lib/pg/libc.a(lib_a-fwrite.o)
 .debug_line    0x0000000000008133      0x160 /package/eda/altera/altera17.0/nios2eds/bin/gnu/H-x86_64-pc-linux-gnu/bin/../lib/gcc/nios2-elf/5.3.0/../../../../../H-x86_64-pc-linux-gnu/nios2-elf/lib/pg/libc.a(lib_a-impure.o)
 .debug_line    0x0000000000008293       0x5f /package/eda/altera/altera17.0/nios2eds/bin/gnu/H-x86_64-pc-linux-gnu/bin/../lib/gcc/nios2-elf/5.3.0/../../../../../H-x86_64-pc-linux-gnu/nios2-elf/lib/pg/libc.a(lib_a-int_errno.o)
 .debug_line    0x00000000000082f2      0x26e /package/eda/altera/altera17.0/nios2eds/bin/gnu/H-x86_64-pc-linux-gnu/bin/../lib/gcc/nios2-elf/5.3.0/../../../../../H-x86_64-pc-linux-gnu/nios2-elf/lib/pg/libc.a(lib_a-makebuf.o)
 .debug_line    0x0000000000008560      0x1f3 /package/eda/altera/altera17.0/nios2eds/bin/gnu/H-x86_64-pc-linux-gnu/bin/../lib/gcc/nios2-elf/5.3.0/../../../../../H-x86_64-pc-linux-gnu/nios2-elf/lib/pg/libc.a(lib_a-malloc.o)
 .debug_line    0x0000000000008753      0x3fc /package/eda/altera/altera17.0/nios2eds/bin/gnu/H-x86_64-pc-linux-gnu/bin/../lib/gcc/nios2-elf/5.3.0/../../../../../H-x86_64-pc-linux-gnu/nios2-elf/lib/pg/libc.a(lib_a-mallocr.o)
 .debug_line    0x0000000000008b4f      0x190 /package/eda/altera/altera17.0/nios2eds/bin/gnu/H-x86_64-pc-linux-gnu/bin/../lib/gcc/nios2-elf/5.3.0/../../../../../H-x86_64-pc-linux-gnu/nios2-elf/lib/pg/libc.a(lib_a-memchr.o)
 .debug_line    0x0000000000008cdf      0x18d /package/eda/altera/altera17.0/nios2eds/bin/gnu/H-x86_64-pc-linux-gnu/bin/../lib/gcc/nios2-elf/5.3.0/../../../../../H-x86_64-pc-linux-gnu/nios2-elf/lib/pg/libc.a(lib_a-memcpy.o)
 .debug_line    0x0000000000008e6c      0x190 /package/eda/altera/altera17.0/nios2eds/bin/gnu/H-x86_64-pc-linux-gnu/bin/../lib/gcc/nios2-elf/5.3.0/../../../../../H-x86_64-pc-linux-gnu/nios2-elf/lib/pg/libc.a(lib_a-memmove.o)
 .debug_line    0x0000000000008ffc      0x18f /package/eda/altera/altera17.0/nios2eds/bin/gnu/H-x86_64-pc-linux-gnu/bin/../lib/gcc/nios2-elf/5.3.0/../../../../../H-x86_64-pc-linux-gnu/nios2-elf/lib/pg/libc.a(lib_a-memset.o)
 .debug_line    0x000000000000918b      0x1fd /package/eda/altera/altera17.0/nios2eds/bin/gnu/H-x86_64-pc-linux-gnu/bin/../lib/gcc/nios2-elf/5.3.0/../../../../../H-x86_64-pc-linux-gnu/nios2-elf/lib/pg/libc.a(lib_a-openr.o)
 .debug_line    0x0000000000009388      0x20d /package/eda/altera/altera17.0/nios2eds/bin/gnu/H-x86_64-pc-linux-gnu/bin/../lib/gcc/nios2-elf/5.3.0/../../../../../H-x86_64-pc-linux-gnu/nios2-elf/lib/pg/libc.a(lib_a-printf.o)
 .debug_line    0x0000000000009595      0x272 /package/eda/altera/altera17.0/nios2eds/bin/gnu/H-x86_64-pc-linux-gnu/bin/../lib/gcc/nios2-elf/5.3.0/../../../../../H-x86_64-pc-linux-gnu/nios2-elf/lib/pg/libc.a(lib_a-putc.o)
 .debug_line    0x0000000000009807      0x1e1 /package/eda/altera/altera17.0/nios2eds/bin/gnu/H-x86_64-pc-linux-gnu/bin/../lib/gcc/nios2-elf/5.3.0/../../../../../H-x86_64-pc-linux-gnu/nios2-elf/lib/pg/libc.a(lib_a-realloc.o)
 .debug_line    0x00000000000099e8      0x2f5 /package/eda/altera/altera17.0/nios2eds/bin/gnu/H-x86_64-pc-linux-gnu/bin/../lib/gcc/nios2-elf/5.3.0/../../../../../H-x86_64-pc-linux-gnu/nios2-elf/lib/pg/libc.a(lib_a-reallocr.o)
 .debug_line    0x0000000000009cdd      0x27f /package/eda/altera/altera17.0/nios2eds/bin/gnu/H-x86_64-pc-linux-gnu/bin/../lib/gcc/nios2-elf/5.3.0/../../../../../H-x86_64-pc-linux-gnu/nios2-elf/lib/pg/libc.a(lib_a-refill.o)
 .debug_line    0x0000000000009f5c      0x1e7 /package/eda/altera/altera17.0/nios2eds/bin/gnu/H-x86_64-pc-linux-gnu/bin/../lib/gcc/nios2-elf/5.3.0/../../../../../H-x86_64-pc-linux-gnu/nios2-elf/lib/pg/libc.a(lib_a-sbrkr.o)
 .debug_line    0x000000000000a143      0x2e8 /package/eda/altera/altera17.0/nios2eds/bin/gnu/H-x86_64-pc-linux-gnu/bin/../lib/gcc/nios2-elf/5.3.0/../../../../../H-x86_64-pc-linux-gnu/nios2-elf/lib/pg/libc.a(lib_a-signal.o)
 .debug_line    0x000000000000a42b      0x209 /package/eda/altera/altera17.0/nios2eds/bin/gnu/H-x86_64-pc-linux-gnu/bin/../lib/gcc/nios2-elf/5.3.0/../../../../../H-x86_64-pc-linux-gnu/nios2-elf/lib/pg/libc.a(lib_a-signalr.o)
 .debug_line    0x000000000000a634      0x267 /package/eda/altera/altera17.0/nios2eds/bin/gnu/H-x86_64-pc-linux-gnu/bin/../lib/gcc/nios2-elf/5.3.0/../../../../../H-x86_64-pc-linux-gnu/nios2-elf/lib/pg/libc.a(lib_a-stdio.o)
 .debug_line    0x000000000000a89b      0x101 /package/eda/altera/altera17.0/nios2eds/bin/gnu/H-x86_64-pc-linux-gnu/bin/../lib/gcc/nios2-elf/5.3.0/../../../../../H-x86_64-pc-linux-gnu/nios2-elf/lib/pg/libc.a(lib_a-strcmp.o)
 .debug_line    0x000000000000a99c      0x1dd /package/eda/altera/altera17.0/nios2eds/bin/gnu/H-x86_64-pc-linux-gnu/bin/../lib/gcc/nios2-elf/5.3.0/../../../../../H-x86_64-pc-linux-gnu/nios2-elf/lib/pg/libc.a(lib_a-strdup.o)
 .debug_line    0x000000000000ab79      0x1f1 /package/eda/altera/altera17.0/nios2eds/bin/gnu/H-x86_64-pc-linux-gnu/bin/../lib/gcc/nios2-elf/5.3.0/../../../../../H-x86_64-pc-linux-gnu/nios2-elf/lib/pg/libc.a(lib_a-strdup_r.o)
 .debug_line    0x000000000000ad6a      0x16f /package/eda/altera/altera17.0/nios2eds/bin/gnu/H-x86_64-pc-linux-gnu/bin/../lib/gcc/nios2-elf/5.3.0/../../../../../H-x86_64-pc-linux-gnu/nios2-elf/lib/pg/libc.a(lib_a-strlen.o)
 .debug_line    0x000000000000aed9      0x19e /package/eda/altera/altera17.0/nios2eds/bin/gnu/H-x86_64-pc-linux-gnu/bin/../lib/gcc/nios2-elf/5.3.0/../../../../../H-x86_64-pc-linux-gnu/nios2-elf/lib/pg/libc.a(lib_a-strncmp.o)
 .debug_line    0x000000000000b077      0x72a /package/eda/altera/altera17.0/nios2eds/bin/gnu/H-x86_64-pc-linux-gnu/bin/../lib/gcc/nios2-elf/5.3.0/../../../../../H-x86_64-pc-linux-gnu/nios2-elf/lib/pg/libc.a(lib_a-strtod.o)
 .debug_line    0x000000000000b7a1      0x1ef /package/eda/altera/altera17.0/nios2eds/bin/gnu/H-x86_64-pc-linux-gnu/bin/../lib/gcc/nios2-elf/5.3.0/../../../../../H-x86_64-pc-linux-gnu/nios2-elf/lib/pg/libc.a(lib_a-vfiprintfr_1.o)
 .debug_line    0x000000000000b990      0xc96 /package/eda/altera/altera17.0/nios2eds/bin/gnu/H-x86_64-pc-linux-gnu/bin/../lib/gcc/nios2-elf/5.3.0/../../../../../H-x86_64-pc-linux-gnu/nios2-elf/lib/pg/libc.a(lib_a-vfprintf.o)
 .debug_line    0x000000000000c626      0x272 /package/eda/altera/altera17.0/nios2eds/bin/gnu/H-x86_64-pc-linux-gnu/bin/../lib/gcc/nios2-elf/5.3.0/../../../../../H-x86_64-pc-linux-gnu/nios2-elf/lib/pg/libc.a(lib_a-wbuf.o)
 .debug_line    0x000000000000c898      0x1f6 /package/eda/altera/altera17.0/nios2eds/bin/gnu/H-x86_64-pc-linux-gnu/bin/../lib/gcc/nios2-elf/5.3.0/../../../../../H-x86_64-pc-linux-gnu/nios2-elf/lib/pg/libc.a(lib_a-writer.o)
 .debug_line    0x000000000000ca8e      0x264 /package/eda/altera/altera17.0/nios2eds/bin/gnu/H-x86_64-pc-linux-gnu/bin/../lib/gcc/nios2-elf/5.3.0/../../../../../H-x86_64-pc-linux-gnu/nios2-elf/lib/pg/libc.a(lib_a-wsetup.o)
 .debug_line    0x000000000000ccf2      0x1f4 /package/eda/altera/altera17.0/nios2eds/bin/gnu/H-x86_64-pc-linux-gnu/bin/../lib/gcc/nios2-elf/5.3.0/../../../../../H-x86_64-pc-linux-gnu/nios2-elf/lib/pg/libc.a(closer.o)
 .debug_line    0x000000000000cee6      0x23c /package/eda/altera/altera17.0/nios2eds/bin/gnu/H-x86_64-pc-linux-gnu/bin/../lib/gcc/nios2-elf/5.3.0/../../../../../H-x86_64-pc-linux-gnu/nios2-elf/lib/pg/libc.a(lib_a-__call_atexit.o)
 .debug_line    0x000000000000d122      0x7c7 /package/eda/altera/altera17.0/nios2eds/bin/gnu/H-x86_64-pc-linux-gnu/bin/../lib/gcc/nios2-elf/5.3.0/../../../../../H-x86_64-pc-linux-gnu/nios2-elf/lib/pg/libc.a(lib_a-dtoa.o)
 .debug_line    0x000000000000d8e9      0x19e /package/eda/altera/altera17.0/nios2eds/bin/gnu/H-x86_64-pc-linux-gnu/bin/../lib/gcc/nios2-elf/5.3.0/../../../../../H-x86_64-pc-linux-gnu/nios2-elf/lib/pg/libc.a(lib_a-flags.o)
 .debug_line    0x000000000000da87      0x436 /package/eda/altera/altera17.0/nios2eds/bin/gnu/H-x86_64-pc-linux-gnu/bin/../lib/gcc/nios2-elf/5.3.0/../../../../../H-x86_64-pc-linux-gnu/nios2-elf/lib/pg/libc.a(lib_a-gdtoa-gethex.o)
 .debug_line    0x000000000000debd      0x185 /package/eda/altera/altera17.0/nios2eds/bin/gnu/H-x86_64-pc-linux-gnu/bin/../lib/gcc/nios2-elf/5.3.0/../../../../../H-x86_64-pc-linux-gnu/nios2-elf/lib/pg/libc.a(lib_a-gdtoa-hexnan.o)
 .debug_line    0x000000000000e042      0x1f5 /package/eda/altera/altera17.0/nios2eds/bin/gnu/H-x86_64-pc-linux-gnu/bin/../lib/gcc/nios2-elf/5.3.0/../../../../../H-x86_64-pc-linux-gnu/nios2-elf/lib/pg/libc.a(lib_a-isattyr.o)
 .debug_line    0x000000000000e237      0x28c /package/eda/altera/altera17.0/nios2eds/bin/gnu/H-x86_64-pc-linux-gnu/bin/../lib/gcc/nios2-elf/5.3.0/../../../../../H-x86_64-pc-linux-gnu/nios2-elf/lib/pg/libc.a(lib_a-locale.o)
 .debug_line    0x000000000000e4c3      0x1f6 /package/eda/altera/altera17.0/nios2eds/bin/gnu/H-x86_64-pc-linux-gnu/bin/../lib/gcc/nios2-elf/5.3.0/../../../../../H-x86_64-pc-linux-gnu/nios2-elf/lib/pg/libc.a(lib_a-lseekr.o)
 .debug_line    0x000000000000e6b9      0x795 /package/eda/altera/altera17.0/nios2eds/bin/gnu/H-x86_64-pc-linux-gnu/bin/../lib/gcc/nios2-elf/5.3.0/../../../../../H-x86_64-pc-linux-gnu/nios2-elf/lib/pg/libc.a(lib_a-mprec.o)
 .debug_line    0x000000000000ee4e      0x1f5 /package/eda/altera/altera17.0/nios2eds/bin/gnu/H-x86_64-pc-linux-gnu/bin/../lib/gcc/nios2-elf/5.3.0/../../../../../H-x86_64-pc-linux-gnu/nios2-elf/lib/pg/libc.a(lib_a-readr.o)
 .debug_line    0x000000000000f043      0x94d /package/eda/altera/altera17.0/nios2eds/bin/gnu/H-x86_64-pc-linux-gnu/bin/../lib/gcc/nios2-elf/5.3.0/../../../../../H-x86_64-pc-linux-gnu/nios2-elf/lib/pg/libc.a(lib_a-vfiprintf.o)
 .debug_line    0x000000000000f990      0x2a2 /package/eda/altera/altera17.0/nios2eds/bin/gnu/H-x86_64-pc-linux-gnu/bin/../lib/gcc/nios2-elf/5.3.0/../../../../../H-x86_64-pc-linux-gnu/nios2-elf/lib/pg/libc.a(lib_a-fputwc.o)
 .debug_line    0x000000000000fc32      0x21f /package/eda/altera/altera17.0/nios2eds/bin/gnu/H-x86_64-pc-linux-gnu/bin/../lib/gcc/nios2-elf/5.3.0/../../../../../H-x86_64-pc-linux-gnu/nios2-elf/lib/pg/libc.a(lib_a-wcrtomb.o)
 .debug_line    0x000000000000fe51      0x219 /package/eda/altera/altera17.0/nios2eds/bin/gnu/H-x86_64-pc-linux-gnu/bin/../lib/gcc/nios2-elf/5.3.0/../../../../../H-x86_64-pc-linux-gnu/nios2-elf/lib/pg/libc.a(lib_a-wctomb_r.o)
 .debug_line    0x000000000001006a       0x6e /package/eda/altera/altera17.0/nios2eds/bin/gnu/H-x86_64-pc-linux-gnu/bin/../lib/gcc/nios2-elf/5.3.0/pg/libgcc.a(_fixunsdfsi.o)
 .debug_line    0x00000000000100d8      0x130 /package/eda/altera/altera17.0/nios2eds/bin/gnu/H-x86_64-pc-linux-gnu/bin/../lib/gcc/nios2-elf/5.3.0/pg/libgcc.a(_udivdi3.o)
 .debug_line    0x0000000000010208      0x140 /package/eda/altera/altera17.0/nios2eds/bin/gnu/H-x86_64-pc-linux-gnu/bin/../lib/gcc/nios2-elf/5.3.0/pg/libgcc.a(_umoddi3.o)
 .debug_line    0x0000000000010348       0x96 /package/eda/altera/altera17.0/nios2eds/bin/gnu/H-x86_64-pc-linux-gnu/bin/../lib/gcc/nios2-elf/5.3.0/pg/libgcc.a(floatunsidf.o)
 .debug_line    0x00000000000103de       0x6a ../MNIST_CNN_Software_bsp//libhal_bsp.a(alt_mcount.o)
 .debug_line    0x0000000000010448       0x6b ../MNIST_CNN_Software_bsp//libhal_bsp.a(alt_irq_entry.o)
 .debug_line    0x00000000000104b3       0xab ../MNIST_CNN_Software_bsp//libhal_bsp.a(alt_exception_entry.o)
 .debug_line    0x000000000001055e       0xe7 /package/eda/altera/altera17.0/nios2eds/bin/gnu/H-x86_64-pc-linux-gnu/bin/../lib/gcc/nios2-elf/5.3.0/../../../../../H-x86_64-pc-linux-gnu/nios2-elf/lib/pg/libc.a(lib_a-atexit.o)
 .debug_line    0x0000000000010645      0x177 /package/eda/altera/altera17.0/nios2eds/bin/gnu/H-x86_64-pc-linux-gnu/bin/../lib/gcc/nios2-elf/5.3.0/../../../../../H-x86_64-pc-linux-gnu/nios2-elf/lib/pg/libc.a(lib_a-memcmp.o)
 .debug_line    0x00000000000107bc      0x21b /package/eda/altera/altera17.0/nios2eds/bin/gnu/H-x86_64-pc-linux-gnu/bin/../lib/gcc/nios2-elf/5.3.0/../../../../../H-x86_64-pc-linux-gnu/nios2-elf/lib/pg/libc.a(lib_a-__atexit.o)

.debug_frame    0x0000000000000000     0x2558
 *(.debug_frame)
 .debug_frame   0x0000000000000000       0x38 /package/eda/altera/altera17.0/nios2eds/bin/gnu/H-x86_64-pc-linux-gnu/bin/../lib/gcc/nios2-elf/5.3.0/../../../../../H-x86_64-pc-linux-gnu/nios2-elf/lib/pg/libm.a(lib_a-sf_cos.o)
 .debug_frame   0x0000000000000038       0x38 /package/eda/altera/altera17.0/nios2eds/bin/gnu/H-x86_64-pc-linux-gnu/bin/../lib/gcc/nios2-elf/5.3.0/../../../../../H-x86_64-pc-linux-gnu/nios2-elf/lib/pg/libm.a(lib_a-sf_sin.o)
 .debug_frame   0x0000000000000070       0x44 /package/eda/altera/altera17.0/nios2eds/bin/gnu/H-x86_64-pc-linux-gnu/bin/../lib/gcc/nios2-elf/5.3.0/../../../../../H-x86_64-pc-linux-gnu/nios2-elf/lib/pg/libm.a(lib_a-w_log.o)
 .debug_frame   0x00000000000000b4       0x44 /package/eda/altera/altera17.0/nios2eds/bin/gnu/H-x86_64-pc-linux-gnu/bin/../lib/gcc/nios2-elf/5.3.0/../../../../../H-x86_64-pc-linux-gnu/nios2-elf/lib/pg/libm.a(lib_a-w_sqrt.o)
 .debug_frame   0x00000000000000f8       0x3c /package/eda/altera/altera17.0/nios2eds/bin/gnu/H-x86_64-pc-linux-gnu/bin/../lib/gcc/nios2-elf/5.3.0/../../../../../H-x86_64-pc-linux-gnu/nios2-elf/lib/pg/libm.a(lib_a-wf_exp.o)
 .debug_frame   0x0000000000000134       0x3c /package/eda/altera/altera17.0/nios2eds/bin/gnu/H-x86_64-pc-linux-gnu/bin/../lib/gcc/nios2-elf/5.3.0/../../../../../H-x86_64-pc-linux-gnu/nios2-elf/lib/pg/libm.a(lib_a-wf_log.o)
 .debug_frame   0x0000000000000170       0x3c /package/eda/altera/altera17.0/nios2eds/bin/gnu/H-x86_64-pc-linux-gnu/bin/../lib/gcc/nios2-elf/5.3.0/../../../../../H-x86_64-pc-linux-gnu/nios2-elf/lib/pg/libm.a(lib_a-wf_sqrt.o)
 .debug_frame   0x00000000000001ac       0x54 /package/eda/altera/altera17.0/nios2eds/bin/gnu/H-x86_64-pc-linux-gnu/bin/../lib/gcc/nios2-elf/5.3.0/../../../../../H-x86_64-pc-linux-gnu/nios2-elf/lib/pg/libm.a(lib_a-e_log.o)
 .debug_frame   0x0000000000000200       0x38 /package/eda/altera/altera17.0/nios2eds/bin/gnu/H-x86_64-pc-linux-gnu/bin/../lib/gcc/nios2-elf/5.3.0/../../../../../H-x86_64-pc-linux-gnu/nios2-elf/lib/pg/libm.a(lib_a-e_sqrt.o)
 .debug_frame   0x0000000000000238       0x44 /package/eda/altera/altera17.0/nios2eds/bin/gnu/H-x86_64-pc-linux-gnu/bin/../lib/gcc/nios2-elf/5.3.0/../../../../../H-x86_64-pc-linux-gnu/nios2-elf/lib/pg/libm.a(lib_a-ef_exp.o)
 .debug_frame   0x000000000000027c       0x50 /package/eda/altera/altera17.0/nios2eds/bin/gnu/H-x86_64-pc-linux-gnu/bin/../lib/gcc/nios2-elf/5.3.0/../../../../../H-x86_64-pc-linux-gnu/nios2-elf/lib/pg/libm.a(lib_a-ef_log.o)
 .debug_frame   0x00000000000002cc       0x54 /package/eda/altera/altera17.0/nios2eds/bin/gnu/H-x86_64-pc-linux-gnu/bin/../lib/gcc/nios2-elf/5.3.0/../../../../../H-x86_64-pc-linux-gnu/nios2-elf/lib/pg/libm.a(lib_a-ef_rem_pio2.o)
 .debug_frame   0x0000000000000320       0x48 /package/eda/altera/altera17.0/nios2eds/bin/gnu/H-x86_64-pc-linux-gnu/bin/../lib/gcc/nios2-elf/5.3.0/../../../../../H-x86_64-pc-linux-gnu/nios2-elf/lib/pg/libm.a(lib_a-ef_sqrt.o)
 .debug_frame   0x0000000000000368       0x4c /package/eda/altera/altera17.0/nios2eds/bin/gnu/H-x86_64-pc-linux-gnu/bin/../lib/gcc/nios2-elf/5.3.0/../../../../../H-x86_64-pc-linux-gnu/nios2-elf/lib/pg/libm.a(lib_a-kf_cos.o)
 .debug_frame   0x00000000000003b4       0x58 /package/eda/altera/altera17.0/nios2eds/bin/gnu/H-x86_64-pc-linux-gnu/bin/../lib/gcc/nios2-elf/5.3.0/../../../../../H-x86_64-pc-linux-gnu/nios2-elf/lib/pg/libm.a(lib_a-kf_rem_pio2.o)
 .debug_frame   0x000000000000040c       0x48 /package/eda/altera/altera17.0/nios2eds/bin/gnu/H-x86_64-pc-linux-gnu/bin/../lib/gcc/nios2-elf/5.3.0/../../../../../H-x86_64-pc-linux-gnu/nios2-elf/lib/pg/libm.a(lib_a-kf_sin.o)
 .debug_frame   0x0000000000000454       0x20 /package/eda/altera/altera17.0/nios2eds/bin/gnu/H-x86_64-pc-linux-gnu/bin/../lib/gcc/nios2-elf/5.3.0/../../../../../H-x86_64-pc-linux-gnu/nios2-elf/lib/pg/libm.a(lib_a-s_fpclassify.o)
 .debug_frame   0x0000000000000474       0x20 /package/eda/altera/altera17.0/nios2eds/bin/gnu/H-x86_64-pc-linux-gnu/bin/../lib/gcc/nios2-elf/5.3.0/../../../../../H-x86_64-pc-linux-gnu/nios2-elf/lib/pg/libm.a(lib_a-s_matherr.o)
 .debug_frame   0x0000000000000494       0x20 /package/eda/altera/altera17.0/nios2eds/bin/gnu/H-x86_64-pc-linux-gnu/bin/../lib/gcc/nios2-elf/5.3.0/../../../../../H-x86_64-pc-linux-gnu/nios2-elf/lib/pg/libm.a(lib_a-s_nan.o)
 .debug_frame   0x00000000000004b4       0x20 /package/eda/altera/altera17.0/nios2eds/bin/gnu/H-x86_64-pc-linux-gnu/bin/../lib/gcc/nios2-elf/5.3.0/../../../../../H-x86_64-pc-linux-gnu/nios2-elf/lib/pg/libm.a(lib_a-sf_fabs.o)
 .debug_frame   0x00000000000004d4       0x20 /package/eda/altera/altera17.0/nios2eds/bin/gnu/H-x86_64-pc-linux-gnu/bin/../lib/gcc/nios2-elf/5.3.0/../../../../../H-x86_64-pc-linux-gnu/nios2-elf/lib/pg/libm.a(lib_a-sf_finite.o)
 .debug_frame   0x00000000000004f4       0x44 /package/eda/altera/altera17.0/nios2eds/bin/gnu/H-x86_64-pc-linux-gnu/bin/../lib/gcc/nios2-elf/5.3.0/../../../../../H-x86_64-pc-linux-gnu/nios2-elf/lib/pg/libm.a(lib_a-sf_floor.o)
 .debug_frame   0x0000000000000538       0x20 /package/eda/altera/altera17.0/nios2eds/bin/gnu/H-x86_64-pc-linux-gnu/bin/../lib/gcc/nios2-elf/5.3.0/../../../../../H-x86_64-pc-linux-gnu/nios2-elf/lib/pg/libm.a(lib_a-sf_fpclassify.o)
 .debug_frame   0x0000000000000558       0x4c /package/eda/altera/altera17.0/nios2eds/bin/gnu/H-x86_64-pc-linux-gnu/bin/../lib/gcc/nios2-elf/5.3.0/../../../../../H-x86_64-pc-linux-gnu/nios2-elf/lib/pg/libm.a(lib_a-sf_scalbn.o)
 .debug_frame   0x00000000000005a4       0x20 /package/eda/altera/altera17.0/nios2eds/bin/gnu/H-x86_64-pc-linux-gnu/bin/../lib/gcc/nios2-elf/5.3.0/../../../../../H-x86_64-pc-linux-gnu/nios2-elf/lib/pg/libm.a(lib_a-sf_copysign.o)
 .debug_frame   0x00000000000005c4       0x20 /package/eda/altera/altera17.0/nios2eds/bin/gnu/H-x86_64-pc-linux-gnu/bin/../lib/gcc/nios2-elf/5.3.0/pg/libgcc.a(_muldi3.o)
 .debug_frame   0x00000000000005e4       0x38 /package/eda/altera/altera17.0/nios2eds/bin/gnu/H-x86_64-pc-linux-gnu/bin/../lib/gcc/nios2-elf/5.3.0/pg/libgcc.a(_fixunssfsi.o)
 .debug_frame   0x000000000000061c       0x50 /package/eda/altera/altera17.0/nios2eds/bin/gnu/H-x86_64-pc-linux-gnu/bin/../lib/gcc/nios2-elf/5.3.0/pg/libgcc.a(lib2-divmod.o)
 .debug_frame   0x000000000000066c       0x3c /package/eda/altera/altera17.0/nios2eds/bin/gnu/H-x86_64-pc-linux-gnu/bin/../lib/gcc/nios2-elf/5.3.0/pg/libgcc.a(addsf3.o)
 .debug_frame   0x00000000000006a8       0x54 /package/eda/altera/altera17.0/nios2eds/bin/gnu/H-x86_64-pc-linux-gnu/bin/../lib/gcc/nios2-elf/5.3.0/pg/libgcc.a(divsf3.o)
 .debug_frame   0x00000000000006fc       0x20 /package/eda/altera/altera17.0/nios2eds/bin/gnu/H-x86_64-pc-linux-gnu/bin/../lib/gcc/nios2-elf/5.3.0/pg/libgcc.a(eqsf2.o)
 .debug_frame   0x000000000000071c       0x20 /package/eda/altera/altera17.0/nios2eds/bin/gnu/H-x86_64-pc-linux-gnu/bin/../lib/gcc/nios2-elf/5.3.0/pg/libgcc.a(gesf2.o)
 .debug_frame   0x000000000000073c       0x20 /package/eda/altera/altera17.0/nios2eds/bin/gnu/H-x86_64-pc-linux-gnu/bin/../lib/gcc/nios2-elf/5.3.0/pg/libgcc.a(lesf2.o)
 .debug_frame   0x000000000000075c       0x54 /package/eda/altera/altera17.0/nios2eds/bin/gnu/H-x86_64-pc-linux-gnu/bin/../lib/gcc/nios2-elf/5.3.0/pg/libgcc.a(mulsf3.o)
 .debug_frame   0x00000000000007b0       0x3c /package/eda/altera/altera17.0/nios2eds/bin/gnu/H-x86_64-pc-linux-gnu/bin/../lib/gcc/nios2-elf/5.3.0/pg/libgcc.a(subsf3.o)
 .debug_frame   0x00000000000007ec       0x20 /package/eda/altera/altera17.0/nios2eds/bin/gnu/H-x86_64-pc-linux-gnu/bin/../lib/gcc/nios2-elf/5.3.0/pg/libgcc.a(fixsfsi.o)
 .debug_frame   0x000000000000080c       0x38 /package/eda/altera/altera17.0/nios2eds/bin/gnu/H-x86_64-pc-linux-gnu/bin/../lib/gcc/nios2-elf/5.3.0/pg/libgcc.a(floatsisf.o)
 .debug_frame   0x0000000000000844       0x40 /package/eda/altera/altera17.0/nios2eds/bin/gnu/H-x86_64-pc-linux-gnu/bin/../lib/gcc/nios2-elf/5.3.0/pg/libgcc.a(adddf3.o)
 .debug_frame   0x0000000000000884       0x54 /package/eda/altera/altera17.0/nios2eds/bin/gnu/H-x86_64-pc-linux-gnu/bin/../lib/gcc/nios2-elf/5.3.0/pg/libgcc.a(divdf3.o)
 .debug_frame   0x00000000000008d8       0x20 /package/eda/altera/altera17.0/nios2eds/bin/gnu/H-x86_64-pc-linux-gnu/bin/../lib/gcc/nios2-elf/5.3.0/pg/libgcc.a(eqdf2.o)
 .debug_frame   0x00000000000008f8       0x20 /package/eda/altera/altera17.0/nios2eds/bin/gnu/H-x86_64-pc-linux-gnu/bin/../lib/gcc/nios2-elf/5.3.0/pg/libgcc.a(gedf2.o)
 .debug_frame   0x0000000000000918       0x20 /package/eda/altera/altera17.0/nios2eds/bin/gnu/H-x86_64-pc-linux-gnu/bin/../lib/gcc/nios2-elf/5.3.0/pg/libgcc.a(ledf2.o)
 .debug_frame   0x0000000000000938       0x54 /package/eda/altera/altera17.0/nios2eds/bin/gnu/H-x86_64-pc-linux-gnu/bin/../lib/gcc/nios2-elf/5.3.0/pg/libgcc.a(muldf3.o)
 .debug_frame   0x000000000000098c       0x40 /package/eda/altera/altera17.0/nios2eds/bin/gnu/H-x86_64-pc-linux-gnu/bin/../lib/gcc/nios2-elf/5.3.0/pg/libgcc.a(subdf3.o)
 .debug_frame   0x00000000000009cc       0x20 /package/eda/altera/altera17.0/nios2eds/bin/gnu/H-x86_64-pc-linux-gnu/bin/../lib/gcc/nios2-elf/5.3.0/pg/libgcc.a(fixdfsi.o)
 .debug_frame   0x00000000000009ec       0x38 /package/eda/altera/altera17.0/nios2eds/bin/gnu/H-x86_64-pc-linux-gnu/bin/../lib/gcc/nios2-elf/5.3.0/pg/libgcc.a(floatsidf.o)
 .debug_frame   0x0000000000000a24       0x38 /package/eda/altera/altera17.0/nios2eds/bin/gnu/H-x86_64-pc-linux-gnu/bin/../lib/gcc/nios2-elf/5.3.0/pg/libgcc.a(extendsfdf2.o)
 .debug_frame   0x0000000000000a5c       0x20 /package/eda/altera/altera17.0/nios2eds/bin/gnu/H-x86_64-pc-linux-gnu/bin/../lib/gcc/nios2-elf/5.3.0/pg/libgcc.a(truncdfsf2.o)
 .debug_frame   0x0000000000000a7c       0x20 /package/eda/altera/altera17.0/nios2eds/bin/gnu/H-x86_64-pc-linux-gnu/bin/../lib/gcc/nios2-elf/5.3.0/pg/libgcc.a(_clzsi2.o)
 .debug_frame   0x0000000000000a9c       0x28 /package/eda/altera/altera17.0/nios2eds/bin/gnu/H-x86_64-pc-linux-gnu/bin/../lib/gcc/nios2-elf/5.3.0/../../../../../H-x86_64-pc-linux-gnu/nios2-elf/lib/pg/libc.a(lib_a-abort.o)
 .debug_frame   0x0000000000000ac4       0x40 /package/eda/altera/altera17.0/nios2eds/bin/gnu/H-x86_64-pc-linux-gnu/bin/../lib/gcc/nios2-elf/5.3.0/../../../../../H-x86_64-pc-linux-gnu/nios2-elf/lib/pg/libc.a(lib_a-assert.o)
 .debug_frame   0x0000000000000b04       0x20 /package/eda/altera/altera17.0/nios2eds/bin/gnu/H-x86_64-pc-linux-gnu/bin/../lib/gcc/nios2-elf/5.3.0/../../../../../H-x86_64-pc-linux-gnu/nios2-elf/lib/pg/libc.a(lib_a-calloc.o)
 .debug_frame   0x0000000000000b24       0x40 /package/eda/altera/altera17.0/nios2eds/bin/gnu/H-x86_64-pc-linux-gnu/bin/../lib/gcc/nios2-elf/5.3.0/../../../../../H-x86_64-pc-linux-gnu/nios2-elf/lib/pg/libc.a(lib_a-callocr.o)
 .debug_frame   0x0000000000000b64       0x20 /package/eda/altera/altera17.0/nios2eds/bin/gnu/H-x86_64-pc-linux-gnu/bin/../lib/gcc/nios2-elf/5.3.0/../../../../../H-x86_64-pc-linux-gnu/nios2-elf/lib/pg/libc.a(lib_a-errno.o)
 .debug_frame   0x0000000000000b84       0x28 /package/eda/altera/altera17.0/nios2eds/bin/gnu/H-x86_64-pc-linux-gnu/bin/../lib/gcc/nios2-elf/5.3.0/../../../../../H-x86_64-pc-linux-gnu/nios2-elf/lib/pg/libc.a(lib_a-exit.o)
 .debug_frame   0x0000000000000bac       0x54 /package/eda/altera/altera17.0/nios2eds/bin/gnu/H-x86_64-pc-linux-gnu/bin/../lib/gcc/nios2-elf/5.3.0/../../../../../H-x86_64-pc-linux-gnu/nios2-elf/lib/pg/libc.a(lib_a-fclose.o)
 .debug_frame   0x0000000000000c00       0x7c /package/eda/altera/altera17.0/nios2eds/bin/gnu/H-x86_64-pc-linux-gnu/bin/../lib/gcc/nios2-elf/5.3.0/../../../../../H-x86_64-pc-linux-gnu/nios2-elf/lib/pg/libc.a(lib_a-fflush.o)
 .debug_frame   0x0000000000000c7c       0x68 /package/eda/altera/altera17.0/nios2eds/bin/gnu/H-x86_64-pc-linux-gnu/bin/../lib/gcc/nios2-elf/5.3.0/../../../../../H-x86_64-pc-linux-gnu/nios2-elf/lib/pg/libc.a(lib_a-fgets.o)
 .debug_frame   0x0000000000000ce4       0x38 /package/eda/altera/altera17.0/nios2eds/bin/gnu/H-x86_64-pc-linux-gnu/bin/../lib/gcc/nios2-elf/5.3.0/../../../../../H-x86_64-pc-linux-gnu/nios2-elf/lib/pg/libc.a(lib_a-fileno.o)
 .debug_frame   0x0000000000000d1c      0x158 /package/eda/altera/altera17.0/nios2eds/bin/gnu/H-x86_64-pc-linux-gnu/bin/../lib/gcc/nios2-elf/5.3.0/../../../../../H-x86_64-pc-linux-gnu/nios2-elf/lib/pg/libc.a(lib_a-findfp.o)
 .debug_frame   0x0000000000000e74       0x48 /package/eda/altera/altera17.0/nios2eds/bin/gnu/H-x86_64-pc-linux-gnu/bin/../lib/gcc/nios2-elf/5.3.0/../../../../../H-x86_64-pc-linux-gnu/nios2-elf/lib/pg/libc.a(lib_a-fiprintf.o)
 .debug_frame   0x0000000000000ebc       0x50 /package/eda/altera/altera17.0/nios2eds/bin/gnu/H-x86_64-pc-linux-gnu/bin/../lib/gcc/nios2-elf/5.3.0/../../../../../H-x86_64-pc-linux-gnu/nios2-elf/lib/pg/libc.a(lib_a-fopen.o)
 .debug_frame   0x0000000000000f0c       0x48 /package/eda/altera/altera17.0/nios2eds/bin/gnu/H-x86_64-pc-linux-gnu/bin/../lib/gcc/nios2-elf/5.3.0/../../../../../H-x86_64-pc-linux-gnu/nios2-elf/lib/pg/libc.a(lib_a-fprintf.o)
 .debug_frame   0x0000000000000f54       0x54 /package/eda/altera/altera17.0/nios2eds/bin/gnu/H-x86_64-pc-linux-gnu/bin/../lib/gcc/nios2-elf/5.3.0/../../../../../H-x86_64-pc-linux-gnu/nios2-elf/lib/pg/libc.a(lib_a-fputc.o)
 .debug_frame   0x0000000000000fa8       0x48 /package/eda/altera/altera17.0/nios2eds/bin/gnu/H-x86_64-pc-linux-gnu/bin/../lib/gcc/nios2-elf/5.3.0/../../../../../H-x86_64-pc-linux-gnu/nios2-elf/lib/pg/libc.a(lib_a-fputs.o)
 .debug_frame   0x0000000000000ff0       0x70 /package/eda/altera/altera17.0/nios2eds/bin/gnu/H-x86_64-pc-linux-gnu/bin/../lib/gcc/nios2-elf/5.3.0/../../../../../H-x86_64-pc-linux-gnu/nios2-elf/lib/pg/libc.a(lib_a-fread.o)
 .debug_frame   0x0000000000001060       0x70 /package/eda/altera/altera17.0/nios2eds/bin/gnu/H-x86_64-pc-linux-gnu/bin/../lib/gcc/nios2-elf/5.3.0/../../../../../H-x86_64-pc-linux-gnu/nios2-elf/lib/pg/libc.a(lib_a-freer.o)
 .debug_frame   0x00000000000010d0       0x30 /package/eda/altera/altera17.0/nios2eds/bin/gnu/H-x86_64-pc-linux-gnu/bin/../lib/gcc/nios2-elf/5.3.0/../../../../../H-x86_64-pc-linux-gnu/nios2-elf/lib/pg/libc.a(lib_a-fseek.o)
 .debug_frame   0x0000000000001100       0x60 /package/eda/altera/altera17.0/nios2eds/bin/gnu/H-x86_64-pc-linux-gnu/bin/../lib/gcc/nios2-elf/5.3.0/../../../../../H-x86_64-pc-linux-gnu/nios2-elf/lib/pg/libc.a(lib_a-fseeko.o)
 .debug_frame   0x0000000000001160       0x38 /package/eda/altera/altera17.0/nios2eds/bin/gnu/H-x86_64-pc-linux-gnu/bin/../lib/gcc/nios2-elf/5.3.0/../../../../../H-x86_64-pc-linux-gnu/nios2-elf/lib/pg/libc.a(lib_a-fstatr.o)
 .debug_frame   0x0000000000001198       0x78 /package/eda/altera/altera17.0/nios2eds/bin/gnu/H-x86_64-pc-linux-gnu/bin/../lib/gcc/nios2-elf/5.3.0/../../../../../H-x86_64-pc-linux-gnu/nios2-elf/lib/pg/libc.a(lib_a-fvwrite.o)
 .debug_frame   0x0000000000001210       0x90 /package/eda/altera/altera17.0/nios2eds/bin/gnu/H-x86_64-pc-linux-gnu/bin/../lib/gcc/nios2-elf/5.3.0/../../../../../H-x86_64-pc-linux-gnu/nios2-elf/lib/pg/libc.a(lib_a-fwalk.o)
 .debug_frame   0x00000000000012a0       0x5c /package/eda/altera/altera17.0/nios2eds/bin/gnu/H-x86_64-pc-linux-gnu/bin/../lib/gcc/nios2-elf/5.3.0/../../../../../H-x86_64-pc-linux-gnu/nios2-elf/lib/pg/libc.a(lib_a-fwrite.o)
 .debug_frame   0x00000000000012fc       0x4c /package/eda/altera/altera17.0/nios2eds/bin/gnu/H-x86_64-pc-linux-gnu/bin/../lib/gcc/nios2-elf/5.3.0/../../../../../H-x86_64-pc-linux-gnu/nios2-elf/lib/pg/libc.a(lib_a-makebuf.o)
 .debug_frame   0x0000000000001348       0x30 /package/eda/altera/altera17.0/nios2eds/bin/gnu/H-x86_64-pc-linux-gnu/bin/../lib/gcc/nios2-elf/5.3.0/../../../../../H-x86_64-pc-linux-gnu/nios2-elf/lib/pg/libc.a(lib_a-malloc.o)
 .debug_frame   0x0000000000001378       0x54 /package/eda/altera/altera17.0/nios2eds/bin/gnu/H-x86_64-pc-linux-gnu/bin/../lib/gcc/nios2-elf/5.3.0/../../../../../H-x86_64-pc-linux-gnu/nios2-elf/lib/pg/libc.a(lib_a-mallocr.o)
 .debug_frame   0x00000000000013cc       0x20 /package/eda/altera/altera17.0/nios2eds/bin/gnu/H-x86_64-pc-linux-gnu/bin/../lib/gcc/nios2-elf/5.3.0/../../../../../H-x86_64-pc-linux-gnu/nios2-elf/lib/pg/libc.a(lib_a-memchr.o)
 .debug_frame   0x00000000000013ec       0x38 /package/eda/altera/altera17.0/nios2eds/bin/gnu/H-x86_64-pc-linux-gnu/bin/../lib/gcc/nios2-elf/5.3.0/../../../../../H-x86_64-pc-linux-gnu/nios2-elf/lib/pg/libc.a(lib_a-memcpy.o)
 .debug_frame   0x0000000000001424       0x20 /package/eda/altera/altera17.0/nios2eds/bin/gnu/H-x86_64-pc-linux-gnu/bin/../lib/gcc/nios2-elf/5.3.0/../../../../../H-x86_64-pc-linux-gnu/nios2-elf/lib/pg/libc.a(lib_a-memmove.o)
 .debug_frame   0x0000000000001444       0x20 /package/eda/altera/altera17.0/nios2eds/bin/gnu/H-x86_64-pc-linux-gnu/bin/../lib/gcc/nios2-elf/5.3.0/../../../../../H-x86_64-pc-linux-gnu/nios2-elf/lib/pg/libc.a(lib_a-memset.o)
 .debug_frame   0x0000000000001464       0x38 /package/eda/altera/altera17.0/nios2eds/bin/gnu/H-x86_64-pc-linux-gnu/bin/../lib/gcc/nios2-elf/5.3.0/../../../../../H-x86_64-pc-linux-gnu/nios2-elf/lib/pg/libc.a(lib_a-openr.o)
 .debug_frame   0x000000000000149c       0x48 /package/eda/altera/altera17.0/nios2eds/bin/gnu/H-x86_64-pc-linux-gnu/bin/../lib/gcc/nios2-elf/5.3.0/../../../../../H-x86_64-pc-linux-gnu/nios2-elf/lib/pg/libc.a(lib_a-printf.o)
 .debug_frame   0x00000000000014e4       0x70 /package/eda/altera/altera17.0/nios2eds/bin/gnu/H-x86_64-pc-linux-gnu/bin/../lib/gcc/nios2-elf/5.3.0/../../../../../H-x86_64-pc-linux-gnu/nios2-elf/lib/pg/libc.a(lib_a-putc.o)
 .debug_frame   0x0000000000001554       0x20 /package/eda/altera/altera17.0/nios2eds/bin/gnu/H-x86_64-pc-linux-gnu/bin/../lib/gcc/nios2-elf/5.3.0/../../../../../H-x86_64-pc-linux-gnu/nios2-elf/lib/pg/libc.a(lib_a-realloc.o)
 .debug_frame   0x0000000000001574       0x70 /package/eda/altera/altera17.0/nios2eds/bin/gnu/H-x86_64-pc-linux-gnu/bin/../lib/gcc/nios2-elf/5.3.0/../../../../../H-x86_64-pc-linux-gnu/nios2-elf/lib/pg/libc.a(lib_a-reallocr.o)
 .debug_frame   0x00000000000015e4       0x4c /package/eda/altera/altera17.0/nios2eds/bin/gnu/H-x86_64-pc-linux-gnu/bin/../lib/gcc/nios2-elf/5.3.0/../../../../../H-x86_64-pc-linux-gnu/nios2-elf/lib/pg/libc.a(lib_a-refill.o)
 .debug_frame   0x0000000000001630       0x38 /package/eda/altera/altera17.0/nios2eds/bin/gnu/H-x86_64-pc-linux-gnu/bin/../lib/gcc/nios2-elf/5.3.0/../../../../../H-x86_64-pc-linux-gnu/nios2-elf/lib/pg/libc.a(lib_a-sbrkr.o)
 .debug_frame   0x0000000000001668      0x110 /package/eda/altera/altera17.0/nios2eds/bin/gnu/H-x86_64-pc-linux-gnu/bin/../lib/gcc/nios2-elf/5.3.0/../../../../../H-x86_64-pc-linux-gnu/nios2-elf/lib/pg/libc.a(lib_a-signal.o)
 .debug_frame   0x0000000000001778       0x48 /package/eda/altera/altera17.0/nios2eds/bin/gnu/H-x86_64-pc-linux-gnu/bin/../lib/gcc/nios2-elf/5.3.0/../../../../../H-x86_64-pc-linux-gnu/nios2-elf/lib/pg/libc.a(lib_a-signalr.o)
 .debug_frame   0x00000000000017c0       0xb4 /package/eda/altera/altera17.0/nios2eds/bin/gnu/H-x86_64-pc-linux-gnu/bin/../lib/gcc/nios2-elf/5.3.0/../../../../../H-x86_64-pc-linux-gnu/nios2-elf/lib/pg/libc.a(lib_a-stdio.o)
 .debug_frame   0x0000000000001874       0x20 /package/eda/altera/altera17.0/nios2eds/bin/gnu/H-x86_64-pc-linux-gnu/bin/../lib/gcc/nios2-elf/5.3.0/../../../../../H-x86_64-pc-linux-gnu/nios2-elf/lib/pg/libc.a(lib_a-strcmp.o)
 .debug_frame   0x0000000000001894       0x20 /package/eda/altera/altera17.0/nios2eds/bin/gnu/H-x86_64-pc-linux-gnu/bin/../lib/gcc/nios2-elf/5.3.0/../../../../../H-x86_64-pc-linux-gnu/nios2-elf/lib/pg/libc.a(lib_a-strdup.o)
 .debug_frame   0x00000000000018b4       0x38 /package/eda/altera/altera17.0/nios2eds/bin/gnu/H-x86_64-pc-linux-gnu/bin/../lib/gcc/nios2-elf/5.3.0/../../../../../H-x86_64-pc-linux-gnu/nios2-elf/lib/pg/libc.a(lib_a-strdup_r.o)
 .debug_frame   0x00000000000018ec       0x20 /package/eda/altera/altera17.0/nios2eds/bin/gnu/H-x86_64-pc-linux-gnu/bin/../lib/gcc/nios2-elf/5.3.0/../../../../../H-x86_64-pc-linux-gnu/nios2-elf/lib/pg/libc.a(lib_a-strlen.o)
 .debug_frame   0x000000000000190c       0x20 /package/eda/altera/altera17.0/nios2eds/bin/gnu/H-x86_64-pc-linux-gnu/bin/../lib/gcc/nios2-elf/5.3.0/../../../../../H-x86_64-pc-linux-gnu/nios2-elf/lib/pg/libc.a(lib_a-strncmp.o)
 .debug_frame   0x000000000000192c       0xb8 /package/eda/altera/altera17.0/nios2eds/bin/gnu/H-x86_64-pc-linux-gnu/bin/../lib/gcc/nios2-elf/5.3.0/../../../../../H-x86_64-pc-linux-gnu/nios2-elf/lib/pg/libc.a(lib_a-strtod.o)
 .debug_frame   0x00000000000019e4       0x2c /package/eda/altera/altera17.0/nios2eds/bin/gnu/H-x86_64-pc-linux-gnu/bin/../lib/gcc/nios2-elf/5.3.0/../../../../../H-x86_64-pc-linux-gnu/nios2-elf/lib/pg/libc.a(lib_a-vfiprintfr_1.o)
 .debug_frame   0x0000000000001a10       0x94 /package/eda/altera/altera17.0/nios2eds/bin/gnu/H-x86_64-pc-linux-gnu/bin/../lib/gcc/nios2-elf/5.3.0/../../../../../H-x86_64-pc-linux-gnu/nios2-elf/lib/pg/libc.a(lib_a-vfprintf.o)
 .debug_frame   0x0000000000001aa4       0x50 /package/eda/altera/altera17.0/nios2eds/bin/gnu/H-x86_64-pc-linux-gnu/bin/../lib/gcc/nios2-elf/5.3.0/../../../../../H-x86_64-pc-linux-gnu/nios2-elf/lib/pg/libc.a(lib_a-wbuf.o)
 .debug_frame   0x0000000000001af4       0x38 /package/eda/altera/altera17.0/nios2eds/bin/gnu/H-x86_64-pc-linux-gnu/bin/../lib/gcc/nios2-elf/5.3.0/../../../../../H-x86_64-pc-linux-gnu/nios2-elf/lib/pg/libc.a(lib_a-writer.o)
 .debug_frame   0x0000000000001b2c       0x38 /package/eda/altera/altera17.0/nios2eds/bin/gnu/H-x86_64-pc-linux-gnu/bin/../lib/gcc/nios2-elf/5.3.0/../../../../../H-x86_64-pc-linux-gnu/nios2-elf/lib/pg/libc.a(lib_a-wsetup.o)
 .debug_frame   0x0000000000001b64       0x38 /package/eda/altera/altera17.0/nios2eds/bin/gnu/H-x86_64-pc-linux-gnu/bin/../lib/gcc/nios2-elf/5.3.0/../../../../../H-x86_64-pc-linux-gnu/nios2-elf/lib/pg/libc.a(closer.o)
 .debug_frame   0x0000000000001b9c       0x54 /package/eda/altera/altera17.0/nios2eds/bin/gnu/H-x86_64-pc-linux-gnu/bin/../lib/gcc/nios2-elf/5.3.0/../../../../../H-x86_64-pc-linux-gnu/nios2-elf/lib/pg/libc.a(lib_a-__call_atexit.o)
 .debug_frame   0x0000000000001bf0       0x94 /package/eda/altera/altera17.0/nios2eds/bin/gnu/H-x86_64-pc-linux-gnu/bin/../lib/gcc/nios2-elf/5.3.0/../../../../../H-x86_64-pc-linux-gnu/nios2-elf/lib/pg/libc.a(lib_a-dtoa.o)
 .debug_frame   0x0000000000001c84       0x20 /package/eda/altera/altera17.0/nios2eds/bin/gnu/H-x86_64-pc-linux-gnu/bin/../lib/gcc/nios2-elf/5.3.0/../../../../../H-x86_64-pc-linux-gnu/nios2-elf/lib/pg/libc.a(lib_a-flags.o)
 .debug_frame   0x0000000000001ca4       0x64 /package/eda/altera/altera17.0/nios2eds/bin/gnu/H-x86_64-pc-linux-gnu/bin/../lib/gcc/nios2-elf/5.3.0/../../../../../H-x86_64-pc-linux-gnu/nios2-elf/lib/pg/libc.a(lib_a-gdtoa-gethex.o)
 .debug_frame   0x0000000000001d08       0x48 /package/eda/altera/altera17.0/nios2eds/bin/gnu/H-x86_64-pc-linux-gnu/bin/../lib/gcc/nios2-elf/5.3.0/../../../../../H-x86_64-pc-linux-gnu/nios2-elf/lib/pg/libc.a(lib_a-gdtoa-hexnan.o)
 .debug_frame   0x0000000000001d50       0x38 /package/eda/altera/altera17.0/nios2eds/bin/gnu/H-x86_64-pc-linux-gnu/bin/../lib/gcc/nios2-elf/5.3.0/../../../../../H-x86_64-pc-linux-gnu/nios2-elf/lib/pg/libc.a(lib_a-isattyr.o)
 .debug_frame   0x0000000000001d88       0xa8 /package/eda/altera/altera17.0/nios2eds/bin/gnu/H-x86_64-pc-linux-gnu/bin/../lib/gcc/nios2-elf/5.3.0/../../../../../H-x86_64-pc-linux-gnu/nios2-elf/lib/pg/libc.a(lib_a-locale.o)
 .debug_frame   0x0000000000001e30       0x38 /package/eda/altera/altera17.0/nios2eds/bin/gnu/H-x86_64-pc-linux-gnu/bin/../lib/gcc/nios2-elf/5.3.0/../../../../../H-x86_64-pc-linux-gnu/nios2-elf/lib/pg/libc.a(lib_a-lseekr.o)
 .debug_frame   0x0000000000001e68      0x2d0 /package/eda/altera/altera17.0/nios2eds/bin/gnu/H-x86_64-pc-linux-gnu/bin/../lib/gcc/nios2-elf/5.3.0/../../../../../H-x86_64-pc-linux-gnu/nios2-elf/lib/pg/libc.a(lib_a-mprec.o)
 .debug_frame   0x0000000000002138       0x38 /package/eda/altera/altera17.0/nios2eds/bin/gnu/H-x86_64-pc-linux-gnu/bin/../lib/gcc/nios2-elf/5.3.0/../../../../../H-x86_64-pc-linux-gnu/nios2-elf/lib/pg/libc.a(lib_a-readr.o)
 .debug_frame   0x0000000000002170       0xe8 /package/eda/altera/altera17.0/nios2eds/bin/gnu/H-x86_64-pc-linux-gnu/bin/../lib/gcc/nios2-elf/5.3.0/../../../../../H-x86_64-pc-linux-gnu/nios2-elf/lib/pg/libc.a(lib_a-vfiprintf.o)
 .debug_frame   0x0000000000002258       0x80 /package/eda/altera/altera17.0/nios2eds/bin/gnu/H-x86_64-pc-linux-gnu/bin/../lib/gcc/nios2-elf/5.3.0/../../../../../H-x86_64-pc-linux-gnu/nios2-elf/lib/pg/libc.a(lib_a-fputwc.o)
 .debug_frame   0x00000000000022d8       0x70 /package/eda/altera/altera17.0/nios2eds/bin/gnu/H-x86_64-pc-linux-gnu/bin/../lib/gcc/nios2-elf/5.3.0/../../../../../H-x86_64-pc-linux-gnu/nios2-elf/lib/pg/libc.a(lib_a-wcrtomb.o)
 .debug_frame   0x0000000000002348       0x44 /package/eda/altera/altera17.0/nios2eds/bin/gnu/H-x86_64-pc-linux-gnu/bin/../lib/gcc/nios2-elf/5.3.0/../../../../../H-x86_64-pc-linux-gnu/nios2-elf/lib/pg/libc.a(lib_a-wctomb_r.o)
 .debug_frame   0x000000000000238c       0x38 /package/eda/altera/altera17.0/nios2eds/bin/gnu/H-x86_64-pc-linux-gnu/bin/../lib/gcc/nios2-elf/5.3.0/pg/libgcc.a(_fixunsdfsi.o)
 .debug_frame   0x00000000000023c4       0x54 /package/eda/altera/altera17.0/nios2eds/bin/gnu/H-x86_64-pc-linux-gnu/bin/../lib/gcc/nios2-elf/5.3.0/pg/libgcc.a(_udivdi3.o)
 .debug_frame   0x0000000000002418       0x54 /package/eda/altera/altera17.0/nios2eds/bin/gnu/H-x86_64-pc-linux-gnu/bin/../lib/gcc/nios2-elf/5.3.0/pg/libgcc.a(_umoddi3.o)
 .debug_frame   0x000000000000246c       0x34 /package/eda/altera/altera17.0/nios2eds/bin/gnu/H-x86_64-pc-linux-gnu/bin/../lib/gcc/nios2-elf/5.3.0/pg/libgcc.a(floatunsidf.o)
 .debug_frame   0x00000000000024a0       0x40 ../MNIST_CNN_Software_bsp//libhal_bsp.a(alt_mcount.o)
 .debug_frame   0x00000000000024e0       0x20 /package/eda/altera/altera17.0/nios2eds/bin/gnu/H-x86_64-pc-linux-gnu/bin/../lib/gcc/nios2-elf/5.3.0/../../../../../H-x86_64-pc-linux-gnu/nios2-elf/lib/pg/libc.a(lib_a-atexit.o)
 .debug_frame   0x0000000000002500       0x20 /package/eda/altera/altera17.0/nios2eds/bin/gnu/H-x86_64-pc-linux-gnu/bin/../lib/gcc/nios2-elf/5.3.0/../../../../../H-x86_64-pc-linux-gnu/nios2-elf/lib/pg/libc.a(lib_a-memcmp.o)
 .debug_frame   0x0000000000002520       0x38 /package/eda/altera/altera17.0/nios2eds/bin/gnu/H-x86_64-pc-linux-gnu/bin/../lib/gcc/nios2-elf/5.3.0/../../../../../H-x86_64-pc-linux-gnu/nios2-elf/lib/pg/libc.a(lib_a-__atexit.o)

.debug_str      0x0000000000000000     0x3f87
 *(.debug_str)
 .debug_str     0x0000000000000000      0x1c3 /package/eda/altera/altera17.0/nios2eds/bin/gnu/H-x86_64-pc-linux-gnu/bin/../lib/gcc/nios2-elf/5.3.0/../../../../../H-x86_64-pc-linux-gnu/nios2-elf/lib/pg/libm.a(lib_a-sf_cos.o)
                                        0x20e (size before relaxing)
 .debug_str     0x00000000000001c3       0x3b /package/eda/altera/altera17.0/nios2eds/bin/gnu/H-x86_64-pc-linux-gnu/bin/../lib/gcc/nios2-elf/5.3.0/../../../../../H-x86_64-pc-linux-gnu/nios2-elf/lib/pg/libm.a(lib_a-sf_sin.o)
                                        0x20e (size before relaxing)
 .debug_str     0x00000000000001fe       0xe1 /package/eda/altera/altera17.0/nios2eds/bin/gnu/H-x86_64-pc-linux-gnu/bin/../lib/gcc/nios2-elf/5.3.0/../../../../../H-x86_64-pc-linux-gnu/nios2-elf/lib/pg/libm.a(lib_a-w_log.o)
                                        0x27a (size before relaxing)
 .debug_str     0x00000000000002df       0x4a /package/eda/altera/altera17.0/nios2eds/bin/gnu/H-x86_64-pc-linux-gnu/bin/../lib/gcc/nios2-elf/5.3.0/../../../../../H-x86_64-pc-linux-gnu/nios2-elf/lib/pg/libm.a(lib_a-w_sqrt.o)
                                        0x281 (size before relaxing)
 .debug_str     0x0000000000000329       0x6a /package/eda/altera/altera17.0/nios2eds/bin/gnu/H-x86_64-pc-linux-gnu/bin/../lib/gcc/nios2-elf/5.3.0/../../../../../H-x86_64-pc-linux-gnu/nios2-elf/lib/pg/libm.a(lib_a-wf_exp.o)
                                        0x293 (size before relaxing)
 .debug_str     0x0000000000000393       0x58 /package/eda/altera/altera17.0/nios2eds/bin/gnu/H-x86_64-pc-linux-gnu/bin/../lib/gcc/nios2-elf/5.3.0/../../../../../H-x86_64-pc-linux-gnu/nios2-elf/lib/pg/libm.a(lib_a-wf_log.o)
                                        0x281 (size before relaxing)
 .debug_str     0x00000000000003eb       0x4c /package/eda/altera/altera17.0/nios2eds/bin/gnu/H-x86_64-pc-linux-gnu/bin/../lib/gcc/nios2-elf/5.3.0/../../../../../H-x86_64-pc-linux-gnu/nios2-elf/lib/pg/libm.a(lib_a-wf_sqrt.o)
                                        0x284 (size before relaxing)
 .debug_str     0x0000000000000437       0x80 /package/eda/altera/altera17.0/nios2eds/bin/gnu/H-x86_64-pc-linux-gnu/bin/../lib/gcc/nios2-elf/5.3.0/../../../../../H-x86_64-pc-linux-gnu/nios2-elf/lib/pg/libm.a(lib_a-e_log.o)
                                        0x237 (size before relaxing)
 .debug_str     0x00000000000004b7       0x45 /package/eda/altera/altera17.0/nios2eds/bin/gnu/H-x86_64-pc-linux-gnu/bin/../lib/gcc/nios2-elf/5.3.0/../../../../../H-x86_64-pc-linux-gnu/nios2-elf/lib/pg/libm.a(lib_a-e_sqrt.o)
                                        0x22a (size before relaxing)
 .debug_str     0x00000000000004fc       0x85 /package/eda/altera/altera17.0/nios2eds/bin/gnu/H-x86_64-pc-linux-gnu/bin/../lib/gcc/nios2-elf/5.3.0/../../../../../H-x86_64-pc-linux-gnu/nios2-elf/lib/pg/libm.a(lib_a-ef_exp.o)
                                        0x243 (size before relaxing)
 .debug_str     0x0000000000000581       0x41 /package/eda/altera/altera17.0/nios2eds/bin/gnu/H-x86_64-pc-linux-gnu/bin/../lib/gcc/nios2-elf/5.3.0/../../../../../H-x86_64-pc-linux-gnu/nios2-elf/lib/pg/libm.a(lib_a-ef_log.o)
                                        0x23c (size before relaxing)
 .debug_str     0x00000000000005c2       0xb2 /package/eda/altera/altera17.0/nios2eds/bin/gnu/H-x86_64-pc-linux-gnu/bin/../lib/gcc/nios2-elf/5.3.0/../../../../../H-x86_64-pc-linux-gnu/nios2-elf/lib/pg/libm.a(lib_a-ef_rem_pio2.o)
                                        0x29a (size before relaxing)
 .debug_str     0x0000000000000674       0x3c /package/eda/altera/altera17.0/nios2eds/bin/gnu/H-x86_64-pc-linux-gnu/bin/../lib/gcc/nios2-elf/5.3.0/../../../../../H-x86_64-pc-linux-gnu/nios2-elf/lib/pg/libm.a(lib_a-ef_sqrt.o)
                                        0x225 (size before relaxing)
 .debug_str     0x00000000000006b0       0x3b /package/eda/altera/altera17.0/nios2eds/bin/gnu/H-x86_64-pc-linux-gnu/bin/../lib/gcc/nios2-elf/5.3.0/../../../../../H-x86_64-pc-linux-gnu/nios2-elf/lib/pg/libm.a(lib_a-kf_cos.o)
                                        0x218 (size before relaxing)
 .debug_str     0x00000000000006eb       0x78 /package/eda/altera/altera17.0/nios2eds/bin/gnu/H-x86_64-pc-linux-gnu/bin/../lib/gcc/nios2-elf/5.3.0/../../../../../H-x86_64-pc-linux-gnu/nios2-elf/lib/pg/libm.a(lib_a-kf_rem_pio2.o)
                                        0x238 (size before relaxing)
 .debug_str     0x0000000000000763       0x3b /package/eda/altera/altera17.0/nios2eds/bin/gnu/H-x86_64-pc-linux-gnu/bin/../lib/gcc/nios2-elf/5.3.0/../../../../../H-x86_64-pc-linux-gnu/nios2-elf/lib/pg/libm.a(lib_a-kf_sin.o)
                                        0x1ec (size before relaxing)
 .debug_str     0x000000000000079e       0xcb /package/eda/altera/altera17.0/nios2eds/bin/gnu/H-x86_64-pc-linux-gnu/bin/../lib/gcc/nios2-elf/5.3.0/../../../../../H-x86_64-pc-linux-gnu/nios2-elf/lib/pg/libm.a(lib_a-s_fpclassify.o)
                                        0x1f2 (size before relaxing)
 .debug_str     0x0000000000000869       0x40 /package/eda/altera/altera17.0/nios2eds/bin/gnu/H-x86_64-pc-linux-gnu/bin/../lib/gcc/nios2-elf/5.3.0/../../../../../H-x86_64-pc-linux-gnu/nios2-elf/lib/pg/libm.a(lib_a-s_lib_ver.o)
                                        0x231 (size before relaxing)
 .debug_str     0x00000000000008a9       0x40 /package/eda/altera/altera17.0/nios2eds/bin/gnu/H-x86_64-pc-linux-gnu/bin/../lib/gcc/nios2-elf/5.3.0/../../../../../H-x86_64-pc-linux-gnu/nios2-elf/lib/pg/libm.a(lib_a-s_matherr.o)
                                        0x203 (size before relaxing)
 .debug_str     0x00000000000008e9       0x3c /package/eda/altera/altera17.0/nios2eds/bin/gnu/H-x86_64-pc-linux-gnu/bin/../lib/gcc/nios2-elf/5.3.0/../../../../../H-x86_64-pc-linux-gnu/nios2-elf/lib/pg/libm.a(lib_a-s_nan.o)
                                        0x1d9 (size before relaxing)
 .debug_str     0x0000000000000925       0x3c /package/eda/altera/altera17.0/nios2eds/bin/gnu/H-x86_64-pc-linux-gnu/bin/../lib/gcc/nios2-elf/5.3.0/../../../../../H-x86_64-pc-linux-gnu/nios2-elf/lib/pg/libm.a(lib_a-sf_fabs.o)
                                        0x207 (size before relaxing)
 .debug_str     0x0000000000000961       0x40 /package/eda/altera/altera17.0/nios2eds/bin/gnu/H-x86_64-pc-linux-gnu/bin/../lib/gcc/nios2-elf/5.3.0/../../../../../H-x86_64-pc-linux-gnu/nios2-elf/lib/pg/libm.a(lib_a-sf_finite.o)
                                        0x1e8 (size before relaxing)
 .debug_str     0x00000000000009a1       0x3d /package/eda/altera/altera17.0/nios2eds/bin/gnu/H-x86_64-pc-linux-gnu/bin/../lib/gcc/nios2-elf/5.3.0/../../../../../H-x86_64-pc-linux-gnu/nios2-elf/lib/pg/libm.a(lib_a-sf_floor.o)
                                        0x218 (size before relaxing)
 .debug_str     0x00000000000009de       0x44 /package/eda/altera/altera17.0/nios2eds/bin/gnu/H-x86_64-pc-linux-gnu/bin/../lib/gcc/nios2-elf/5.3.0/../../../../../H-x86_64-pc-linux-gnu/nios2-elf/lib/pg/libm.a(lib_a-sf_fpclassify.o)
                                        0x1f3 (size before relaxing)
 .debug_str     0x0000000000000a22       0x51 /package/eda/altera/altera17.0/nios2eds/bin/gnu/H-x86_64-pc-linux-gnu/bin/../lib/gcc/nios2-elf/5.3.0/../../../../../H-x86_64-pc-linux-gnu/nios2-elf/lib/pg/libm.a(lib_a-sf_scalbn.o)
                                        0x23f (size before relaxing)
 .debug_str     0x0000000000000a73       0x42 /package/eda/altera/altera17.0/nios2eds/bin/gnu/H-x86_64-pc-linux-gnu/bin/../lib/gcc/nios2-elf/5.3.0/../../../../../H-x86_64-pc-linux-gnu/nios2-elf/lib/pg/libm.a(lib_a-sf_copysign.o)
                                        0x213 (size before relaxing)
 .debug_str     0x0000000000000ab5      0x180 /package/eda/altera/altera17.0/nios2eds/bin/gnu/H-x86_64-pc-linux-gnu/bin/../lib/gcc/nios2-elf/5.3.0/pg/libgcc.a(_muldi3.o)
                                        0x215 (size before relaxing)
 .debug_str     0x0000000000000c35       0x14 /package/eda/altera/altera17.0/nios2eds/bin/gnu/H-x86_64-pc-linux-gnu/bin/../lib/gcc/nios2-elf/5.3.0/pg/libgcc.a(_fixunssfsi.o)
                                        0x1db (size before relaxing)
 .debug_str     0x0000000000000c49       0x7f /package/eda/altera/altera17.0/nios2eds/bin/gnu/H-x86_64-pc-linux-gnu/bin/../lib/gcc/nios2-elf/5.3.0/pg/libgcc.a(lib2-divmod.o)
                                        0x1c2 (size before relaxing)
 .debug_str     0x0000000000000cc8       0x53 /package/eda/altera/altera17.0/nios2eds/bin/gnu/H-x86_64-pc-linux-gnu/bin/../lib/gcc/nios2-elf/5.3.0/pg/libgcc.a(lib2-divtable.o)
                                        0x190 (size before relaxing)
 .debug_str     0x0000000000000d1b       0xed /package/eda/altera/altera17.0/nios2eds/bin/gnu/H-x86_64-pc-linux-gnu/bin/../lib/gcc/nios2-elf/5.3.0/pg/libgcc.a(addsf3.o)
                                        0x273 (size before relaxing)
 .debug_str     0x0000000000000e08       0xd1 /package/eda/altera/altera17.0/nios2eds/bin/gnu/H-x86_64-pc-linux-gnu/bin/../lib/gcc/nios2-elf/5.3.0/pg/libgcc.a(divsf3.o)
                                        0x290 (size before relaxing)
 .debug_str     0x0000000000000ed9       0x37 /package/eda/altera/altera17.0/nios2eds/bin/gnu/H-x86_64-pc-linux-gnu/bin/../lib/gcc/nios2-elf/5.3.0/pg/libgcc.a(eqsf2.o)
                                        0x1e3 (size before relaxing)
 .debug_str     0x0000000000000f10       0x5b /package/eda/altera/altera17.0/nios2eds/bin/gnu/H-x86_64-pc-linux-gnu/bin/../lib/gcc/nios2-elf/5.3.0/pg/libgcc.a(gesf2.o)
                                        0x207 (size before relaxing)
 .debug_str     0x0000000000000f6b       0x37 /package/eda/altera/altera17.0/nios2eds/bin/gnu/H-x86_64-pc-linux-gnu/bin/../lib/gcc/nios2-elf/5.3.0/pg/libgcc.a(lesf2.o)
                                        0x207 (size before relaxing)
 .debug_str     0x0000000000000fa2       0x73 /package/eda/altera/altera17.0/nios2eds/bin/gnu/H-x86_64-pc-linux-gnu/bin/../lib/gcc/nios2-elf/5.3.0/pg/libgcc.a(mulsf3.o)
                                        0x290 (size before relaxing)
 .debug_str     0x0000000000001015       0x39 /package/eda/altera/altera17.0/nios2eds/bin/gnu/H-x86_64-pc-linux-gnu/bin/../lib/gcc/nios2-elf/5.3.0/pg/libgcc.a(subsf3.o)
                                        0x273 (size before relaxing)
 .debug_str     0x000000000000104e       0x4e /package/eda/altera/altera17.0/nios2eds/bin/gnu/H-x86_64-pc-linux-gnu/bin/../lib/gcc/nios2-elf/5.3.0/pg/libgcc.a(fixsfsi.o)
                                        0x209 (size before relaxing)
 .debug_str     0x000000000000109c       0x6c /package/eda/altera/altera17.0/nios2eds/bin/gnu/H-x86_64-pc-linux-gnu/bin/../lib/gcc/nios2-elf/5.3.0/pg/libgcc.a(floatsisf.o)
                                        0x23e (size before relaxing)
 .debug_str     0x0000000000001108       0x9e /package/eda/altera/altera17.0/nios2eds/bin/gnu/H-x86_64-pc-linux-gnu/bin/../lib/gcc/nios2-elf/5.3.0/pg/libgcc.a(adddf3.o)
                                        0x299 (size before relaxing)
 .debug_str     0x00000000000011a6      0x106 /package/eda/altera/altera17.0/nios2eds/bin/gnu/H-x86_64-pc-linux-gnu/bin/../lib/gcc/nios2-elf/5.3.0/pg/libgcc.a(divdf3.o)
                                        0x351 (size before relaxing)
 .debug_str     0x00000000000012ac       0x37 /package/eda/altera/altera17.0/nios2eds/bin/gnu/H-x86_64-pc-linux-gnu/bin/../lib/gcc/nios2-elf/5.3.0/pg/libgcc.a(eqdf2.o)
                                        0x1ff (size before relaxing)
 .debug_str     0x00000000000012e3       0x37 /package/eda/altera/altera17.0/nios2eds/bin/gnu/H-x86_64-pc-linux-gnu/bin/../lib/gcc/nios2-elf/5.3.0/pg/libgcc.a(gedf2.o)
                                        0x223 (size before relaxing)
 .debug_str     0x000000000000131a       0x37 /package/eda/altera/altera17.0/nios2eds/bin/gnu/H-x86_64-pc-linux-gnu/bin/../lib/gcc/nios2-elf/5.3.0/pg/libgcc.a(ledf2.o)
                                        0x223 (size before relaxing)
 .debug_str     0x0000000000001351      0x15e /package/eda/altera/altera17.0/nios2eds/bin/gnu/H-x86_64-pc-linux-gnu/bin/../lib/gcc/nios2-elf/5.3.0/pg/libgcc.a(muldf3.o)
                                        0x3b2 (size before relaxing)
 .debug_str     0x00000000000014af       0x39 /package/eda/altera/altera17.0/nios2eds/bin/gnu/H-x86_64-pc-linux-gnu/bin/../lib/gcc/nios2-elf/5.3.0/pg/libgcc.a(subdf3.o)
                                        0x299 (size before relaxing)
 .debug_str     0x00000000000014e8       0x3b /package/eda/altera/altera17.0/nios2eds/bin/gnu/H-x86_64-pc-linux-gnu/bin/../lib/gcc/nios2-elf/5.3.0/pg/libgcc.a(fixdfsi.o)
                                        0x21b (size before relaxing)
 .debug_str     0x0000000000001523       0x3f /package/eda/altera/altera17.0/nios2eds/bin/gnu/H-x86_64-pc-linux-gnu/bin/../lib/gcc/nios2-elf/5.3.0/pg/libgcc.a(floatsidf.o)
                                        0x232 (size before relaxing)
 .debug_str     0x0000000000001562       0x50 /package/eda/altera/altera17.0/nios2eds/bin/gnu/H-x86_64-pc-linux-gnu/bin/../lib/gcc/nios2-elf/5.3.0/pg/libgcc.a(extendsfdf2.o)
                                        0x23f (size before relaxing)
 .debug_str     0x00000000000015b2       0x41 /package/eda/altera/altera17.0/nios2eds/bin/gnu/H-x86_64-pc-linux-gnu/bin/../lib/gcc/nios2-elf/5.3.0/pg/libgcc.a(truncdfsf2.o)
                                        0x249 (size before relaxing)
 .debug_str     0x00000000000015f3       0x18 /package/eda/altera/altera17.0/nios2eds/bin/gnu/H-x86_64-pc-linux-gnu/bin/../lib/gcc/nios2-elf/5.3.0/pg/libgcc.a(_clzsi2.o)
                                        0x1f0 (size before relaxing)
 .debug_str     0x000000000000160b      0x1d3 /package/eda/altera/altera17.0/nios2eds/bin/gnu/H-x86_64-pc-linux-gnu/bin/../lib/gcc/nios2-elf/5.3.0/pg/libgcc.a(_clz.o)
 .debug_str     0x000000000000160b       0xd6 /package/eda/altera/altera17.0/nios2eds/bin/gnu/H-x86_64-pc-linux-gnu/bin/../lib/gcc/nios2-elf/5.3.0/../../../../../H-x86_64-pc-linux-gnu/nios2-elf/lib/pg/libc.a(lib_a-abort.o)
                                        0x1d7 (size before relaxing)
 .debug_str     0x00000000000016e1      0x3d3 /package/eda/altera/altera17.0/nios2eds/bin/gnu/H-x86_64-pc-linux-gnu/bin/../lib/gcc/nios2-elf/5.3.0/../../../../../H-x86_64-pc-linux-gnu/nios2-elf/lib/pg/libc.a(lib_a-assert.o)
                                        0x5c8 (size before relaxing)
 .debug_str     0x0000000000001ab4       0x4e /package/eda/altera/altera17.0/nios2eds/bin/gnu/H-x86_64-pc-linux-gnu/bin/../lib/gcc/nios2-elf/5.3.0/../../../../../H-x86_64-pc-linux-gnu/nios2-elf/lib/pg/libc.a(lib_a-calloc.o)
                                        0x5a5 (size before relaxing)
 .debug_str     0x0000000000001b02       0x89 /package/eda/altera/altera17.0/nios2eds/bin/gnu/H-x86_64-pc-linux-gnu/bin/../lib/gcc/nios2-elf/5.3.0/../../../../../H-x86_64-pc-linux-gnu/nios2-elf/lib/pg/libc.a(lib_a-callocr.o)
                                        0x5de (size before relaxing)
 .debug_str     0x0000000000001b8b       0xc2 /package/eda/altera/altera17.0/nios2eds/bin/gnu/H-x86_64-pc-linux-gnu/bin/../lib/gcc/nios2-elf/5.3.0/../../../../../H-x86_64-pc-linux-gnu/nios2-elf/lib/pg/libc.a(lib_a-errno.o)
                                        0x58d (size before relaxing)
 .debug_str     0x0000000000001c4d       0x64 /package/eda/altera/altera17.0/nios2eds/bin/gnu/H-x86_64-pc-linux-gnu/bin/../lib/gcc/nios2-elf/5.3.0/../../../../../H-x86_64-pc-linux-gnu/nios2-elf/lib/pg/libc.a(lib_a-exit.o)
                                        0x5ae (size before relaxing)
 .debug_str     0x0000000000001cb1      0x12a /package/eda/altera/altera17.0/nios2eds/bin/gnu/H-x86_64-pc-linux-gnu/bin/../lib/gcc/nios2-elf/5.3.0/../../../../../H-x86_64-pc-linux-gnu/nios2-elf/lib/pg/libc.a(lib_a-fclose.o)
                                        0x5f2 (size before relaxing)
 .debug_str     0x0000000000001ddb       0x6b /package/eda/altera/altera17.0/nios2eds/bin/gnu/H-x86_64-pc-linux-gnu/bin/../lib/gcc/nios2-elf/5.3.0/../../../../../H-x86_64-pc-linux-gnu/nios2-elf/lib/pg/libc.a(lib_a-fflush.o)
                                        0x605 (size before relaxing)
 .debug_str     0x0000000000001e46       0x64 /package/eda/altera/altera17.0/nios2eds/bin/gnu/H-x86_64-pc-linux-gnu/bin/../lib/gcc/nios2-elf/5.3.0/../../../../../H-x86_64-pc-linux-gnu/nios2-elf/lib/pg/libc.a(lib_a-fgets.o)
                                        0x5d2 (size before relaxing)
 .debug_str     0x0000000000001eaa       0x43 /package/eda/altera/altera17.0/nios2eds/bin/gnu/H-x86_64-pc-linux-gnu/bin/../lib/gcc/nios2-elf/5.3.0/../../../../../H-x86_64-pc-linux-gnu/nios2-elf/lib/pg/libc.a(lib_a-fileno.o)
                                        0x5b1 (size before relaxing)
 .debug_str     0x0000000000001eed       0xef /package/eda/altera/altera17.0/nios2eds/bin/gnu/H-x86_64-pc-linux-gnu/bin/../lib/gcc/nios2-elf/5.3.0/../../../../../H-x86_64-pc-linux-gnu/nios2-elf/lib/pg/libc.a(lib_a-findfp.o)
                                        0x6bb (size before relaxing)
 .debug_str     0x0000000000001fdc       0x78 /package/eda/altera/altera17.0/nios2eds/bin/gnu/H-x86_64-pc-linux-gnu/bin/../lib/gcc/nios2-elf/5.3.0/../../../../../H-x86_64-pc-linux-gnu/nios2-elf/lib/pg/libc.a(lib_a-fiprintf.o)
                                        0x5d8 (size before relaxing)
 .debug_str     0x0000000000002054       0x6b /package/eda/altera/altera17.0/nios2eds/bin/gnu/H-x86_64-pc-linux-gnu/bin/../lib/gcc/nios2-elf/5.3.0/../../../../../H-x86_64-pc-linux-gnu/nios2-elf/lib/pg/libc.a(lib_a-fopen.o)
                                        0x5f6 (size before relaxing)
 .debug_str     0x00000000000020bf       0x64 /package/eda/altera/altera17.0/nios2eds/bin/gnu/H-x86_64-pc-linux-gnu/bin/../lib/gcc/nios2-elf/5.3.0/../../../../../H-x86_64-pc-linux-gnu/nios2-elf/lib/pg/libc.a(lib_a-fprintf.o)
                                        0x5d0 (size before relaxing)
 .debug_str     0x0000000000002123       0x52 /package/eda/altera/altera17.0/nios2eds/bin/gnu/H-x86_64-pc-linux-gnu/bin/../lib/gcc/nios2-elf/5.3.0/../../../../../H-x86_64-pc-linux-gnu/nios2-elf/lib/pg/libc.a(lib_a-fputc.o)
                                        0x5cb (size before relaxing)
 .debug_str     0x0000000000002175       0x9a /package/eda/altera/altera17.0/nios2eds/bin/gnu/H-x86_64-pc-linux-gnu/bin/../lib/gcc/nios2-elf/5.3.0/../../../../../H-x86_64-pc-linux-gnu/nios2-elf/lib/pg/libc.a(lib_a-fputs.o)
                                        0x60f (size before relaxing)
 .debug_str     0x000000000000220f       0x6c /package/eda/altera/altera17.0/nios2eds/bin/gnu/H-x86_64-pc-linux-gnu/bin/../lib/gcc/nios2-elf/5.3.0/../../../../../H-x86_64-pc-linux-gnu/nios2-elf/lib/pg/libc.a(lib_a-fread.o)
                                        0x60c (size before relaxing)
 .debug_str     0x000000000000227b      0x112 /package/eda/altera/altera17.0/nios2eds/bin/gnu/H-x86_64-pc-linux-gnu/bin/../lib/gcc/nios2-elf/5.3.0/../../../../../H-x86_64-pc-linux-gnu/nios2-elf/lib/pg/libc.a(lib_a-freer.o)
                                        0x6f4 (size before relaxing)
 .debug_str     0x000000000000238d       0x52 /package/eda/altera/altera17.0/nios2eds/bin/gnu/H-x86_64-pc-linux-gnu/bin/../lib/gcc/nios2-elf/5.3.0/../../../../../H-x86_64-pc-linux-gnu/nios2-elf/lib/pg/libc.a(lib_a-fseek.o)
                                        0x5b1 (size before relaxing)
 .debug_str     0x00000000000023df      0x13d /package/eda/altera/altera17.0/nios2eds/bin/gnu/H-x86_64-pc-linux-gnu/bin/../lib/gcc/nios2-elf/5.3.0/../../../../../H-x86_64-pc-linux-gnu/nios2-elf/lib/pg/libc.a(lib_a-fseeko.o)
                                        0x70c (size before relaxing)
 .debug_str     0x000000000000251c       0xcf /package/eda/altera/altera17.0/nios2eds/bin/gnu/H-x86_64-pc-linux-gnu/bin/../lib/gcc/nios2-elf/5.3.0/../../../../../H-x86_64-pc-linux-gnu/nios2-elf/lib/pg/libc.a(lib_a-fstatr.o)
                                        0x67b (size before relaxing)
 .debug_str     0x00000000000025eb       0x7a /package/eda/altera/altera17.0/nios2eds/bin/gnu/H-x86_64-pc-linux-gnu/bin/../lib/gcc/nios2-elf/5.3.0/../../../../../H-x86_64-pc-linux-gnu/nios2-elf/lib/pg/libc.a(lib_a-fvwrite.o)
                                        0x637 (size before relaxing)
 .debug_str     0x0000000000002665       0x4a /package/eda/altera/altera17.0/nios2eds/bin/gnu/H-x86_64-pc-linux-gnu/bin/../lib/gcc/nios2-elf/5.3.0/../../../../../H-x86_64-pc-linux-gnu/nios2-elf/lib/pg/libc.a(lib_a-fwalk.o)
                                        0x5aa (size before relaxing)
 .debug_str     0x00000000000026af       0x4d /package/eda/altera/altera17.0/nios2eds/bin/gnu/H-x86_64-pc-linux-gnu/bin/../lib/gcc/nios2-elf/5.3.0/../../../../../H-x86_64-pc-linux-gnu/nios2-elf/lib/pg/libc.a(lib_a-fwrite.o)
                                        0x60f (size before relaxing)
 .debug_str     0x00000000000026fc       0x48 /package/eda/altera/altera17.0/nios2eds/bin/gnu/H-x86_64-pc-linux-gnu/bin/../lib/gcc/nios2-elf/5.3.0/../../../../../H-x86_64-pc-linux-gnu/nios2-elf/lib/pg/libc.a(lib_a-impure.o)
                                        0x5a5 (size before relaxing)
 .debug_str     0x0000000000002744       0x3f /package/eda/altera/altera17.0/nios2eds/bin/gnu/H-x86_64-pc-linux-gnu/bin/../lib/gcc/nios2-elf/5.3.0/../../../../../H-x86_64-pc-linux-gnu/nios2-elf/lib/pg/libc.a(lib_a-int_errno.o)
                                        0x1cd (size before relaxing)
 .debug_str     0x0000000000002783       0x52 /package/eda/altera/altera17.0/nios2eds/bin/gnu/H-x86_64-pc-linux-gnu/bin/../lib/gcc/nios2-elf/5.3.0/../../../../../H-x86_64-pc-linux-gnu/nios2-elf/lib/pg/libc.a(lib_a-makebuf.o)
                                        0x6a7 (size before relaxing)
 .debug_str     0x00000000000027d5       0x49 /package/eda/altera/altera17.0/nios2eds/bin/gnu/H-x86_64-pc-linux-gnu/bin/../lib/gcc/nios2-elf/5.3.0/../../../../../H-x86_64-pc-linux-gnu/nios2-elf/lib/pg/libc.a(lib_a-malloc.o)
                                        0x5b9 (size before relaxing)
 .debug_str     0x000000000000281e       0xdf /package/eda/altera/altera17.0/nios2eds/bin/gnu/H-x86_64-pc-linux-gnu/bin/../lib/gcc/nios2-elf/5.3.0/../../../../../H-x86_64-pc-linux-gnu/nios2-elf/lib/pg/libc.a(lib_a-mallocr.o)
                                        0x7aa (size before relaxing)
 .debug_str     0x00000000000028fd       0xda /package/eda/altera/altera17.0/nios2eds/bin/gnu/H-x86_64-pc-linux-gnu/bin/../lib/gcc/nios2-elf/5.3.0/../../../../../H-x86_64-pc-linux-gnu/nios2-elf/lib/pg/libc.a(lib_a-memchr.o)
                                        0x1ee (size before relaxing)
 .debug_str     0x00000000000029d7       0x64 /package/eda/altera/altera17.0/nios2eds/bin/gnu/H-x86_64-pc-linux-gnu/bin/../lib/gcc/nios2-elf/5.3.0/../../../../../H-x86_64-pc-linux-gnu/nios2-elf/lib/pg/libc.a(lib_a-memcpy.o)
                                        0x1fb (size before relaxing)
 .debug_str     0x0000000000002a3b       0x47 /package/eda/altera/altera17.0/nios2eds/bin/gnu/H-x86_64-pc-linux-gnu/bin/../lib/gcc/nios2-elf/5.3.0/../../../../../H-x86_64-pc-linux-gnu/nios2-elf/lib/pg/libc.a(lib_a-memmove.o)
                                        0x207 (size before relaxing)
 .debug_str     0x0000000000002a82       0x51 /package/eda/altera/altera17.0/nios2eds/bin/gnu/H-x86_64-pc-linux-gnu/bin/../lib/gcc/nios2-elf/5.3.0/../../../../../H-x86_64-pc-linux-gnu/nios2-elf/lib/pg/libc.a(lib_a-memset.o)
                                        0x1e8 (size before relaxing)
 .debug_str     0x0000000000002ad3       0x3b /package/eda/altera/altera17.0/nios2eds/bin/gnu/H-x86_64-pc-linux-gnu/bin/../lib/gcc/nios2-elf/5.3.0/../../../../../H-x86_64-pc-linux-gnu/nios2-elf/lib/pg/libc.a(lib_a-openr.o)
                                        0x59c (size before relaxing)
 .debug_str     0x0000000000002b0e       0x5d /package/eda/altera/altera17.0/nios2eds/bin/gnu/H-x86_64-pc-linux-gnu/bin/../lib/gcc/nios2-elf/5.3.0/../../../../../H-x86_64-pc-linux-gnu/nios2-elf/lib/pg/libc.a(lib_a-printf.o)
                                        0x5eb (size before relaxing)
 .debug_str     0x0000000000002b6b       0x44 /package/eda/altera/altera17.0/nios2eds/bin/gnu/H-x86_64-pc-linux-gnu/bin/../lib/gcc/nios2-elf/5.3.0/../../../../../H-x86_64-pc-linux-gnu/nios2-elf/lib/pg/libc.a(lib_a-putc.o)
                                        0x5c5 (size before relaxing)
 .debug_str     0x0000000000002baf       0x46 /package/eda/altera/altera17.0/nios2eds/bin/gnu/H-x86_64-pc-linux-gnu/bin/../lib/gcc/nios2-elf/5.3.0/../../../../../H-x86_64-pc-linux-gnu/nios2-elf/lib/pg/libc.a(lib_a-realloc.o)
                                        0x5aa (size before relaxing)
 .debug_str     0x0000000000002bf5       0x4e /package/eda/altera/altera17.0/nios2eds/bin/gnu/H-x86_64-pc-linux-gnu/bin/../lib/gcc/nios2-elf/5.3.0/../../../../../H-x86_64-pc-linux-gnu/nios2-elf/lib/pg/libc.a(lib_a-reallocr.o)
                                        0x686 (size before relaxing)
 .debug_str     0x0000000000002c43       0x4e /package/eda/altera/altera17.0/nios2eds/bin/gnu/H-x86_64-pc-linux-gnu/bin/../lib/gcc/nios2-elf/5.3.0/../../../../../H-x86_64-pc-linux-gnu/nios2-elf/lib/pg/libc.a(lib_a-refill.o)
                                        0x600 (size before relaxing)
 .debug_str     0x0000000000002c91       0x4f /package/eda/altera/altera17.0/nios2eds/bin/gnu/H-x86_64-pc-linux-gnu/bin/../lib/gcc/nios2-elf/5.3.0/../../../../../H-x86_64-pc-linux-gnu/nios2-elf/lib/pg/libc.a(lib_a-sbrkr.o)
                                        0x59b (size before relaxing)
 .debug_str     0x0000000000002ce0      0x12b /package/eda/altera/altera17.0/nios2eds/bin/gnu/H-x86_64-pc-linux-gnu/bin/../lib/gcc/nios2-elf/5.3.0/../../../../../H-x86_64-pc-linux-gnu/nios2-elf/lib/pg/libc.a(lib_a-signal.o)
                                        0x614 (size before relaxing)
 .debug_str     0x0000000000002e0b       0x49 /package/eda/altera/altera17.0/nios2eds/bin/gnu/H-x86_64-pc-linux-gnu/bin/../lib/gcc/nios2-elf/5.3.0/../../../../../H-x86_64-pc-linux-gnu/nios2-elf/lib/pg/libc.a(lib_a-signalr.o)
                                        0x59f (size before relaxing)
 .debug_str     0x0000000000002e54       0x94 /package/eda/altera/altera17.0/nios2eds/bin/gnu/H-x86_64-pc-linux-gnu/bin/../lib/gcc/nios2-elf/5.3.0/../../../../../H-x86_64-pc-linux-gnu/nios2-elf/lib/pg/libc.a(lib_a-stdio.o)
                                        0x5f9 (size before relaxing)
 .debug_str     0x0000000000002ee8       0x44 /package/eda/altera/altera17.0/nios2eds/bin/gnu/H-x86_64-pc-linux-gnu/bin/../lib/gcc/nios2-elf/5.3.0/../../../../../H-x86_64-pc-linux-gnu/nios2-elf/lib/pg/libc.a(lib_a-strcmp.o)
                                        0x1cd (size before relaxing)
 .debug_str     0x0000000000002f2c       0x4e /package/eda/altera/altera17.0/nios2eds/bin/gnu/H-x86_64-pc-linux-gnu/bin/../lib/gcc/nios2-elf/5.3.0/../../../../../H-x86_64-pc-linux-gnu/nios2-elf/lib/pg/libc.a(lib_a-strdup.o)
                                        0x599 (size before relaxing)
 .debug_str     0x0000000000002f7a       0x44 /package/eda/altera/altera17.0/nios2eds/bin/gnu/H-x86_64-pc-linux-gnu/bin/../lib/gcc/nios2-elf/5.3.0/../../../../../H-x86_64-pc-linux-gnu/nios2-elf/lib/pg/libc.a(lib_a-strdup_r.o)
                                        0x5b6 (size before relaxing)
 .debug_str     0x0000000000002fbe       0x3d /package/eda/altera/altera17.0/nios2eds/bin/gnu/H-x86_64-pc-linux-gnu/bin/../lib/gcc/nios2-elf/5.3.0/../../../../../H-x86_64-pc-linux-gnu/nios2-elf/lib/pg/libc.a(lib_a-strlen.o)
                                        0x1e7 (size before relaxing)
 .debug_str     0x0000000000002ffb       0x46 /package/eda/altera/altera17.0/nios2eds/bin/gnu/H-x86_64-pc-linux-gnu/bin/../lib/gcc/nios2-elf/5.3.0/../../../../../H-x86_64-pc-linux-gnu/nios2-elf/lib/pg/libc.a(lib_a-strncmp.o)
                                        0x1d6 (size before relaxing)
 .debug_str     0x0000000000003041      0x27b /package/eda/altera/altera17.0/nios2eds/bin/gnu/H-x86_64-pc-linux-gnu/bin/../lib/gcc/nios2-elf/5.3.0/../../../../../H-x86_64-pc-linux-gnu/nios2-elf/lib/pg/libc.a(lib_a-strtod.o)
                                        0x81d (size before relaxing)
 .debug_str     0x00000000000032bc       0x5a /package/eda/altera/altera17.0/nios2eds/bin/gnu/H-x86_64-pc-linux-gnu/bin/../lib/gcc/nios2-elf/5.3.0/../../../../../H-x86_64-pc-linux-gnu/nios2-elf/lib/pg/libc.a(lib_a-vfiprintfr_1.o)
                                        0x5d8 (size before relaxing)
 .debug_str     0x0000000000003316      0x1d8 /package/eda/altera/altera17.0/nios2eds/bin/gnu/H-x86_64-pc-linux-gnu/bin/../lib/gcc/nios2-elf/5.3.0/../../../../../H-x86_64-pc-linux-gnu/nios2-elf/lib/pg/libc.a(lib_a-vfprintf.o)
                                        0x82d (size before relaxing)
 .debug_str     0x00000000000034ee       0x42 /package/eda/altera/altera17.0/nios2eds/bin/gnu/H-x86_64-pc-linux-gnu/bin/../lib/gcc/nios2-elf/5.3.0/../../../../../H-x86_64-pc-linux-gnu/nios2-elf/lib/pg/libc.a(lib_a-wbuf.o)
                                        0x5c9 (size before relaxing)
 .debug_str     0x0000000000003530       0x3c /package/eda/altera/altera17.0/nios2eds/bin/gnu/H-x86_64-pc-linux-gnu/bin/../lib/gcc/nios2-elf/5.3.0/../../../../../H-x86_64-pc-linux-gnu/nios2-elf/lib/pg/libc.a(lib_a-writer.o)
                                        0x59f (size before relaxing)
 .debug_str     0x000000000000356c       0x3c /package/eda/altera/altera17.0/nios2eds/bin/gnu/H-x86_64-pc-linux-gnu/bin/../lib/gcc/nios2-elf/5.3.0/../../../../../H-x86_64-pc-linux-gnu/nios2-elf/lib/pg/libc.a(lib_a-wsetup.o)
                                        0x5c4 (size before relaxing)
 .debug_str     0x00000000000035a8       0x3c /package/eda/altera/altera17.0/nios2eds/bin/gnu/H-x86_64-pc-linux-gnu/bin/../lib/gcc/nios2-elf/5.3.0/../../../../../H-x86_64-pc-linux-gnu/nios2-elf/lib/pg/libc.a(closer.o)
                                        0x58f (size before relaxing)
 .debug_str     0x00000000000035e4       0x60 /package/eda/altera/altera17.0/nios2eds/bin/gnu/H-x86_64-pc-linux-gnu/bin/../lib/gcc/nios2-elf/5.3.0/../../../../../H-x86_64-pc-linux-gnu/nios2-elf/lib/pg/libc.a(lib_a-__call_atexit.o)
                                        0x5d2 (size before relaxing)
 .debug_str     0x0000000000003644       0xe1 /package/eda/altera/altera17.0/nios2eds/bin/gnu/H-x86_64-pc-linux-gnu/bin/../lib/gcc/nios2-elf/5.3.0/../../../../../H-x86_64-pc-linux-gnu/nios2-elf/lib/pg/libc.a(lib_a-dtoa.o)
                                        0x6e4 (size before relaxing)
 .debug_str     0x0000000000003725       0x40 /package/eda/altera/altera17.0/nios2eds/bin/gnu/H-x86_64-pc-linux-gnu/bin/../lib/gcc/nios2-elf/5.3.0/../../../../../H-x86_64-pc-linux-gnu/nios2-elf/lib/pg/libc.a(lib_a-flags.o)
                                        0x58c (size before relaxing)
 .debug_str     0x0000000000003765       0xdb /package/eda/altera/altera17.0/nios2eds/bin/gnu/H-x86_64-pc-linux-gnu/bin/../lib/gcc/nios2-elf/5.3.0/../../../../../H-x86_64-pc-linux-gnu/nios2-elf/lib/pg/libc.a(lib_a-gdtoa-gethex.o)
                                        0x79f (size before relaxing)
 .debug_str     0x0000000000003840       0x43 /package/eda/altera/altera17.0/nios2eds/bin/gnu/H-x86_64-pc-linux-gnu/bin/../lib/gcc/nios2-elf/5.3.0/../../../../../H-x86_64-pc-linux-gnu/nios2-elf/lib/pg/libc.a(lib_a-gdtoa-hexnan.o)
                                        0x2f7 (size before relaxing)
 .debug_str     0x0000000000003883       0x44 /package/eda/altera/altera17.0/nios2eds/bin/gnu/H-x86_64-pc-linux-gnu/bin/../lib/gcc/nios2-elf/5.3.0/../../../../../H-x86_64-pc-linux-gnu/nios2-elf/lib/pg/libc.a(lib_a-isattyr.o)
                                        0x592 (size before relaxing)
 .debug_str     0x00000000000038c7      0x292 /package/eda/altera/altera17.0/nios2eds/bin/gnu/H-x86_64-pc-linux-gnu/bin/../lib/gcc/nios2-elf/5.3.0/../../../../../H-x86_64-pc-linux-gnu/nios2-elf/lib/pg/libc.a(lib_a-locale.o)
                                        0x802 (size before relaxing)
 .debug_str     0x0000000000003b59       0x42 /package/eda/altera/altera17.0/nios2eds/bin/gnu/H-x86_64-pc-linux-gnu/bin/../lib/gcc/nios2-elf/5.3.0/../../../../../H-x86_64-pc-linux-gnu/nios2-elf/lib/pg/libc.a(lib_a-lseekr.o)
                                        0x596 (size before relaxing)
 .debug_str     0x0000000000003b9b       0x75 /package/eda/altera/altera17.0/nios2eds/bin/gnu/H-x86_64-pc-linux-gnu/bin/../lib/gcc/nios2-elf/5.3.0/../../../../../H-x86_64-pc-linux-gnu/nios2-elf/lib/pg/libc.a(lib_a-mprec.o)
                                        0x69e (size before relaxing)
 .debug_str     0x0000000000003c10       0x3b /package/eda/altera/altera17.0/nios2eds/bin/gnu/H-x86_64-pc-linux-gnu/bin/../lib/gcc/nios2-elf/5.3.0/../../../../../H-x86_64-pc-linux-gnu/nios2-elf/lib/pg/libc.a(lib_a-readr.o)
                                        0x59c (size before relaxing)
 .debug_str     0x0000000000003c4b       0x27 /package/eda/altera/altera17.0/nios2eds/bin/gnu/H-x86_64-pc-linux-gnu/bin/../lib/gcc/nios2-elf/5.3.0/../../../../../H-x86_64-pc-linux-gnu/nios2-elf/lib/pg/libc.a(lib_a-vfiprintf.o)
                                        0x781 (size before relaxing)
 .debug_str     0x0000000000003c72       0x50 /package/eda/altera/altera17.0/nios2eds/bin/gnu/H-x86_64-pc-linux-gnu/bin/../lib/gcc/nios2-elf/5.3.0/../../../../../H-x86_64-pc-linux-gnu/nios2-elf/lib/pg/libc.a(lib_a-fputwc.o)
                                        0x5f6 (size before relaxing)
 .debug_str     0x0000000000003cc2       0x4f /package/eda/altera/altera17.0/nios2eds/bin/gnu/H-x86_64-pc-linux-gnu/bin/../lib/gcc/nios2-elf/5.3.0/../../../../../H-x86_64-pc-linux-gnu/nios2-elf/lib/pg/libc.a(lib_a-wcrtomb.o)
                                        0x5dc (size before relaxing)
 .debug_str     0x0000000000003d11       0x5f /package/eda/altera/altera17.0/nios2eds/bin/gnu/H-x86_64-pc-linux-gnu/bin/../lib/gcc/nios2-elf/5.3.0/../../../../../H-x86_64-pc-linux-gnu/nios2-elf/lib/pg/libc.a(lib_a-wctomb_r.o)
                                        0x5e5 (size before relaxing)
 .debug_str     0x0000000000003d70        0xd /package/eda/altera/altera17.0/nios2eds/bin/gnu/H-x86_64-pc-linux-gnu/bin/../lib/gcc/nios2-elf/5.3.0/pg/libgcc.a(_fixunsdfsi.o)
                                        0x1db (size before relaxing)
 .debug_str     0x0000000000003d7d       0xb9 /package/eda/altera/altera17.0/nios2eds/bin/gnu/H-x86_64-pc-linux-gnu/bin/../lib/gcc/nios2-elf/5.3.0/pg/libgcc.a(_udivdi3.o)
                                        0x28c (size before relaxing)
 .debug_str     0x0000000000003e36        0xa /package/eda/altera/altera17.0/nios2eds/bin/gnu/H-x86_64-pc-linux-gnu/bin/../lib/gcc/nios2-elf/5.3.0/pg/libgcc.a(_umoddi3.o)
                                        0x28c (size before relaxing)
 .debug_str     0x0000000000003e40       0x43 /package/eda/altera/altera17.0/nios2eds/bin/gnu/H-x86_64-pc-linux-gnu/bin/../lib/gcc/nios2-elf/5.3.0/pg/libgcc.a(floatunsidf.o)
                                        0x22f (size before relaxing)
 .debug_str     0x0000000000003e83       0x81 /package/eda/altera/altera17.0/nios2eds/bin/gnu/H-x86_64-pc-linux-gnu/bin/../lib/gcc/nios2-elf/5.3.0/../../../../../H-x86_64-pc-linux-gnu/nios2-elf/lib/pg/libc.a(lib_a-atexit.o)
                                        0x211 (size before relaxing)
 .debug_str     0x0000000000003f04       0x44 /package/eda/altera/altera17.0/nios2eds/bin/gnu/H-x86_64-pc-linux-gnu/bin/../lib/gcc/nios2-elf/5.3.0/../../../../../H-x86_64-pc-linux-gnu/nios2-elf/lib/pg/libc.a(lib_a-memcmp.o)
                                        0x1d4 (size before relaxing)
 .debug_str     0x0000000000003f48       0x3f /package/eda/altera/altera17.0/nios2eds/bin/gnu/H-x86_64-pc-linux-gnu/bin/../lib/gcc/nios2-elf/5.3.0/../../../../../H-x86_64-pc-linux-gnu/nios2-elf/lib/pg/libc.a(lib_a-__atexit.o)
                                        0x5e6 (size before relaxing)

.debug_loc      0x0000000000000000    0x23d09
 *(.debug_loc)
 .debug_loc     0x0000000000000000       0x95 /package/eda/altera/altera17.0/nios2eds/bin/gnu/H-x86_64-pc-linux-gnu/bin/../lib/gcc/nios2-elf/5.3.0/../../../../../H-x86_64-pc-linux-gnu/nios2-elf/lib/pg/libm.a(lib_a-sf_cos.o)
 .debug_loc     0x0000000000000095       0x95 /package/eda/altera/altera17.0/nios2eds/bin/gnu/H-x86_64-pc-linux-gnu/bin/../lib/gcc/nios2-elf/5.3.0/../../../../../H-x86_64-pc-linux-gnu/nios2-elf/lib/pg/libm.a(lib_a-sf_sin.o)
 .debug_loc     0x000000000000012a       0x60 /package/eda/altera/altera17.0/nios2eds/bin/gnu/H-x86_64-pc-linux-gnu/bin/../lib/gcc/nios2-elf/5.3.0/../../../../../H-x86_64-pc-linux-gnu/nios2-elf/lib/pg/libm.a(lib_a-w_log.o)
 .debug_loc     0x000000000000018a       0x60 /package/eda/altera/altera17.0/nios2eds/bin/gnu/H-x86_64-pc-linux-gnu/bin/../lib/gcc/nios2-elf/5.3.0/../../../../../H-x86_64-pc-linux-gnu/nios2-elf/lib/pg/libm.a(lib_a-w_sqrt.o)
 .debug_loc     0x00000000000001ea       0x41 /package/eda/altera/altera17.0/nios2eds/bin/gnu/H-x86_64-pc-linux-gnu/bin/../lib/gcc/nios2-elf/5.3.0/../../../../../H-x86_64-pc-linux-gnu/nios2-elf/lib/pg/libm.a(lib_a-wf_exp.o)
 .debug_loc     0x000000000000022b       0x41 /package/eda/altera/altera17.0/nios2eds/bin/gnu/H-x86_64-pc-linux-gnu/bin/../lib/gcc/nios2-elf/5.3.0/../../../../../H-x86_64-pc-linux-gnu/nios2-elf/lib/pg/libm.a(lib_a-wf_log.o)
 .debug_loc     0x000000000000026c       0x41 /package/eda/altera/altera17.0/nios2eds/bin/gnu/H-x86_64-pc-linux-gnu/bin/../lib/gcc/nios2-elf/5.3.0/../../../../../H-x86_64-pc-linux-gnu/nios2-elf/lib/pg/libm.a(lib_a-wf_sqrt.o)
 .debug_loc     0x00000000000002ad      0x5ac /package/eda/altera/altera17.0/nios2eds/bin/gnu/H-x86_64-pc-linux-gnu/bin/../lib/gcc/nios2-elf/5.3.0/../../../../../H-x86_64-pc-linux-gnu/nios2-elf/lib/pg/libm.a(lib_a-e_log.o)
 .debug_loc     0x0000000000000859      0x524 /package/eda/altera/altera17.0/nios2eds/bin/gnu/H-x86_64-pc-linux-gnu/bin/../lib/gcc/nios2-elf/5.3.0/../../../../../H-x86_64-pc-linux-gnu/nios2-elf/lib/pg/libm.a(lib_a-e_sqrt.o)
 .debug_loc     0x0000000000000d7d      0x346 /package/eda/altera/altera17.0/nios2eds/bin/gnu/H-x86_64-pc-linux-gnu/bin/../lib/gcc/nios2-elf/5.3.0/../../../../../H-x86_64-pc-linux-gnu/nios2-elf/lib/pg/libm.a(lib_a-ef_exp.o)
 .debug_loc     0x00000000000010c3      0x40d /package/eda/altera/altera17.0/nios2eds/bin/gnu/H-x86_64-pc-linux-gnu/bin/../lib/gcc/nios2-elf/5.3.0/../../../../../H-x86_64-pc-linux-gnu/nios2-elf/lib/pg/libm.a(lib_a-ef_log.o)
 .debug_loc     0x00000000000014d0      0x54f /package/eda/altera/altera17.0/nios2eds/bin/gnu/H-x86_64-pc-linux-gnu/bin/../lib/gcc/nios2-elf/5.3.0/../../../../../H-x86_64-pc-linux-gnu/nios2-elf/lib/pg/libm.a(lib_a-ef_rem_pio2.o)
 .debug_loc     0x0000000000001a1f      0x304 /package/eda/altera/altera17.0/nios2eds/bin/gnu/H-x86_64-pc-linux-gnu/bin/../lib/gcc/nios2-elf/5.3.0/../../../../../H-x86_64-pc-linux-gnu/nios2-elf/lib/pg/libm.a(lib_a-ef_sqrt.o)
 .debug_loc     0x0000000000001d23      0x171 /package/eda/altera/altera17.0/nios2eds/bin/gnu/H-x86_64-pc-linux-gnu/bin/../lib/gcc/nios2-elf/5.3.0/../../../../../H-x86_64-pc-linux-gnu/nios2-elf/lib/pg/libm.a(lib_a-kf_cos.o)
 .debug_loc     0x0000000000001e94      0xaa9 /package/eda/altera/altera17.0/nios2eds/bin/gnu/H-x86_64-pc-linux-gnu/bin/../lib/gcc/nios2-elf/5.3.0/../../../../../H-x86_64-pc-linux-gnu/nios2-elf/lib/pg/libm.a(lib_a-kf_rem_pio2.o)
 .debug_loc     0x000000000000293d       0xff /package/eda/altera/altera17.0/nios2eds/bin/gnu/H-x86_64-pc-linux-gnu/bin/../lib/gcc/nios2-elf/5.3.0/../../../../../H-x86_64-pc-linux-gnu/nios2-elf/lib/pg/libm.a(lib_a-kf_sin.o)
 .debug_loc     0x0000000000002a3c       0x2f /package/eda/altera/altera17.0/nios2eds/bin/gnu/H-x86_64-pc-linux-gnu/bin/../lib/gcc/nios2-elf/5.3.0/../../../../../H-x86_64-pc-linux-gnu/nios2-elf/lib/pg/libm.a(lib_a-s_fpclassify.o)
 .debug_loc     0x0000000000002a6b       0x28 /package/eda/altera/altera17.0/nios2eds/bin/gnu/H-x86_64-pc-linux-gnu/bin/../lib/gcc/nios2-elf/5.3.0/../../../../../H-x86_64-pc-linux-gnu/nios2-elf/lib/pg/libm.a(lib_a-sf_fabs.o)
 .debug_loc     0x0000000000002a93      0x207 /package/eda/altera/altera17.0/nios2eds/bin/gnu/H-x86_64-pc-linux-gnu/bin/../lib/gcc/nios2-elf/5.3.0/../../../../../H-x86_64-pc-linux-gnu/nios2-elf/lib/pg/libm.a(lib_a-sf_floor.o)
 .debug_loc     0x0000000000002c9a       0x36 /package/eda/altera/altera17.0/nios2eds/bin/gnu/H-x86_64-pc-linux-gnu/bin/../lib/gcc/nios2-elf/5.3.0/../../../../../H-x86_64-pc-linux-gnu/nios2-elf/lib/pg/libm.a(lib_a-sf_fpclassify.o)
 .debug_loc     0x0000000000002cd0      0x292 /package/eda/altera/altera17.0/nios2eds/bin/gnu/H-x86_64-pc-linux-gnu/bin/../lib/gcc/nios2-elf/5.3.0/../../../../../H-x86_64-pc-linux-gnu/nios2-elf/lib/pg/libm.a(lib_a-sf_scalbn.o)
 .debug_loc     0x0000000000002f62       0x43 /package/eda/altera/altera17.0/nios2eds/bin/gnu/H-x86_64-pc-linux-gnu/bin/../lib/gcc/nios2-elf/5.3.0/../../../../../H-x86_64-pc-linux-gnu/nios2-elf/lib/pg/libm.a(lib_a-sf_copysign.o)
 .debug_loc     0x0000000000002fa5      0x12d /package/eda/altera/altera17.0/nios2eds/bin/gnu/H-x86_64-pc-linux-gnu/bin/../lib/gcc/nios2-elf/5.3.0/pg/libgcc.a(_muldi3.o)
 .debug_loc     0x00000000000030d2       0x23 /package/eda/altera/altera17.0/nios2eds/bin/gnu/H-x86_64-pc-linux-gnu/bin/../lib/gcc/nios2-elf/5.3.0/pg/libgcc.a(_fixunssfsi.o)
 .debug_loc     0x00000000000030f5      0x4d9 /package/eda/altera/altera17.0/nios2eds/bin/gnu/H-x86_64-pc-linux-gnu/bin/../lib/gcc/nios2-elf/5.3.0/pg/libgcc.a(lib2-divmod.o)
 .debug_loc     0x00000000000035ce      0xae0 /package/eda/altera/altera17.0/nios2eds/bin/gnu/H-x86_64-pc-linux-gnu/bin/../lib/gcc/nios2-elf/5.3.0/pg/libgcc.a(addsf3.o)
 .debug_loc     0x00000000000040ae      0x7a2 /package/eda/altera/altera17.0/nios2eds/bin/gnu/H-x86_64-pc-linux-gnu/bin/../lib/gcc/nios2-elf/5.3.0/pg/libgcc.a(divsf3.o)
 .debug_loc     0x0000000000004850       0x82 /package/eda/altera/altera17.0/nios2eds/bin/gnu/H-x86_64-pc-linux-gnu/bin/../lib/gcc/nios2-elf/5.3.0/pg/libgcc.a(eqsf2.o)
 .debug_loc     0x00000000000048d2      0x138 /package/eda/altera/altera17.0/nios2eds/bin/gnu/H-x86_64-pc-linux-gnu/bin/../lib/gcc/nios2-elf/5.3.0/pg/libgcc.a(gesf2.o)
 .debug_loc     0x0000000000004a0a      0x18d /package/eda/altera/altera17.0/nios2eds/bin/gnu/H-x86_64-pc-linux-gnu/bin/../lib/gcc/nios2-elf/5.3.0/pg/libgcc.a(lesf2.o)
 .debug_loc     0x0000000000004b97      0x740 /package/eda/altera/altera17.0/nios2eds/bin/gnu/H-x86_64-pc-linux-gnu/bin/../lib/gcc/nios2-elf/5.3.0/pg/libgcc.a(mulsf3.o)
 .debug_loc     0x00000000000052d7      0xaf4 /package/eda/altera/altera17.0/nios2eds/bin/gnu/H-x86_64-pc-linux-gnu/bin/../lib/gcc/nios2-elf/5.3.0/pg/libgcc.a(subsf3.o)
 .debug_loc     0x0000000000005dcb       0xfb /package/eda/altera/altera17.0/nios2eds/bin/gnu/H-x86_64-pc-linux-gnu/bin/../lib/gcc/nios2-elf/5.3.0/pg/libgcc.a(fixsfsi.o)
 .debug_loc     0x0000000000005ec6      0x187 /package/eda/altera/altera17.0/nios2eds/bin/gnu/H-x86_64-pc-linux-gnu/bin/../lib/gcc/nios2-elf/5.3.0/pg/libgcc.a(floatsisf.o)
 .debug_loc     0x000000000000604d     0x16f9 /package/eda/altera/altera17.0/nios2eds/bin/gnu/H-x86_64-pc-linux-gnu/bin/../lib/gcc/nios2-elf/5.3.0/pg/libgcc.a(adddf3.o)
 .debug_loc     0x0000000000007746     0x1fc6 /package/eda/altera/altera17.0/nios2eds/bin/gnu/H-x86_64-pc-linux-gnu/bin/../lib/gcc/nios2-elf/5.3.0/pg/libgcc.a(divdf3.o)
 .debug_loc     0x000000000000970c       0x3c /package/eda/altera/altera17.0/nios2eds/bin/gnu/H-x86_64-pc-linux-gnu/bin/../lib/gcc/nios2-elf/5.3.0/pg/libgcc.a(eqdf2.o)
 .debug_loc     0x0000000000009748       0xf2 /package/eda/altera/altera17.0/nios2eds/bin/gnu/H-x86_64-pc-linux-gnu/bin/../lib/gcc/nios2-elf/5.3.0/pg/libgcc.a(gedf2.o)
 .debug_loc     0x000000000000983a      0x150 /package/eda/altera/altera17.0/nios2eds/bin/gnu/H-x86_64-pc-linux-gnu/bin/../lib/gcc/nios2-elf/5.3.0/pg/libgcc.a(ledf2.o)
 .debug_loc     0x000000000000998a     0x100d /package/eda/altera/altera17.0/nios2eds/bin/gnu/H-x86_64-pc-linux-gnu/bin/../lib/gcc/nios2-elf/5.3.0/pg/libgcc.a(muldf3.o)
 .debug_loc     0x000000000000a997     0x1627 /package/eda/altera/altera17.0/nios2eds/bin/gnu/H-x86_64-pc-linux-gnu/bin/../lib/gcc/nios2-elf/5.3.0/pg/libgcc.a(subdf3.o)
 .debug_loc     0x000000000000bfbe      0x13e /package/eda/altera/altera17.0/nios2eds/bin/gnu/H-x86_64-pc-linux-gnu/bin/../lib/gcc/nios2-elf/5.3.0/pg/libgcc.a(fixdfsi.o)
 .debug_loc     0x000000000000c0fc      0x175 /package/eda/altera/altera17.0/nios2eds/bin/gnu/H-x86_64-pc-linux-gnu/bin/../lib/gcc/nios2-elf/5.3.0/pg/libgcc.a(floatsidf.o)
 .debug_loc     0x000000000000c271      0x26d /package/eda/altera/altera17.0/nios2eds/bin/gnu/H-x86_64-pc-linux-gnu/bin/../lib/gcc/nios2-elf/5.3.0/pg/libgcc.a(extendsfdf2.o)
 .debug_loc     0x000000000000c4de      0x359 /package/eda/altera/altera17.0/nios2eds/bin/gnu/H-x86_64-pc-linux-gnu/bin/../lib/gcc/nios2-elf/5.3.0/pg/libgcc.a(truncdfsf2.o)
 .debug_loc     0x000000000000c837       0x6b /package/eda/altera/altera17.0/nios2eds/bin/gnu/H-x86_64-pc-linux-gnu/bin/../lib/gcc/nios2-elf/5.3.0/pg/libgcc.a(_clzsi2.o)
 .debug_loc     0x000000000000c8a2      0x13f /package/eda/altera/altera17.0/nios2eds/bin/gnu/H-x86_64-pc-linux-gnu/bin/../lib/gcc/nios2-elf/5.3.0/../../../../../H-x86_64-pc-linux-gnu/nios2-elf/lib/pg/libc.a(lib_a-assert.o)
 .debug_loc     0x000000000000c9e1       0x58 /package/eda/altera/altera17.0/nios2eds/bin/gnu/H-x86_64-pc-linux-gnu/bin/../lib/gcc/nios2-elf/5.3.0/../../../../../H-x86_64-pc-linux-gnu/nios2-elf/lib/pg/libc.a(lib_a-calloc.o)
 .debug_loc     0x000000000000ca39      0x210 /package/eda/altera/altera17.0/nios2eds/bin/gnu/H-x86_64-pc-linux-gnu/bin/../lib/gcc/nios2-elf/5.3.0/../../../../../H-x86_64-pc-linux-gnu/nios2-elf/lib/pg/libc.a(lib_a-callocr.o)
 .debug_loc     0x000000000000cc49       0x1e /package/eda/altera/altera17.0/nios2eds/bin/gnu/H-x86_64-pc-linux-gnu/bin/../lib/gcc/nios2-elf/5.3.0/../../../../../H-x86_64-pc-linux-gnu/nios2-elf/lib/pg/libc.a(lib_a-exit.o)
 .debug_loc     0x000000000000cc67      0x199 /package/eda/altera/altera17.0/nios2eds/bin/gnu/H-x86_64-pc-linux-gnu/bin/../lib/gcc/nios2-elf/5.3.0/../../../../../H-x86_64-pc-linux-gnu/nios2-elf/lib/pg/libc.a(lib_a-fclose.o)
 .debug_loc     0x000000000000ce00      0x36f /package/eda/altera/altera17.0/nios2eds/bin/gnu/H-x86_64-pc-linux-gnu/bin/../lib/gcc/nios2-elf/5.3.0/../../../../../H-x86_64-pc-linux-gnu/nios2-elf/lib/pg/libc.a(lib_a-fflush.o)
 .debug_loc     0x000000000000d16f      0x340 /package/eda/altera/altera17.0/nios2eds/bin/gnu/H-x86_64-pc-linux-gnu/bin/../lib/gcc/nios2-elf/5.3.0/../../../../../H-x86_64-pc-linux-gnu/nios2-elf/lib/pg/libc.a(lib_a-fgets.o)
 .debug_loc     0x000000000000d4af       0x75 /package/eda/altera/altera17.0/nios2eds/bin/gnu/H-x86_64-pc-linux-gnu/bin/../lib/gcc/nios2-elf/5.3.0/../../../../../H-x86_64-pc-linux-gnu/nios2-elf/lib/pg/libc.a(lib_a-fileno.o)
 .debug_loc     0x000000000000d524      0x2ee /package/eda/altera/altera17.0/nios2eds/bin/gnu/H-x86_64-pc-linux-gnu/bin/../lib/gcc/nios2-elf/5.3.0/../../../../../H-x86_64-pc-linux-gnu/nios2-elf/lib/pg/libc.a(lib_a-findfp.o)
 .debug_loc     0x000000000000d812      0x115 /package/eda/altera/altera17.0/nios2eds/bin/gnu/H-x86_64-pc-linux-gnu/bin/../lib/gcc/nios2-elf/5.3.0/../../../../../H-x86_64-pc-linux-gnu/nios2-elf/lib/pg/libc.a(lib_a-fiprintf.o)
 .debug_loc     0x000000000000d927      0x157 /package/eda/altera/altera17.0/nios2eds/bin/gnu/H-x86_64-pc-linux-gnu/bin/../lib/gcc/nios2-elf/5.3.0/../../../../../H-x86_64-pc-linux-gnu/nios2-elf/lib/pg/libc.a(lib_a-fopen.o)
 .debug_loc     0x000000000000da7e      0x115 /package/eda/altera/altera17.0/nios2eds/bin/gnu/H-x86_64-pc-linux-gnu/bin/../lib/gcc/nios2-elf/5.3.0/../../../../../H-x86_64-pc-linux-gnu/nios2-elf/lib/pg/libc.a(lib_a-fprintf.o)
 .debug_loc     0x000000000000db93      0x126 /package/eda/altera/altera17.0/nios2eds/bin/gnu/H-x86_64-pc-linux-gnu/bin/../lib/gcc/nios2-elf/5.3.0/../../../../../H-x86_64-pc-linux-gnu/nios2-elf/lib/pg/libc.a(lib_a-fputc.o)
 .debug_loc     0x000000000000dcb9      0x126 /package/eda/altera/altera17.0/nios2eds/bin/gnu/H-x86_64-pc-linux-gnu/bin/../lib/gcc/nios2-elf/5.3.0/../../../../../H-x86_64-pc-linux-gnu/nios2-elf/lib/pg/libc.a(lib_a-fputs.o)
 .debug_loc     0x000000000000dddf      0x472 /package/eda/altera/altera17.0/nios2eds/bin/gnu/H-x86_64-pc-linux-gnu/bin/../lib/gcc/nios2-elf/5.3.0/../../../../../H-x86_64-pc-linux-gnu/nios2-elf/lib/pg/libc.a(lib_a-fread.o)
 .debug_loc     0x000000000000e251      0x4e7 /package/eda/altera/altera17.0/nios2eds/bin/gnu/H-x86_64-pc-linux-gnu/bin/../lib/gcc/nios2-elf/5.3.0/../../../../../H-x86_64-pc-linux-gnu/nios2-elf/lib/pg/libc.a(lib_a-freer.o)
 .debug_loc     0x000000000000e738      0x18c /package/eda/altera/altera17.0/nios2eds/bin/gnu/H-x86_64-pc-linux-gnu/bin/../lib/gcc/nios2-elf/5.3.0/../../../../../H-x86_64-pc-linux-gnu/nios2-elf/lib/pg/libc.a(lib_a-fseek.o)
 .debug_loc     0x000000000000e8c4      0x3cd /package/eda/altera/altera17.0/nios2eds/bin/gnu/H-x86_64-pc-linux-gnu/bin/../lib/gcc/nios2-elf/5.3.0/../../../../../H-x86_64-pc-linux-gnu/nios2-elf/lib/pg/libc.a(lib_a-fseeko.o)
 .debug_loc     0x000000000000ec91       0x84 /package/eda/altera/altera17.0/nios2eds/bin/gnu/H-x86_64-pc-linux-gnu/bin/../lib/gcc/nios2-elf/5.3.0/../../../../../H-x86_64-pc-linux-gnu/nios2-elf/lib/pg/libc.a(lib_a-fstatr.o)
 .debug_loc     0x000000000000ed15      0x5d7 /package/eda/altera/altera17.0/nios2eds/bin/gnu/H-x86_64-pc-linux-gnu/bin/../lib/gcc/nios2-elf/5.3.0/../../../../../H-x86_64-pc-linux-gnu/nios2-elf/lib/pg/libc.a(lib_a-fvwrite.o)
 .debug_loc     0x000000000000f2ec      0x25b /package/eda/altera/altera17.0/nios2eds/bin/gnu/H-x86_64-pc-linux-gnu/bin/../lib/gcc/nios2-elf/5.3.0/../../../../../H-x86_64-pc-linux-gnu/nios2-elf/lib/pg/libc.a(lib_a-fwalk.o)
 .debug_loc     0x000000000000f547      0x2b2 /package/eda/altera/altera17.0/nios2eds/bin/gnu/H-x86_64-pc-linux-gnu/bin/../lib/gcc/nios2-elf/5.3.0/../../../../../H-x86_64-pc-linux-gnu/nios2-elf/lib/pg/libc.a(lib_a-fwrite.o)
 .debug_loc     0x000000000000f7f9      0x122 /package/eda/altera/altera17.0/nios2eds/bin/gnu/H-x86_64-pc-linux-gnu/bin/../lib/gcc/nios2-elf/5.3.0/../../../../../H-x86_64-pc-linux-gnu/nios2-elf/lib/pg/libc.a(lib_a-makebuf.o)
 .debug_loc     0x000000000000f91b       0x58 /package/eda/altera/altera17.0/nios2eds/bin/gnu/H-x86_64-pc-linux-gnu/bin/../lib/gcc/nios2-elf/5.3.0/../../../../../H-x86_64-pc-linux-gnu/nios2-elf/lib/pg/libc.a(lib_a-malloc.o)
 .debug_loc     0x000000000000f973      0xb1b /package/eda/altera/altera17.0/nios2eds/bin/gnu/H-x86_64-pc-linux-gnu/bin/../lib/gcc/nios2-elf/5.3.0/../../../../../H-x86_64-pc-linux-gnu/nios2-elf/lib/pg/libc.a(lib_a-mallocr.o)
 .debug_loc     0x000000000001048e      0x196 /package/eda/altera/altera17.0/nios2eds/bin/gnu/H-x86_64-pc-linux-gnu/bin/../lib/gcc/nios2-elf/5.3.0/../../../../../H-x86_64-pc-linux-gnu/nios2-elf/lib/pg/libc.a(lib_a-memchr.o)
 .debug_loc     0x0000000000010624      0x266 /package/eda/altera/altera17.0/nios2eds/bin/gnu/H-x86_64-pc-linux-gnu/bin/../lib/gcc/nios2-elf/5.3.0/../../../../../H-x86_64-pc-linux-gnu/nios2-elf/lib/pg/libc.a(lib_a-memcpy.o)
 .debug_loc     0x000000000001088a      0x2e7 /package/eda/altera/altera17.0/nios2eds/bin/gnu/H-x86_64-pc-linux-gnu/bin/../lib/gcc/nios2-elf/5.3.0/../../../../../H-x86_64-pc-linux-gnu/nios2-elf/lib/pg/libc.a(lib_a-memmove.o)
 .debug_loc     0x0000000000010b71      0x19b /package/eda/altera/altera17.0/nios2eds/bin/gnu/H-x86_64-pc-linux-gnu/bin/../lib/gcc/nios2-elf/5.3.0/../../../../../H-x86_64-pc-linux-gnu/nios2-elf/lib/pg/libc.a(lib_a-memset.o)
 .debug_loc     0x0000000000010d0c       0xb0 /package/eda/altera/altera17.0/nios2eds/bin/gnu/H-x86_64-pc-linux-gnu/bin/../lib/gcc/nios2-elf/5.3.0/../../../../../H-x86_64-pc-linux-gnu/nios2-elf/lib/pg/libc.a(lib_a-openr.o)
 .debug_loc     0x0000000000010dbc       0xd3 /package/eda/altera/altera17.0/nios2eds/bin/gnu/H-x86_64-pc-linux-gnu/bin/../lib/gcc/nios2-elf/5.3.0/../../../../../H-x86_64-pc-linux-gnu/nios2-elf/lib/pg/libc.a(lib_a-printf.o)
 .debug_loc     0x0000000000010e8f      0x224 /package/eda/altera/altera17.0/nios2eds/bin/gnu/H-x86_64-pc-linux-gnu/bin/../lib/gcc/nios2-elf/5.3.0/../../../../../H-x86_64-pc-linux-gnu/nios2-elf/lib/pg/libc.a(lib_a-putc.o)
 .debug_loc     0x00000000000110b3       0x58 /package/eda/altera/altera17.0/nios2eds/bin/gnu/H-x86_64-pc-linux-gnu/bin/../lib/gcc/nios2-elf/5.3.0/../../../../../H-x86_64-pc-linux-gnu/nios2-elf/lib/pg/libc.a(lib_a-realloc.o)
 .debug_loc     0x000000000001110b      0xde4 /package/eda/altera/altera17.0/nios2eds/bin/gnu/H-x86_64-pc-linux-gnu/bin/../lib/gcc/nios2-elf/5.3.0/../../../../../H-x86_64-pc-linux-gnu/nios2-elf/lib/pg/libc.a(lib_a-reallocr.o)
 .debug_loc     0x0000000000011eef      0x127 /package/eda/altera/altera17.0/nios2eds/bin/gnu/H-x86_64-pc-linux-gnu/bin/../lib/gcc/nios2-elf/5.3.0/../../../../../H-x86_64-pc-linux-gnu/nios2-elf/lib/pg/libc.a(lib_a-refill.o)
 .debug_loc     0x0000000000012016       0x58 /package/eda/altera/altera17.0/nios2eds/bin/gnu/H-x86_64-pc-linux-gnu/bin/../lib/gcc/nios2-elf/5.3.0/../../../../../H-x86_64-pc-linux-gnu/nios2-elf/lib/pg/libc.a(lib_a-sbrkr.o)
 .debug_loc     0x000000000001206e      0x407 /package/eda/altera/altera17.0/nios2eds/bin/gnu/H-x86_64-pc-linux-gnu/bin/../lib/gcc/nios2-elf/5.3.0/../../../../../H-x86_64-pc-linux-gnu/nios2-elf/lib/pg/libc.a(lib_a-signal.o)
 .debug_loc     0x0000000000012475       0xa5 /package/eda/altera/altera17.0/nios2eds/bin/gnu/H-x86_64-pc-linux-gnu/bin/../lib/gcc/nios2-elf/5.3.0/../../../../../H-x86_64-pc-linux-gnu/nios2-elf/lib/pg/libc.a(lib_a-signalr.o)
 .debug_loc     0x000000000001251a      0x33a /package/eda/altera/altera17.0/nios2eds/bin/gnu/H-x86_64-pc-linux-gnu/bin/../lib/gcc/nios2-elf/5.3.0/../../../../../H-x86_64-pc-linux-gnu/nios2-elf/lib/pg/libc.a(lib_a-stdio.o)
 .debug_loc     0x0000000000012854       0xc6 /package/eda/altera/altera17.0/nios2eds/bin/gnu/H-x86_64-pc-linux-gnu/bin/../lib/gcc/nios2-elf/5.3.0/../../../../../H-x86_64-pc-linux-gnu/nios2-elf/lib/pg/libc.a(lib_a-strcmp.o)
 .debug_loc     0x000000000001291a       0x2c /package/eda/altera/altera17.0/nios2eds/bin/gnu/H-x86_64-pc-linux-gnu/bin/../lib/gcc/nios2-elf/5.3.0/../../../../../H-x86_64-pc-linux-gnu/nios2-elf/lib/pg/libc.a(lib_a-strdup.o)
 .debug_loc     0x0000000000012946       0x94 /package/eda/altera/altera17.0/nios2eds/bin/gnu/H-x86_64-pc-linux-gnu/bin/../lib/gcc/nios2-elf/5.3.0/../../../../../H-x86_64-pc-linux-gnu/nios2-elf/lib/pg/libc.a(lib_a-strdup_r.o)
 .debug_loc     0x00000000000129da       0x47 /package/eda/altera/altera17.0/nios2eds/bin/gnu/H-x86_64-pc-linux-gnu/bin/../lib/gcc/nios2-elf/5.3.0/../../../../../H-x86_64-pc-linux-gnu/nios2-elf/lib/pg/libc.a(lib_a-strlen.o)
 .debug_loc     0x0000000000012a21       0x9c /package/eda/altera/altera17.0/nios2eds/bin/gnu/H-x86_64-pc-linux-gnu/bin/../lib/gcc/nios2-elf/5.3.0/../../../../../H-x86_64-pc-linux-gnu/nios2-elf/lib/pg/libc.a(lib_a-strncmp.o)
 .debug_loc     0x0000000000012abd     0x2b02 /package/eda/altera/altera17.0/nios2eds/bin/gnu/H-x86_64-pc-linux-gnu/bin/../lib/gcc/nios2-elf/5.3.0/../../../../../H-x86_64-pc-linux-gnu/nios2-elf/lib/pg/libc.a(lib_a-strtod.o)
 .debug_loc     0x00000000000155bf       0x84 /package/eda/altera/altera17.0/nios2eds/bin/gnu/H-x86_64-pc-linux-gnu/bin/../lib/gcc/nios2-elf/5.3.0/../../../../../H-x86_64-pc-linux-gnu/nios2-elf/lib/pg/libc.a(lib_a-vfiprintfr_1.o)
 .debug_loc     0x0000000000015643     0x30cf /package/eda/altera/altera17.0/nios2eds/bin/gnu/H-x86_64-pc-linux-gnu/bin/../lib/gcc/nios2-elf/5.3.0/../../../../../H-x86_64-pc-linux-gnu/nios2-elf/lib/pg/libc.a(lib_a-vfprintf.o)
 .debug_loc     0x0000000000018712      0x1b2 /package/eda/altera/altera17.0/nios2eds/bin/gnu/H-x86_64-pc-linux-gnu/bin/../lib/gcc/nios2-elf/5.3.0/../../../../../H-x86_64-pc-linux-gnu/nios2-elf/lib/pg/libc.a(lib_a-wbuf.o)
 .debug_loc     0x00000000000188c4       0xb0 /package/eda/altera/altera17.0/nios2eds/bin/gnu/H-x86_64-pc-linux-gnu/bin/../lib/gcc/nios2-elf/5.3.0/../../../../../H-x86_64-pc-linux-gnu/nios2-elf/lib/pg/libc.a(lib_a-writer.o)
 .debug_loc     0x0000000000018974       0xa2 /package/eda/altera/altera17.0/nios2eds/bin/gnu/H-x86_64-pc-linux-gnu/bin/../lib/gcc/nios2-elf/5.3.0/../../../../../H-x86_64-pc-linux-gnu/nios2-elf/lib/pg/libc.a(lib_a-wsetup.o)
 .debug_loc     0x0000000000018a16       0x58 /package/eda/altera/altera17.0/nios2eds/bin/gnu/H-x86_64-pc-linux-gnu/bin/../lib/gcc/nios2-elf/5.3.0/../../../../../H-x86_64-pc-linux-gnu/nios2-elf/lib/pg/libc.a(closer.o)
 .debug_loc     0x0000000000018a6e      0x1ce /package/eda/altera/altera17.0/nios2eds/bin/gnu/H-x86_64-pc-linux-gnu/bin/../lib/gcc/nios2-elf/5.3.0/../../../../../H-x86_64-pc-linux-gnu/nios2-elf/lib/pg/libc.a(lib_a-__call_atexit.o)
 .debug_loc     0x0000000000018c3c     0x2855 /package/eda/altera/altera17.0/nios2eds/bin/gnu/H-x86_64-pc-linux-gnu/bin/../lib/gcc/nios2-elf/5.3.0/../../../../../H-x86_64-pc-linux-gnu/nios2-elf/lib/pg/libc.a(lib_a-dtoa.o)
 .debug_loc     0x000000000001b491      0x10b /package/eda/altera/altera17.0/nios2eds/bin/gnu/H-x86_64-pc-linux-gnu/bin/../lib/gcc/nios2-elf/5.3.0/../../../../../H-x86_64-pc-linux-gnu/nios2-elf/lib/pg/libc.a(lib_a-flags.o)
 .debug_loc     0x000000000001b59c     0x10f4 /package/eda/altera/altera17.0/nios2eds/bin/gnu/H-x86_64-pc-linux-gnu/bin/../lib/gcc/nios2-elf/5.3.0/../../../../../H-x86_64-pc-linux-gnu/nios2-elf/lib/pg/libc.a(lib_a-gdtoa-gethex.o)
 .debug_loc     0x000000000001c690      0x4d7 /package/eda/altera/altera17.0/nios2eds/bin/gnu/H-x86_64-pc-linux-gnu/bin/../lib/gcc/nios2-elf/5.3.0/../../../../../H-x86_64-pc-linux-gnu/nios2-elf/lib/pg/libc.a(lib_a-gdtoa-hexnan.o)
 .debug_loc     0x000000000001cb67       0x58 /package/eda/altera/altera17.0/nios2eds/bin/gnu/H-x86_64-pc-linux-gnu/bin/../lib/gcc/nios2-elf/5.3.0/../../../../../H-x86_64-pc-linux-gnu/nios2-elf/lib/pg/libc.a(lib_a-isattyr.o)
 .debug_loc     0x000000000001cbbf      0x131 /package/eda/altera/altera17.0/nios2eds/bin/gnu/H-x86_64-pc-linux-gnu/bin/../lib/gcc/nios2-elf/5.3.0/../../../../../H-x86_64-pc-linux-gnu/nios2-elf/lib/pg/libc.a(lib_a-locale.o)
 .debug_loc     0x000000000001ccf0       0xb0 /package/eda/altera/altera17.0/nios2eds/bin/gnu/H-x86_64-pc-linux-gnu/bin/../lib/gcc/nios2-elf/5.3.0/../../../../../H-x86_64-pc-linux-gnu/nios2-elf/lib/pg/libc.a(lib_a-lseekr.o)
 .debug_loc     0x000000000001cda0     0x1bee /package/eda/altera/altera17.0/nios2eds/bin/gnu/H-x86_64-pc-linux-gnu/bin/../lib/gcc/nios2-elf/5.3.0/../../../../../H-x86_64-pc-linux-gnu/nios2-elf/lib/pg/libc.a(lib_a-mprec.o)
 .debug_loc     0x000000000001e98e       0xb0 /package/eda/altera/altera17.0/nios2eds/bin/gnu/H-x86_64-pc-linux-gnu/bin/../lib/gcc/nios2-elf/5.3.0/../../../../../H-x86_64-pc-linux-gnu/nios2-elf/lib/pg/libc.a(lib_a-readr.o)
 .debug_loc     0x000000000001ea3e     0x2739 /package/eda/altera/altera17.0/nios2eds/bin/gnu/H-x86_64-pc-linux-gnu/bin/../lib/gcc/nios2-elf/5.3.0/../../../../../H-x86_64-pc-linux-gnu/nios2-elf/lib/pg/libc.a(lib_a-vfiprintf.o)
 .debug_loc     0x0000000000021177      0x2a1 /package/eda/altera/altera17.0/nios2eds/bin/gnu/H-x86_64-pc-linux-gnu/bin/../lib/gcc/nios2-elf/5.3.0/../../../../../H-x86_64-pc-linux-gnu/nios2-elf/lib/pg/libc.a(lib_a-fputwc.o)
 .debug_loc     0x0000000000021418      0x24e /package/eda/altera/altera17.0/nios2eds/bin/gnu/H-x86_64-pc-linux-gnu/bin/../lib/gcc/nios2-elf/5.3.0/../../../../../H-x86_64-pc-linux-gnu/nios2-elf/lib/pg/libc.a(lib_a-wcrtomb.o)
 .debug_loc     0x0000000000021666       0x8f /package/eda/altera/altera17.0/nios2eds/bin/gnu/H-x86_64-pc-linux-gnu/bin/../lib/gcc/nios2-elf/5.3.0/../../../../../H-x86_64-pc-linux-gnu/nios2-elf/lib/pg/libc.a(lib_a-wctomb_r.o)
 .debug_loc     0x00000000000216f5       0x28 /package/eda/altera/altera17.0/nios2eds/bin/gnu/H-x86_64-pc-linux-gnu/bin/../lib/gcc/nios2-elf/5.3.0/pg/libgcc.a(_fixunsdfsi.o)
 .debug_loc     0x000000000002171d     0x10ca /package/eda/altera/altera17.0/nios2eds/bin/gnu/H-x86_64-pc-linux-gnu/bin/../lib/gcc/nios2-elf/5.3.0/pg/libgcc.a(_udivdi3.o)
 .debug_loc     0x00000000000227e7     0x10ad /package/eda/altera/altera17.0/nios2eds/bin/gnu/H-x86_64-pc-linux-gnu/bin/../lib/gcc/nios2-elf/5.3.0/pg/libgcc.a(_umoddi3.o)
 .debug_loc     0x0000000000023894      0x19e /package/eda/altera/altera17.0/nios2eds/bin/gnu/H-x86_64-pc-linux-gnu/bin/../lib/gcc/nios2-elf/5.3.0/pg/libgcc.a(floatunsidf.o)
 .debug_loc     0x0000000000023a32       0x2c /package/eda/altera/altera17.0/nios2eds/bin/gnu/H-x86_64-pc-linux-gnu/bin/../lib/gcc/nios2-elf/5.3.0/../../../../../H-x86_64-pc-linux-gnu/nios2-elf/lib/pg/libc.a(lib_a-atexit.o)
 .debug_loc     0x0000000000023a5e      0x126 /package/eda/altera/altera17.0/nios2eds/bin/gnu/H-x86_64-pc-linux-gnu/bin/../lib/gcc/nios2-elf/5.3.0/../../../../../H-x86_64-pc-linux-gnu/nios2-elf/lib/pg/libc.a(lib_a-memcmp.o)
 .debug_loc     0x0000000000023b84      0x185 /package/eda/altera/altera17.0/nios2eds/bin/gnu/H-x86_64-pc-linux-gnu/bin/../lib/gcc/nios2-elf/5.3.0/../../../../../H-x86_64-pc-linux-gnu/nios2-elf/lib/pg/libc.a(lib_a-__atexit.o)

.debug_macinfo
 *(.debug_macinfo)

.debug_weaknames
 *(.debug_weaknames)

.debug_funcnames
 *(.debug_funcnames)

.debug_typenames
 *(.debug_typenames)

.debug_varnames
 *(.debug_varnames)

.debug_alt_sim_info
                0x0000000000000000       0x60
 *(.debug_alt_sim_info)
 .debug_alt_sim_info
                0x0000000000000000       0x30 ../MNIST_CNN_Software_bsp//obj/HAL/src/crt0.o
 .debug_alt_sim_info
                0x0000000000000030       0x30 ../MNIST_CNN_Software_bsp//libhal_bsp.a(alt_busy_sleep.o)
                0x0000000010000000                __alt_data_end = 0x10000000
                0x0000000010000000                PROVIDE (__alt_stack_pointer, __alt_data_end)
                [!provide]                        PROVIDE (__alt_stack_limit, __alt_stack_base)
                0x000000000803a3d4                PROVIDE (__alt_heap_start, end)
                0x0000000010000000                PROVIDE (__alt_heap_limit, 0x10000000)
OUTPUT(MNIST_CNN_Software.elf elf32-littlenios2)

.debug_ranges   0x0000000000000000     0x23b0
 .debug_ranges  0x0000000000000000       0x20 ../MNIST_CNN_Software_bsp//obj/HAL/src/crt0.o
 .debug_ranges  0x0000000000000020       0x10 /package/eda/altera/altera17.0/nios2eds/bin/gnu/H-x86_64-pc-linux-gnu/bin/../lib/gcc/nios2-elf/5.3.0/../../../../../H-x86_64-pc-linux-gnu/nios2-elf/lib/pg/libm.a(lib_a-sf_cos.o)
 .debug_ranges  0x0000000000000030       0x10 /package/eda/altera/altera17.0/nios2eds/bin/gnu/H-x86_64-pc-linux-gnu/bin/../lib/gcc/nios2-elf/5.3.0/../../../../../H-x86_64-pc-linux-gnu/nios2-elf/lib/pg/libm.a(lib_a-sf_sin.o)
 .debug_ranges  0x0000000000000040       0x10 /package/eda/altera/altera17.0/nios2eds/bin/gnu/H-x86_64-pc-linux-gnu/bin/../lib/gcc/nios2-elf/5.3.0/../../../../../H-x86_64-pc-linux-gnu/nios2-elf/lib/pg/libm.a(lib_a-w_log.o)
 .debug_ranges  0x0000000000000050       0x10 /package/eda/altera/altera17.0/nios2eds/bin/gnu/H-x86_64-pc-linux-gnu/bin/../lib/gcc/nios2-elf/5.3.0/../../../../../H-x86_64-pc-linux-gnu/nios2-elf/lib/pg/libm.a(lib_a-w_sqrt.o)
 .debug_ranges  0x0000000000000060       0x10 /package/eda/altera/altera17.0/nios2eds/bin/gnu/H-x86_64-pc-linux-gnu/bin/../lib/gcc/nios2-elf/5.3.0/../../../../../H-x86_64-pc-linux-gnu/nios2-elf/lib/pg/libm.a(lib_a-wf_exp.o)
 .debug_ranges  0x0000000000000070       0x10 /package/eda/altera/altera17.0/nios2eds/bin/gnu/H-x86_64-pc-linux-gnu/bin/../lib/gcc/nios2-elf/5.3.0/../../../../../H-x86_64-pc-linux-gnu/nios2-elf/lib/pg/libm.a(lib_a-wf_log.o)
 .debug_ranges  0x0000000000000080       0x10 /package/eda/altera/altera17.0/nios2eds/bin/gnu/H-x86_64-pc-linux-gnu/bin/../lib/gcc/nios2-elf/5.3.0/../../../../../H-x86_64-pc-linux-gnu/nios2-elf/lib/pg/libm.a(lib_a-wf_sqrt.o)
 .debug_ranges  0x0000000000000090       0x10 /package/eda/altera/altera17.0/nios2eds/bin/gnu/H-x86_64-pc-linux-gnu/bin/../lib/gcc/nios2-elf/5.3.0/../../../../../H-x86_64-pc-linux-gnu/nios2-elf/lib/pg/libm.a(lib_a-e_log.o)
 .debug_ranges  0x00000000000000a0       0x10 /package/eda/altera/altera17.0/nios2eds/bin/gnu/H-x86_64-pc-linux-gnu/bin/../lib/gcc/nios2-elf/5.3.0/../../../../../H-x86_64-pc-linux-gnu/nios2-elf/lib/pg/libm.a(lib_a-e_sqrt.o)
 .debug_ranges  0x00000000000000b0       0x10 /package/eda/altera/altera17.0/nios2eds/bin/gnu/H-x86_64-pc-linux-gnu/bin/../lib/gcc/nios2-elf/5.3.0/../../../../../H-x86_64-pc-linux-gnu/nios2-elf/lib/pg/libm.a(lib_a-ef_exp.o)
 .debug_ranges  0x00000000000000c0       0x10 /package/eda/altera/altera17.0/nios2eds/bin/gnu/H-x86_64-pc-linux-gnu/bin/../lib/gcc/nios2-elf/5.3.0/../../../../../H-x86_64-pc-linux-gnu/nios2-elf/lib/pg/libm.a(lib_a-ef_log.o)
 .debug_ranges  0x00000000000000d0       0x28 /package/eda/altera/altera17.0/nios2eds/bin/gnu/H-x86_64-pc-linux-gnu/bin/../lib/gcc/nios2-elf/5.3.0/../../../../../H-x86_64-pc-linux-gnu/nios2-elf/lib/pg/libm.a(lib_a-ef_rem_pio2.o)
 .debug_ranges  0x00000000000000f8       0x40 /package/eda/altera/altera17.0/nios2eds/bin/gnu/H-x86_64-pc-linux-gnu/bin/../lib/gcc/nios2-elf/5.3.0/../../../../../H-x86_64-pc-linux-gnu/nios2-elf/lib/pg/libm.a(lib_a-ef_sqrt.o)
 .debug_ranges  0x0000000000000138       0x10 /package/eda/altera/altera17.0/nios2eds/bin/gnu/H-x86_64-pc-linux-gnu/bin/../lib/gcc/nios2-elf/5.3.0/../../../../../H-x86_64-pc-linux-gnu/nios2-elf/lib/pg/libm.a(lib_a-kf_cos.o)
 .debug_ranges  0x0000000000000148       0x10 /package/eda/altera/altera17.0/nios2eds/bin/gnu/H-x86_64-pc-linux-gnu/bin/../lib/gcc/nios2-elf/5.3.0/../../../../../H-x86_64-pc-linux-gnu/nios2-elf/lib/pg/libm.a(lib_a-kf_rem_pio2.o)
 .debug_ranges  0x0000000000000158       0x10 /package/eda/altera/altera17.0/nios2eds/bin/gnu/H-x86_64-pc-linux-gnu/bin/../lib/gcc/nios2-elf/5.3.0/../../../../../H-x86_64-pc-linux-gnu/nios2-elf/lib/pg/libm.a(lib_a-kf_sin.o)
 .debug_ranges  0x0000000000000168       0x10 /package/eda/altera/altera17.0/nios2eds/bin/gnu/H-x86_64-pc-linux-gnu/bin/../lib/gcc/nios2-elf/5.3.0/../../../../../H-x86_64-pc-linux-gnu/nios2-elf/lib/pg/libm.a(lib_a-s_fpclassify.o)
 .debug_ranges  0x0000000000000178       0x10 /package/eda/altera/altera17.0/nios2eds/bin/gnu/H-x86_64-pc-linux-gnu/bin/../lib/gcc/nios2-elf/5.3.0/../../../../../H-x86_64-pc-linux-gnu/nios2-elf/lib/pg/libm.a(lib_a-s_matherr.o)
 .debug_ranges  0x0000000000000188       0x10 /package/eda/altera/altera17.0/nios2eds/bin/gnu/H-x86_64-pc-linux-gnu/bin/../lib/gcc/nios2-elf/5.3.0/../../../../../H-x86_64-pc-linux-gnu/nios2-elf/lib/pg/libm.a(lib_a-s_nan.o)
 .debug_ranges  0x0000000000000198       0x10 /package/eda/altera/altera17.0/nios2eds/bin/gnu/H-x86_64-pc-linux-gnu/bin/../lib/gcc/nios2-elf/5.3.0/../../../../../H-x86_64-pc-linux-gnu/nios2-elf/lib/pg/libm.a(lib_a-sf_fabs.o)
 .debug_ranges  0x00000000000001a8       0x10 /package/eda/altera/altera17.0/nios2eds/bin/gnu/H-x86_64-pc-linux-gnu/bin/../lib/gcc/nios2-elf/5.3.0/../../../../../H-x86_64-pc-linux-gnu/nios2-elf/lib/pg/libm.a(lib_a-sf_finite.o)
 .debug_ranges  0x00000000000001b8       0x10 /package/eda/altera/altera17.0/nios2eds/bin/gnu/H-x86_64-pc-linux-gnu/bin/../lib/gcc/nios2-elf/5.3.0/../../../../../H-x86_64-pc-linux-gnu/nios2-elf/lib/pg/libm.a(lib_a-sf_floor.o)
 .debug_ranges  0x00000000000001c8       0x10 /package/eda/altera/altera17.0/nios2eds/bin/gnu/H-x86_64-pc-linux-gnu/bin/../lib/gcc/nios2-elf/5.3.0/../../../../../H-x86_64-pc-linux-gnu/nios2-elf/lib/pg/libm.a(lib_a-sf_fpclassify.o)
 .debug_ranges  0x00000000000001d8       0x10 /package/eda/altera/altera17.0/nios2eds/bin/gnu/H-x86_64-pc-linux-gnu/bin/../lib/gcc/nios2-elf/5.3.0/../../../../../H-x86_64-pc-linux-gnu/nios2-elf/lib/pg/libm.a(lib_a-sf_scalbn.o)
 .debug_ranges  0x00000000000001e8       0x10 /package/eda/altera/altera17.0/nios2eds/bin/gnu/H-x86_64-pc-linux-gnu/bin/../lib/gcc/nios2-elf/5.3.0/../../../../../H-x86_64-pc-linux-gnu/nios2-elf/lib/pg/libm.a(lib_a-sf_copysign.o)
 .debug_ranges  0x00000000000001f8       0x18 /package/eda/altera/altera17.0/nios2eds/bin/gnu/H-x86_64-pc-linux-gnu/bin/../lib/gcc/nios2-elf/5.3.0/pg/libgcc.a(_muldi3.o)
 .debug_ranges  0x0000000000000210       0x68 /package/eda/altera/altera17.0/nios2eds/bin/gnu/H-x86_64-pc-linux-gnu/bin/../lib/gcc/nios2-elf/5.3.0/pg/libgcc.a(lib2-divmod.o)
 .debug_ranges  0x0000000000000278      0x180 /package/eda/altera/altera17.0/nios2eds/bin/gnu/H-x86_64-pc-linux-gnu/bin/../lib/gcc/nios2-elf/5.3.0/pg/libgcc.a(addsf3.o)
 .debug_ranges  0x00000000000003f8       0x30 /package/eda/altera/altera17.0/nios2eds/bin/gnu/H-x86_64-pc-linux-gnu/bin/../lib/gcc/nios2-elf/5.3.0/pg/libgcc.a(divsf3.o)
 .debug_ranges  0x0000000000000428       0x48 /package/eda/altera/altera17.0/nios2eds/bin/gnu/H-x86_64-pc-linux-gnu/bin/../lib/gcc/nios2-elf/5.3.0/pg/libgcc.a(eqsf2.o)
 .debug_ranges  0x0000000000000470       0x88 /package/eda/altera/altera17.0/nios2eds/bin/gnu/H-x86_64-pc-linux-gnu/bin/../lib/gcc/nios2-elf/5.3.0/pg/libgcc.a(gesf2.o)
 .debug_ranges  0x00000000000004f8       0xb0 /package/eda/altera/altera17.0/nios2eds/bin/gnu/H-x86_64-pc-linux-gnu/bin/../lib/gcc/nios2-elf/5.3.0/pg/libgcc.a(lesf2.o)
 .debug_ranges  0x00000000000005a8       0x38 /package/eda/altera/altera17.0/nios2eds/bin/gnu/H-x86_64-pc-linux-gnu/bin/../lib/gcc/nios2-elf/5.3.0/pg/libgcc.a(mulsf3.o)
 .debug_ranges  0x00000000000005e0      0x168 /package/eda/altera/altera17.0/nios2eds/bin/gnu/H-x86_64-pc-linux-gnu/bin/../lib/gcc/nios2-elf/5.3.0/pg/libgcc.a(subsf3.o)
 .debug_ranges  0x0000000000000748       0x30 /package/eda/altera/altera17.0/nios2eds/bin/gnu/H-x86_64-pc-linux-gnu/bin/../lib/gcc/nios2-elf/5.3.0/pg/libgcc.a(fixsfsi.o)
 .debug_ranges  0x0000000000000778       0x38 /package/eda/altera/altera17.0/nios2eds/bin/gnu/H-x86_64-pc-linux-gnu/bin/../lib/gcc/nios2-elf/5.3.0/pg/libgcc.a(floatsisf.o)
 .debug_ranges  0x00000000000007b0      0x240 /package/eda/altera/altera17.0/nios2eds/bin/gnu/H-x86_64-pc-linux-gnu/bin/../lib/gcc/nios2-elf/5.3.0/pg/libgcc.a(adddf3.o)
 .debug_ranges  0x00000000000009f0      0x108 /package/eda/altera/altera17.0/nios2eds/bin/gnu/H-x86_64-pc-linux-gnu/bin/../lib/gcc/nios2-elf/5.3.0/pg/libgcc.a(divdf3.o)
 .debug_ranges  0x0000000000000af8       0x48 /package/eda/altera/altera17.0/nios2eds/bin/gnu/H-x86_64-pc-linux-gnu/bin/../lib/gcc/nios2-elf/5.3.0/pg/libgcc.a(eqdf2.o)
 .debug_ranges  0x0000000000000b40       0x88 /package/eda/altera/altera17.0/nios2eds/bin/gnu/H-x86_64-pc-linux-gnu/bin/../lib/gcc/nios2-elf/5.3.0/pg/libgcc.a(gedf2.o)
 .debug_ranges  0x0000000000000bc8       0xa0 /package/eda/altera/altera17.0/nios2eds/bin/gnu/H-x86_64-pc-linux-gnu/bin/../lib/gcc/nios2-elf/5.3.0/pg/libgcc.a(ledf2.o)
 .debug_ranges  0x0000000000000c68      0x1c0 /package/eda/altera/altera17.0/nios2eds/bin/gnu/H-x86_64-pc-linux-gnu/bin/../lib/gcc/nios2-elf/5.3.0/pg/libgcc.a(muldf3.o)
 .debug_ranges  0x0000000000000e28      0x260 /package/eda/altera/altera17.0/nios2eds/bin/gnu/H-x86_64-pc-linux-gnu/bin/../lib/gcc/nios2-elf/5.3.0/pg/libgcc.a(subdf3.o)
 .debug_ranges  0x0000000000001088       0x30 /package/eda/altera/altera17.0/nios2eds/bin/gnu/H-x86_64-pc-linux-gnu/bin/../lib/gcc/nios2-elf/5.3.0/pg/libgcc.a(fixdfsi.o)
 .debug_ranges  0x00000000000010b8       0x20 /package/eda/altera/altera17.0/nios2eds/bin/gnu/H-x86_64-pc-linux-gnu/bin/../lib/gcc/nios2-elf/5.3.0/pg/libgcc.a(floatsidf.o)
 .debug_ranges  0x00000000000010d8       0x30 /package/eda/altera/altera17.0/nios2eds/bin/gnu/H-x86_64-pc-linux-gnu/bin/../lib/gcc/nios2-elf/5.3.0/pg/libgcc.a(extendsfdf2.o)
 .debug_ranges  0x0000000000001108       0x38 /package/eda/altera/altera17.0/nios2eds/bin/gnu/H-x86_64-pc-linux-gnu/bin/../lib/gcc/nios2-elf/5.3.0/pg/libgcc.a(truncdfsf2.o)
 .debug_ranges  0x0000000000001140       0x18 /package/eda/altera/altera17.0/nios2eds/bin/gnu/H-x86_64-pc-linux-gnu/bin/../lib/gcc/nios2-elf/5.3.0/pg/libgcc.a(_clzsi2.o)
 .debug_ranges  0x0000000000001158       0x10 /package/eda/altera/altera17.0/nios2eds/bin/gnu/H-x86_64-pc-linux-gnu/bin/../lib/gcc/nios2-elf/5.3.0/../../../../../H-x86_64-pc-linux-gnu/nios2-elf/lib/pg/libc.a(lib_a-abort.o)
 .debug_ranges  0x0000000000001168       0x18 /package/eda/altera/altera17.0/nios2eds/bin/gnu/H-x86_64-pc-linux-gnu/bin/../lib/gcc/nios2-elf/5.3.0/../../../../../H-x86_64-pc-linux-gnu/nios2-elf/lib/pg/libc.a(lib_a-assert.o)
 .debug_ranges  0x0000000000001180       0x10 /package/eda/altera/altera17.0/nios2eds/bin/gnu/H-x86_64-pc-linux-gnu/bin/../lib/gcc/nios2-elf/5.3.0/../../../../../H-x86_64-pc-linux-gnu/nios2-elf/lib/pg/libc.a(lib_a-calloc.o)
 .debug_ranges  0x0000000000001190       0x48 /package/eda/altera/altera17.0/nios2eds/bin/gnu/H-x86_64-pc-linux-gnu/bin/../lib/gcc/nios2-elf/5.3.0/../../../../../H-x86_64-pc-linux-gnu/nios2-elf/lib/pg/libc.a(lib_a-callocr.o)
 .debug_ranges  0x00000000000011d8       0x10 /package/eda/altera/altera17.0/nios2eds/bin/gnu/H-x86_64-pc-linux-gnu/bin/../lib/gcc/nios2-elf/5.3.0/../../../../../H-x86_64-pc-linux-gnu/nios2-elf/lib/pg/libc.a(lib_a-errno.o)
 .debug_ranges  0x00000000000011e8       0x10 /package/eda/altera/altera17.0/nios2eds/bin/gnu/H-x86_64-pc-linux-gnu/bin/../lib/gcc/nios2-elf/5.3.0/../../../../../H-x86_64-pc-linux-gnu/nios2-elf/lib/pg/libc.a(lib_a-exit.o)
 .debug_ranges  0x00000000000011f8       0x48 /package/eda/altera/altera17.0/nios2eds/bin/gnu/H-x86_64-pc-linux-gnu/bin/../lib/gcc/nios2-elf/5.3.0/../../../../../H-x86_64-pc-linux-gnu/nios2-elf/lib/pg/libc.a(lib_a-fclose.o)
 .debug_ranges  0x0000000000001240       0x58 /package/eda/altera/altera17.0/nios2eds/bin/gnu/H-x86_64-pc-linux-gnu/bin/../lib/gcc/nios2-elf/5.3.0/../../../../../H-x86_64-pc-linux-gnu/nios2-elf/lib/pg/libc.a(lib_a-fflush.o)
 .debug_ranges  0x0000000000001298       0x30 /package/eda/altera/altera17.0/nios2eds/bin/gnu/H-x86_64-pc-linux-gnu/bin/../lib/gcc/nios2-elf/5.3.0/../../../../../H-x86_64-pc-linux-gnu/nios2-elf/lib/pg/libc.a(lib_a-fgets.o)
 .debug_ranges  0x00000000000012c8       0x30 /package/eda/altera/altera17.0/nios2eds/bin/gnu/H-x86_64-pc-linux-gnu/bin/../lib/gcc/nios2-elf/5.3.0/../../../../../H-x86_64-pc-linux-gnu/nios2-elf/lib/pg/libc.a(lib_a-fileno.o)
 .debug_ranges  0x00000000000012f8       0xc8 /package/eda/altera/altera17.0/nios2eds/bin/gnu/H-x86_64-pc-linux-gnu/bin/../lib/gcc/nios2-elf/5.3.0/../../../../../H-x86_64-pc-linux-gnu/nios2-elf/lib/pg/libc.a(lib_a-findfp.o)
 .debug_ranges  0x00000000000013c0       0x18 /package/eda/altera/altera17.0/nios2eds/bin/gnu/H-x86_64-pc-linux-gnu/bin/../lib/gcc/nios2-elf/5.3.0/../../../../../H-x86_64-pc-linux-gnu/nios2-elf/lib/pg/libc.a(lib_a-fiprintf.o)
 .debug_ranges  0x00000000000013d8       0x18 /package/eda/altera/altera17.0/nios2eds/bin/gnu/H-x86_64-pc-linux-gnu/bin/../lib/gcc/nios2-elf/5.3.0/../../../../../H-x86_64-pc-linux-gnu/nios2-elf/lib/pg/libc.a(lib_a-fopen.o)
 .debug_ranges  0x00000000000013f0       0x18 /package/eda/altera/altera17.0/nios2eds/bin/gnu/H-x86_64-pc-linux-gnu/bin/../lib/gcc/nios2-elf/5.3.0/../../../../../H-x86_64-pc-linux-gnu/nios2-elf/lib/pg/libc.a(lib_a-fprintf.o)
 .debug_ranges  0x0000000000001408       0x18 /package/eda/altera/altera17.0/nios2eds/bin/gnu/H-x86_64-pc-linux-gnu/bin/../lib/gcc/nios2-elf/5.3.0/../../../../../H-x86_64-pc-linux-gnu/nios2-elf/lib/pg/libc.a(lib_a-fputc.o)
 .debug_ranges  0x0000000000001420       0x30 /package/eda/altera/altera17.0/nios2eds/bin/gnu/H-x86_64-pc-linux-gnu/bin/../lib/gcc/nios2-elf/5.3.0/../../../../../H-x86_64-pc-linux-gnu/nios2-elf/lib/pg/libc.a(lib_a-fputs.o)
 .debug_ranges  0x0000000000001450       0x48 /package/eda/altera/altera17.0/nios2eds/bin/gnu/H-x86_64-pc-linux-gnu/bin/../lib/gcc/nios2-elf/5.3.0/../../../../../H-x86_64-pc-linux-gnu/nios2-elf/lib/pg/libc.a(lib_a-fread.o)
 .debug_ranges  0x0000000000001498       0x18 /package/eda/altera/altera17.0/nios2eds/bin/gnu/H-x86_64-pc-linux-gnu/bin/../lib/gcc/nios2-elf/5.3.0/../../../../../H-x86_64-pc-linux-gnu/nios2-elf/lib/pg/libc.a(lib_a-freer.o)
 .debug_ranges  0x00000000000014b0       0x30 /package/eda/altera/altera17.0/nios2eds/bin/gnu/H-x86_64-pc-linux-gnu/bin/../lib/gcc/nios2-elf/5.3.0/../../../../../H-x86_64-pc-linux-gnu/nios2-elf/lib/pg/libc.a(lib_a-fseek.o)
 .debug_ranges  0x00000000000014e0       0x30 /package/eda/altera/altera17.0/nios2eds/bin/gnu/H-x86_64-pc-linux-gnu/bin/../lib/gcc/nios2-elf/5.3.0/../../../../../H-x86_64-pc-linux-gnu/nios2-elf/lib/pg/libc.a(lib_a-fseeko.o)
 .debug_ranges  0x0000000000001510       0x10 /package/eda/altera/altera17.0/nios2eds/bin/gnu/H-x86_64-pc-linux-gnu/bin/../lib/gcc/nios2-elf/5.3.0/../../../../../H-x86_64-pc-linux-gnu/nios2-elf/lib/pg/libc.a(lib_a-fstatr.o)
 .debug_ranges  0x0000000000001520       0x30 /package/eda/altera/altera17.0/nios2eds/bin/gnu/H-x86_64-pc-linux-gnu/bin/../lib/gcc/nios2-elf/5.3.0/../../../../../H-x86_64-pc-linux-gnu/nios2-elf/lib/pg/libc.a(lib_a-fvwrite.o)
 .debug_ranges  0x0000000000001550       0x18 /package/eda/altera/altera17.0/nios2eds/bin/gnu/H-x86_64-pc-linux-gnu/bin/../lib/gcc/nios2-elf/5.3.0/../../../../../H-x86_64-pc-linux-gnu/nios2-elf/lib/pg/libc.a(lib_a-fwalk.o)
 .debug_ranges  0x0000000000001568       0x30 /package/eda/altera/altera17.0/nios2eds/bin/gnu/H-x86_64-pc-linux-gnu/bin/../lib/gcc/nios2-elf/5.3.0/../../../../../H-x86_64-pc-linux-gnu/nios2-elf/lib/pg/libc.a(lib_a-fwrite.o)
 .debug_ranges  0x0000000000001598       0x10 /package/eda/altera/altera17.0/nios2eds/bin/gnu/H-x86_64-pc-linux-gnu/bin/../lib/gcc/nios2-elf/5.3.0/../../../../../H-x86_64-pc-linux-gnu/nios2-elf/lib/pg/libc.a(lib_a-makebuf.o)
 .debug_ranges  0x00000000000015a8       0x18 /package/eda/altera/altera17.0/nios2eds/bin/gnu/H-x86_64-pc-linux-gnu/bin/../lib/gcc/nios2-elf/5.3.0/../../../../../H-x86_64-pc-linux-gnu/nios2-elf/lib/pg/libc.a(lib_a-malloc.o)
 .debug_ranges  0x00000000000015c0       0x48 /package/eda/altera/altera17.0/nios2eds/bin/gnu/H-x86_64-pc-linux-gnu/bin/../lib/gcc/nios2-elf/5.3.0/../../../../../H-x86_64-pc-linux-gnu/nios2-elf/lib/pg/libc.a(lib_a-mallocr.o)
 .debug_ranges  0x0000000000001608       0x10 /package/eda/altera/altera17.0/nios2eds/bin/gnu/H-x86_64-pc-linux-gnu/bin/../lib/gcc/nios2-elf/5.3.0/../../../../../H-x86_64-pc-linux-gnu/nios2-elf/lib/pg/libc.a(lib_a-memchr.o)
 .debug_ranges  0x0000000000001618       0x10 /package/eda/altera/altera17.0/nios2eds/bin/gnu/H-x86_64-pc-linux-gnu/bin/../lib/gcc/nios2-elf/5.3.0/../../../../../H-x86_64-pc-linux-gnu/nios2-elf/lib/pg/libc.a(lib_a-memcpy.o)
 .debug_ranges  0x0000000000001628       0x10 /package/eda/altera/altera17.0/nios2eds/bin/gnu/H-x86_64-pc-linux-gnu/bin/../lib/gcc/nios2-elf/5.3.0/../../../../../H-x86_64-pc-linux-gnu/nios2-elf/lib/pg/libc.a(lib_a-memmove.o)
 .debug_ranges  0x0000000000001638       0x10 /package/eda/altera/altera17.0/nios2eds/bin/gnu/H-x86_64-pc-linux-gnu/bin/../lib/gcc/nios2-elf/5.3.0/../../../../../H-x86_64-pc-linux-gnu/nios2-elf/lib/pg/libc.a(lib_a-memset.o)
 .debug_ranges  0x0000000000001648       0x10 /package/eda/altera/altera17.0/nios2eds/bin/gnu/H-x86_64-pc-linux-gnu/bin/../lib/gcc/nios2-elf/5.3.0/../../../../../H-x86_64-pc-linux-gnu/nios2-elf/lib/pg/libc.a(lib_a-openr.o)
 .debug_ranges  0x0000000000001658       0x18 /package/eda/altera/altera17.0/nios2eds/bin/gnu/H-x86_64-pc-linux-gnu/bin/../lib/gcc/nios2-elf/5.3.0/../../../../../H-x86_64-pc-linux-gnu/nios2-elf/lib/pg/libc.a(lib_a-printf.o)
 .debug_ranges  0x0000000000001670       0x48 /package/eda/altera/altera17.0/nios2eds/bin/gnu/H-x86_64-pc-linux-gnu/bin/../lib/gcc/nios2-elf/5.3.0/../../../../../H-x86_64-pc-linux-gnu/nios2-elf/lib/pg/libc.a(lib_a-putc.o)
 .debug_ranges  0x00000000000016b8       0x10 /package/eda/altera/altera17.0/nios2eds/bin/gnu/H-x86_64-pc-linux-gnu/bin/../lib/gcc/nios2-elf/5.3.0/../../../../../H-x86_64-pc-linux-gnu/nios2-elf/lib/pg/libc.a(lib_a-realloc.o)
 .debug_ranges  0x00000000000016c8      0x148 /package/eda/altera/altera17.0/nios2eds/bin/gnu/H-x86_64-pc-linux-gnu/bin/../lib/gcc/nios2-elf/5.3.0/../../../../../H-x86_64-pc-linux-gnu/nios2-elf/lib/pg/libc.a(lib_a-reallocr.o)
 .debug_ranges  0x0000000000001810       0x30 /package/eda/altera/altera17.0/nios2eds/bin/gnu/H-x86_64-pc-linux-gnu/bin/../lib/gcc/nios2-elf/5.3.0/../../../../../H-x86_64-pc-linux-gnu/nios2-elf/lib/pg/libc.a(lib_a-refill.o)
 .debug_ranges  0x0000000000001840       0x10 /package/eda/altera/altera17.0/nios2eds/bin/gnu/H-x86_64-pc-linux-gnu/bin/../lib/gcc/nios2-elf/5.3.0/../../../../../H-x86_64-pc-linux-gnu/nios2-elf/lib/pg/libc.a(lib_a-sbrkr.o)
 .debug_ranges  0x0000000000001850       0x60 /package/eda/altera/altera17.0/nios2eds/bin/gnu/H-x86_64-pc-linux-gnu/bin/../lib/gcc/nios2-elf/5.3.0/../../../../../H-x86_64-pc-linux-gnu/nios2-elf/lib/pg/libc.a(lib_a-signal.o)
 .debug_ranges  0x00000000000018b0       0x38 /package/eda/altera/altera17.0/nios2eds/bin/gnu/H-x86_64-pc-linux-gnu/bin/../lib/gcc/nios2-elf/5.3.0/../../../../../H-x86_64-pc-linux-gnu/nios2-elf/lib/pg/libc.a(lib_a-signalr.o)
 .debug_ranges  0x00000000000018e8       0x30 /package/eda/altera/altera17.0/nios2eds/bin/gnu/H-x86_64-pc-linux-gnu/bin/../lib/gcc/nios2-elf/5.3.0/../../../../../H-x86_64-pc-linux-gnu/nios2-elf/lib/pg/libc.a(lib_a-stdio.o)
 .debug_ranges  0x0000000000001918       0x10 /package/eda/altera/altera17.0/nios2eds/bin/gnu/H-x86_64-pc-linux-gnu/bin/../lib/gcc/nios2-elf/5.3.0/../../../../../H-x86_64-pc-linux-gnu/nios2-elf/lib/pg/libc.a(lib_a-strcmp.o)
 .debug_ranges  0x0000000000001928       0x10 /package/eda/altera/altera17.0/nios2eds/bin/gnu/H-x86_64-pc-linux-gnu/bin/../lib/gcc/nios2-elf/5.3.0/../../../../../H-x86_64-pc-linux-gnu/nios2-elf/lib/pg/libc.a(lib_a-strdup.o)
 .debug_ranges  0x0000000000001938       0x10 /package/eda/altera/altera17.0/nios2eds/bin/gnu/H-x86_64-pc-linux-gnu/bin/../lib/gcc/nios2-elf/5.3.0/../../../../../H-x86_64-pc-linux-gnu/nios2-elf/lib/pg/libc.a(lib_a-strdup_r.o)
 .debug_ranges  0x0000000000001948       0x10 /package/eda/altera/altera17.0/nios2eds/bin/gnu/H-x86_64-pc-linux-gnu/bin/../lib/gcc/nios2-elf/5.3.0/../../../../../H-x86_64-pc-linux-gnu/nios2-elf/lib/pg/libc.a(lib_a-strlen.o)
 .debug_ranges  0x0000000000001958       0x10 /package/eda/altera/altera17.0/nios2eds/bin/gnu/H-x86_64-pc-linux-gnu/bin/../lib/gcc/nios2-elf/5.3.0/../../../../../H-x86_64-pc-linux-gnu/nios2-elf/lib/pg/libc.a(lib_a-strncmp.o)
 .debug_ranges  0x0000000000001968       0x98 /package/eda/altera/altera17.0/nios2eds/bin/gnu/H-x86_64-pc-linux-gnu/bin/../lib/gcc/nios2-elf/5.3.0/../../../../../H-x86_64-pc-linux-gnu/nios2-elf/lib/pg/libc.a(lib_a-strtod.o)
 .debug_ranges  0x0000000000001a00       0x10 /package/eda/altera/altera17.0/nios2eds/bin/gnu/H-x86_64-pc-linux-gnu/bin/../lib/gcc/nios2-elf/5.3.0/../../../../../H-x86_64-pc-linux-gnu/nios2-elf/lib/pg/libc.a(lib_a-vfiprintfr_1.o)
 .debug_ranges  0x0000000000001a10      0x178 /package/eda/altera/altera17.0/nios2eds/bin/gnu/H-x86_64-pc-linux-gnu/bin/../lib/gcc/nios2-elf/5.3.0/../../../../../H-x86_64-pc-linux-gnu/nios2-elf/lib/pg/libc.a(lib_a-vfprintf.o)
 .debug_ranges  0x0000000000001b88       0x30 /package/eda/altera/altera17.0/nios2eds/bin/gnu/H-x86_64-pc-linux-gnu/bin/../lib/gcc/nios2-elf/5.3.0/../../../../../H-x86_64-pc-linux-gnu/nios2-elf/lib/pg/libc.a(lib_a-wbuf.o)
 .debug_ranges  0x0000000000001bb8       0x10 /package/eda/altera/altera17.0/nios2eds/bin/gnu/H-x86_64-pc-linux-gnu/bin/../lib/gcc/nios2-elf/5.3.0/../../../../../H-x86_64-pc-linux-gnu/nios2-elf/lib/pg/libc.a(lib_a-writer.o)
 .debug_ranges  0x0000000000001bc8       0x38 /package/eda/altera/altera17.0/nios2eds/bin/gnu/H-x86_64-pc-linux-gnu/bin/../lib/gcc/nios2-elf/5.3.0/../../../../../H-x86_64-pc-linux-gnu/nios2-elf/lib/pg/libc.a(lib_a-wsetup.o)
 .debug_ranges  0x0000000000001c00       0x10 /package/eda/altera/altera17.0/nios2eds/bin/gnu/H-x86_64-pc-linux-gnu/bin/../lib/gcc/nios2-elf/5.3.0/../../../../../H-x86_64-pc-linux-gnu/nios2-elf/lib/pg/libc.a(closer.o)
 .debug_ranges  0x0000000000001c10       0x30 /package/eda/altera/altera17.0/nios2eds/bin/gnu/H-x86_64-pc-linux-gnu/bin/../lib/gcc/nios2-elf/5.3.0/../../../../../H-x86_64-pc-linux-gnu/nios2-elf/lib/pg/libc.a(lib_a-__call_atexit.o)
 .debug_ranges  0x0000000000001c40       0x18 /package/eda/altera/altera17.0/nios2eds/bin/gnu/H-x86_64-pc-linux-gnu/bin/../lib/gcc/nios2-elf/5.3.0/../../../../../H-x86_64-pc-linux-gnu/nios2-elf/lib/pg/libc.a(lib_a-dtoa.o)
 .debug_ranges  0x0000000000001c58       0x10 /package/eda/altera/altera17.0/nios2eds/bin/gnu/H-x86_64-pc-linux-gnu/bin/../lib/gcc/nios2-elf/5.3.0/../../../../../H-x86_64-pc-linux-gnu/nios2-elf/lib/pg/libc.a(lib_a-flags.o)
 .debug_ranges  0x0000000000001c68       0x38 /package/eda/altera/altera17.0/nios2eds/bin/gnu/H-x86_64-pc-linux-gnu/bin/../lib/gcc/nios2-elf/5.3.0/../../../../../H-x86_64-pc-linux-gnu/nios2-elf/lib/pg/libc.a(lib_a-gdtoa-gethex.o)
 .debug_ranges  0x0000000000001ca0       0x10 /package/eda/altera/altera17.0/nios2eds/bin/gnu/H-x86_64-pc-linux-gnu/bin/../lib/gcc/nios2-elf/5.3.0/../../../../../H-x86_64-pc-linux-gnu/nios2-elf/lib/pg/libc.a(lib_a-gdtoa-hexnan.o)
 .debug_ranges  0x0000000000001cb0       0x10 /package/eda/altera/altera17.0/nios2eds/bin/gnu/H-x86_64-pc-linux-gnu/bin/../lib/gcc/nios2-elf/5.3.0/../../../../../H-x86_64-pc-linux-gnu/nios2-elf/lib/pg/libc.a(lib_a-isattyr.o)
 .debug_ranges  0x0000000000001cc0       0x60 /package/eda/altera/altera17.0/nios2eds/bin/gnu/H-x86_64-pc-linux-gnu/bin/../lib/gcc/nios2-elf/5.3.0/../../../../../H-x86_64-pc-linux-gnu/nios2-elf/lib/pg/libc.a(lib_a-locale.o)
 .debug_ranges  0x0000000000001d20       0x10 /package/eda/altera/altera17.0/nios2eds/bin/gnu/H-x86_64-pc-linux-gnu/bin/../lib/gcc/nios2-elf/5.3.0/../../../../../H-x86_64-pc-linux-gnu/nios2-elf/lib/pg/libc.a(lib_a-lseekr.o)
 .debug_ranges  0x0000000000001d30       0xe0 /package/eda/altera/altera17.0/nios2eds/bin/gnu/H-x86_64-pc-linux-gnu/bin/../lib/gcc/nios2-elf/5.3.0/../../../../../H-x86_64-pc-linux-gnu/nios2-elf/lib/pg/libc.a(lib_a-mprec.o)
 .debug_ranges  0x0000000000001e10       0x10 /package/eda/altera/altera17.0/nios2eds/bin/gnu/H-x86_64-pc-linux-gnu/bin/../lib/gcc/nios2-elf/5.3.0/../../../../../H-x86_64-pc-linux-gnu/nios2-elf/lib/pg/libc.a(lib_a-readr.o)
 .debug_ranges  0x0000000000001e20      0x1b8 /package/eda/altera/altera17.0/nios2eds/bin/gnu/H-x86_64-pc-linux-gnu/bin/../lib/gcc/nios2-elf/5.3.0/../../../../../H-x86_64-pc-linux-gnu/nios2-elf/lib/pg/libc.a(lib_a-vfiprintf.o)
 .debug_ranges  0x0000000000001fd8       0x50 /package/eda/altera/altera17.0/nios2eds/bin/gnu/H-x86_64-pc-linux-gnu/bin/../lib/gcc/nios2-elf/5.3.0/../../../../../H-x86_64-pc-linux-gnu/nios2-elf/lib/pg/libc.a(lib_a-fputwc.o)
 .debug_ranges  0x0000000000002028       0x18 /package/eda/altera/altera17.0/nios2eds/bin/gnu/H-x86_64-pc-linux-gnu/bin/../lib/gcc/nios2-elf/5.3.0/../../../../../H-x86_64-pc-linux-gnu/nios2-elf/lib/pg/libc.a(lib_a-wcrtomb.o)
 .debug_ranges  0x0000000000002040       0x18 /package/eda/altera/altera17.0/nios2eds/bin/gnu/H-x86_64-pc-linux-gnu/bin/../lib/gcc/nios2-elf/5.3.0/../../../../../H-x86_64-pc-linux-gnu/nios2-elf/lib/pg/libc.a(lib_a-wctomb_r.o)
 .debug_ranges  0x0000000000002058      0x158 /package/eda/altera/altera17.0/nios2eds/bin/gnu/H-x86_64-pc-linux-gnu/bin/../lib/gcc/nios2-elf/5.3.0/pg/libgcc.a(_udivdi3.o)
 .debug_ranges  0x00000000000021b0      0x160 /package/eda/altera/altera17.0/nios2eds/bin/gnu/H-x86_64-pc-linux-gnu/bin/../lib/gcc/nios2-elf/5.3.0/pg/libgcc.a(_umoddi3.o)
 .debug_ranges  0x0000000000002310       0x18 /package/eda/altera/altera17.0/nios2eds/bin/gnu/H-x86_64-pc-linux-gnu/bin/../lib/gcc/nios2-elf/5.3.0/pg/libgcc.a(floatunsidf.o)
 .debug_ranges  0x0000000000002328       0x28 ../MNIST_CNN_Software_bsp//libhal_bsp.a(alt_irq_entry.o)
 .debug_ranges  0x0000000000002350       0x30 ../MNIST_CNN_Software_bsp//libhal_bsp.a(alt_exception_entry.o)
 .debug_ranges  0x0000000000002380       0x10 /package/eda/altera/altera17.0/nios2eds/bin/gnu/H-x86_64-pc-linux-gnu/bin/../lib/gcc/nios2-elf/5.3.0/../../../../../H-x86_64-pc-linux-gnu/nios2-elf/lib/pg/libc.a(lib_a-atexit.o)
 .debug_ranges  0x0000000000002390       0x10 /package/eda/altera/altera17.0/nios2eds/bin/gnu/H-x86_64-pc-linux-gnu/bin/../lib/gcc/nios2-elf/5.3.0/../../../../../H-x86_64-pc-linux-gnu/nios2-elf/lib/pg/libc.a(lib_a-memcmp.o)
 .debug_ranges  0x00000000000023a0       0x10 /package/eda/altera/altera17.0/nios2eds/bin/gnu/H-x86_64-pc-linux-gnu/bin/../lib/gcc/nios2-elf/5.3.0/../../../../../H-x86_64-pc-linux-gnu/nios2-elf/lib/pg/libc.a(lib_a-__atexit.o)
